
./bin/x86/trax:     file format elf64-x86-64


Disassembly of section .init:

0000000000001db0 <_init>:
    1db0:	48 83 ec 08          	sub    $0x8,%rsp
    1db4:	48 8b 05 2d a2 20 00 	mov    0x20a22d(%rip),%rax        # 20bfe8 <__gmon_start__>
    1dbb:	48 85 c0             	test   %rax,%rax
    1dbe:	74 02                	je     1dc2 <_init+0x12>
    1dc0:	ff d0                	callq  *%rax
    1dc2:	48 83 c4 08          	add    $0x8,%rsp
    1dc6:	c3                   	retq   

Disassembly of section .plt:

0000000000001dd0 <.plt>:
    1dd0:	ff 35 42 a0 20 00    	pushq  0x20a042(%rip)        # 20be18 <_GLOBAL_OFFSET_TABLE_+0x8>
    1dd6:	ff 25 44 a0 20 00    	jmpq   *0x20a044(%rip)        # 20be20 <_GLOBAL_OFFSET_TABLE_+0x10>
    1ddc:	0f 1f 40 00          	nopl   0x0(%rax)

0000000000001de0 <_ZNSt6chrono3_V212system_clock3nowEv@plt>:
    1de0:	ff 25 42 a0 20 00    	jmpq   *0x20a042(%rip)        # 20be28 <_ZNSt6chrono3_V212system_clock3nowEv@GLIBCXX_3.4.19>
    1de6:	68 00 00 00 00       	pushq  $0x0
    1deb:	e9 e0 ff ff ff       	jmpq   1dd0 <.plt>

0000000000001df0 <_ZNSt13basic_filebufIcSt11char_traitsIcEE5closeEv@plt>:
    1df0:	ff 25 3a a0 20 00    	jmpq   *0x20a03a(%rip)        # 20be30 <_ZNSt13basic_filebufIcSt11char_traitsIcEE5closeEv@GLIBCXX_3.4>
    1df6:	68 01 00 00 00       	pushq  $0x1
    1dfb:	e9 d0 ff ff ff       	jmpq   1dd0 <.plt>

0000000000001e00 <_ZNKSt12__basic_fileIcE7is_openEv@plt>:
    1e00:	ff 25 32 a0 20 00    	jmpq   *0x20a032(%rip)        # 20be38 <_ZNKSt12__basic_fileIcE7is_openEv@GLIBCXX_3.4>
    1e06:	68 02 00 00 00       	pushq  $0x2
    1e0b:	e9 c0 ff ff ff       	jmpq   1dd0 <.plt>

0000000000001e10 <_ZNSt14basic_ifstreamIcSt11char_traitsIcEED1Ev@plt>:
    1e10:	ff 25 2a a0 20 00    	jmpq   *0x20a02a(%rip)        # 20be40 <_ZNSt14basic_ifstreamIcSt11char_traitsIcEED1Ev@GLIBCXX_3.4>
    1e16:	68 03 00 00 00       	pushq  $0x3
    1e1b:	e9 b0 ff ff ff       	jmpq   1dd0 <.plt>

0000000000001e20 <_ZSt9terminatev@plt>:
    1e20:	ff 25 22 a0 20 00    	jmpq   *0x20a022(%rip)        # 20be48 <_ZSt9terminatev@GLIBCXX_3.4>
    1e26:	68 04 00 00 00       	pushq  $0x4
    1e2b:	e9 a0 ff ff ff       	jmpq   1dd0 <.plt>

0000000000001e30 <_ZNKSt7__cxx1112basic_stringIcSt11char_traitsIcESaIcEE7compareEPKc@plt>:
    1e30:	ff 25 1a a0 20 00    	jmpq   *0x20a01a(%rip)        # 20be50 <_ZNKSt7__cxx1112basic_stringIcSt11char_traitsIcESaIcEE7compareEPKc@GLIBCXX_3.4.21>
    1e36:	68 05 00 00 00       	pushq  $0x5
    1e3b:	e9 90 ff ff ff       	jmpq   1dd0 <.plt>

0000000000001e40 <_ZNSt8ios_baseC2Ev@plt>:
    1e40:	ff 25 12 a0 20 00    	jmpq   *0x20a012(%rip)        # 20be58 <_ZNSt8ios_baseC2Ev@GLIBCXX_3.4>
    1e46:	68 06 00 00 00       	pushq  $0x6
    1e4b:	e9 80 ff ff ff       	jmpq   1dd0 <.plt>

0000000000001e50 <_ZNSt8ios_baseD2Ev@plt>:
    1e50:	ff 25 0a a0 20 00    	jmpq   *0x20a00a(%rip)        # 20be60 <_ZNSt8ios_baseD2Ev@GLIBCXX_3.4>
    1e56:	68 07 00 00 00       	pushq  $0x7
    1e5b:	e9 70 ff ff ff       	jmpq   1dd0 <.plt>

0000000000001e60 <_ZSt17__throw_bad_allocv@plt>:
    1e60:	ff 25 02 a0 20 00    	jmpq   *0x20a002(%rip)        # 20be68 <_ZSt17__throw_bad_allocv@GLIBCXX_3.4>
    1e66:	68 08 00 00 00       	pushq  $0x8
    1e6b:	e9 60 ff ff ff       	jmpq   1dd0 <.plt>

0000000000001e70 <strlen@plt>:
    1e70:	ff 25 fa 9f 20 00    	jmpq   *0x209ffa(%rip)        # 20be70 <strlen@GLIBC_2.2.5>
    1e76:	68 09 00 00 00       	pushq  $0x9
    1e7b:	e9 50 ff ff ff       	jmpq   1dd0 <.plt>

0000000000001e80 <_ZNSt6thread6_StateD2Ev@plt>:
    1e80:	ff 25 f2 9f 20 00    	jmpq   *0x209ff2(%rip)        # 20be78 <_ZNSt6thread6_StateD2Ev@GLIBCXX_3.4.22>
    1e86:	68 0a 00 00 00       	pushq  $0xa
    1e8b:	e9 40 ff ff ff       	jmpq   1dd0 <.plt>

0000000000001e90 <_ZNSt7__cxx1119basic_istringstreamIcSt11char_traitsIcESaIcEED1Ev@plt>:
    1e90:	ff 25 ea 9f 20 00    	jmpq   *0x209fea(%rip)        # 20be80 <_ZNSt7__cxx1119basic_istringstreamIcSt11char_traitsIcESaIcEED1Ev@GLIBCXX_3.4.21>
    1e96:	68 0b 00 00 00       	pushq  $0xb
    1e9b:	e9 30 ff ff ff       	jmpq   1dd0 <.plt>

0000000000001ea0 <memset@plt>:
    1ea0:	ff 25 e2 9f 20 00    	jmpq   *0x209fe2(%rip)        # 20be88 <memset@GLIBC_2.2.5>
    1ea6:	68 0c 00 00 00       	pushq  $0xc
    1eab:	e9 20 ff ff ff       	jmpq   1dd0 <.plt>

0000000000001eb0 <__assert_fail@plt>:
    1eb0:	ff 25 da 9f 20 00    	jmpq   *0x209fda(%rip)        # 20be90 <__assert_fail@GLIBC_2.2.5>
    1eb6:	68 0d 00 00 00       	pushq  $0xd
    1ebb:	e9 10 ff ff ff       	jmpq   1dd0 <.plt>

0000000000001ec0 <_ZSt19__throw_logic_errorPKc@plt>:
    1ec0:	ff 25 d2 9f 20 00    	jmpq   *0x209fd2(%rip)        # 20be98 <_ZSt19__throw_logic_errorPKc@GLIBCXX_3.4>
    1ec6:	68 0e 00 00 00       	pushq  $0xe
    1ecb:	e9 00 ff ff ff       	jmpq   1dd0 <.plt>

0000000000001ed0 <memcpy@plt>:
    1ed0:	ff 25 ca 9f 20 00    	jmpq   *0x209fca(%rip)        # 20bea0 <memcpy@GLIBC_2.14>
    1ed6:	68 0f 00 00 00       	pushq  $0xf
    1edb:	e9 f0 fe ff ff       	jmpq   1dd0 <.plt>

0000000000001ee0 <__cxa_atexit@plt>:
    1ee0:	ff 25 c2 9f 20 00    	jmpq   *0x209fc2(%rip)        # 20bea8 <__cxa_atexit@GLIBC_2.2.5>
    1ee6:	68 10 00 00 00       	pushq  $0x10
    1eeb:	e9 e0 fe ff ff       	jmpq   1dd0 <.plt>

0000000000001ef0 <_ZNSt13basic_filebufIcSt11char_traitsIcEE4openEPKcSt13_Ios_Openmode@plt>:
    1ef0:	ff 25 ba 9f 20 00    	jmpq   *0x209fba(%rip)        # 20beb0 <_ZNSt13basic_filebufIcSt11char_traitsIcEE4openEPKcSt13_Ios_Openmode@GLIBCXX_3.4>
    1ef6:	68 11 00 00 00       	pushq  $0x11
    1efb:	e9 d0 fe ff ff       	jmpq   1dd0 <.plt>

0000000000001f00 <_ZNSt6thread15_M_start_threadESt10unique_ptrINS_6_StateESt14default_deleteIS1_EEPFvvE@plt>:
    1f00:	ff 25 b2 9f 20 00    	jmpq   *0x209fb2(%rip)        # 20beb8 <_ZNSt6thread15_M_start_threadESt10unique_ptrINS_6_StateESt14default_deleteIS1_EEPFvvE@GLIBCXX_3.4.22>
    1f06:	68 12 00 00 00       	pushq  $0x12
    1f0b:	e9 c0 fe ff ff       	jmpq   1dd0 <.plt>

0000000000001f10 <_ZdlPv@plt>:
    1f10:	ff 25 aa 9f 20 00    	jmpq   *0x209faa(%rip)        # 20bec0 <_ZdlPv@GLIBCXX_3.4>
    1f16:	68 13 00 00 00       	pushq  $0x13
    1f1b:	e9 b0 fe ff ff       	jmpq   1dd0 <.plt>

0000000000001f20 <_ZNSo9_M_insertIlEERSoT_@plt>:
    1f20:	ff 25 a2 9f 20 00    	jmpq   *0x209fa2(%rip)        # 20bec8 <_ZNSo9_M_insertIlEERSoT_@GLIBCXX_3.4.9>
    1f26:	68 14 00 00 00       	pushq  $0x14
    1f2b:	e9 a0 fe ff ff       	jmpq   1dd0 <.plt>

0000000000001f30 <_ZStlsISt11char_traitsIcEERSt13basic_ostreamIcT_ES5_PKc@plt>:
    1f30:	ff 25 9a 9f 20 00    	jmpq   *0x209f9a(%rip)        # 20bed0 <_ZStlsISt11char_traitsIcEERSt13basic_ostreamIcT_ES5_PKc@GLIBCXX_3.4>
    1f36:	68 15 00 00 00       	pushq  $0x15
    1f3b:	e9 90 fe ff ff       	jmpq   1dd0 <.plt>

0000000000001f40 <fclose@plt>:
    1f40:	ff 25 92 9f 20 00    	jmpq   *0x209f92(%rip)        # 20bed8 <fclose@GLIBC_2.2.5>
    1f46:	68 16 00 00 00       	pushq  $0x16
    1f4b:	e9 80 fe ff ff       	jmpq   1dd0 <.plt>

0000000000001f50 <_Znwm@plt>:
    1f50:	ff 25 8a 9f 20 00    	jmpq   *0x209f8a(%rip)        # 20bee0 <_Znwm@GLIBCXX_3.4>
    1f56:	68 17 00 00 00       	pushq  $0x17
    1f5b:	e9 70 fe ff ff       	jmpq   1dd0 <.plt>

0000000000001f60 <_ZdlPvm@plt>:
    1f60:	ff 25 82 9f 20 00    	jmpq   *0x209f82(%rip)        # 20bee8 <_ZdlPvm@CXXABI_1.3.9>
    1f66:	68 18 00 00 00       	pushq  $0x18
    1f6b:	e9 60 fe ff ff       	jmpq   1dd0 <.plt>

0000000000001f70 <_ZNSt13basic_filebufIcSt11char_traitsIcEEC1Ev@plt>:
    1f70:	ff 25 7a 9f 20 00    	jmpq   *0x209f7a(%rip)        # 20bef0 <_ZNSt13basic_filebufIcSt11char_traitsIcEEC1Ev@GLIBCXX_3.4>
    1f76:	68 19 00 00 00       	pushq  $0x19
    1f7b:	e9 50 fe ff ff       	jmpq   1dd0 <.plt>

0000000000001f80 <__stack_chk_fail@plt>:
    1f80:	ff 25 72 9f 20 00    	jmpq   *0x209f72(%rip)        # 20bef8 <__stack_chk_fail@GLIBC_2.4>
    1f86:	68 1a 00 00 00       	pushq  $0x1a
    1f8b:	e9 40 fe ff ff       	jmpq   1dd0 <.plt>

0000000000001f90 <_ZSt16__ostream_insertIcSt11char_traitsIcEERSt13basic_ostreamIT_T0_ES6_PKS3_l@plt>:
    1f90:	ff 25 6a 9f 20 00    	jmpq   *0x209f6a(%rip)        # 20bf00 <_ZSt16__ostream_insertIcSt11char_traitsIcEERSt13basic_ostreamIT_T0_ES6_PKS3_l@GLIBCXX_3.4.9>
    1f96:	68 1b 00 00 00       	pushq  $0x1b
    1f9b:	e9 30 fe ff ff       	jmpq   1dd0 <.plt>

0000000000001fa0 <_ZNKSt5ctypeIcE13_M_widen_initEv@plt>:
    1fa0:	ff 25 62 9f 20 00    	jmpq   *0x209f62(%rip)        # 20bf08 <_ZNKSt5ctypeIcE13_M_widen_initEv@GLIBCXX_3.4.11>
    1fa6:	68 1c 00 00 00       	pushq  $0x1c
    1fab:	e9 20 fe ff ff       	jmpq   1dd0 <.plt>

0000000000001fb0 <fopen@plt>:
    1fb0:	ff 25 5a 9f 20 00    	jmpq   *0x209f5a(%rip)        # 20bf10 <fopen@GLIBC_2.2.5>
    1fb6:	68 1d 00 00 00       	pushq  $0x1d
    1fbb:	e9 10 fe ff ff       	jmpq   1dd0 <.plt>

0000000000001fc0 <_ZSt16__throw_bad_castv@plt>:
    1fc0:	ff 25 52 9f 20 00    	jmpq   *0x209f52(%rip)        # 20bf18 <_ZSt16__throw_bad_castv@GLIBCXX_3.4>
    1fc6:	68 1e 00 00 00       	pushq  $0x1e
    1fcb:	e9 00 fe ff ff       	jmpq   1dd0 <.plt>

0000000000001fd0 <_ZStrsIcSt11char_traitsIcESaIcEERSt13basic_istreamIT_T0_ES7_RNSt7__cxx1112basic_stringIS4_S5_T1_EE@plt>:
    1fd0:	ff 25 4a 9f 20 00    	jmpq   *0x209f4a(%rip)        # 20bf20 <_ZStrsIcSt11char_traitsIcESaIcEERSt13basic_istreamIT_T0_ES7_RNSt7__cxx1112basic_stringIS4_S5_T1_EE@GLIBCXX_3.4.21>
    1fd6:	68 1f 00 00 00       	pushq  $0x1f
    1fdb:	e9 f0 fd ff ff       	jmpq   1dd0 <.plt>

0000000000001fe0 <_ZNSt7__cxx1115basic_stringbufIcSt11char_traitsIcESaIcEE7_M_syncEPcmm@plt>:
    1fe0:	ff 25 42 9f 20 00    	jmpq   *0x209f42(%rip)        # 20bf28 <_ZNSt7__cxx1115basic_stringbufIcSt11char_traitsIcESaIcEE7_M_syncEPcmm@GLIBCXX_3.4.21>
    1fe6:	68 20 00 00 00       	pushq  $0x20
    1feb:	e9 e0 fd ff ff       	jmpq   1dd0 <.plt>

0000000000001ff0 <_ZStrsIcSt11char_traitsIcEERSt13basic_istreamIT_T0_ES6_RS3_@plt>:
    1ff0:	ff 25 3a 9f 20 00    	jmpq   *0x209f3a(%rip)        # 20bf30 <_ZStrsIcSt11char_traitsIcEERSt13basic_istreamIT_T0_ES6_RS3_@GLIBCXX_3.4>
    1ff6:	68 21 00 00 00       	pushq  $0x21
    1ffb:	e9 d0 fd ff ff       	jmpq   1dd0 <.plt>

0000000000002000 <_ZNSt9basic_iosIcSt11char_traitsIcEE4initEPSt15basic_streambufIcS1_E@plt>:
    2000:	ff 25 32 9f 20 00    	jmpq   *0x209f32(%rip)        # 20bf38 <_ZNSt9basic_iosIcSt11char_traitsIcEE4initEPSt15basic_streambufIcS1_E@GLIBCXX_3.4>
    2006:	68 22 00 00 00       	pushq  $0x22
    200b:	e9 c0 fd ff ff       	jmpq   1dd0 <.plt>

0000000000002010 <_ZNSt6thread20hardware_concurrencyEv@plt>:
    2010:	ff 25 2a 9f 20 00    	jmpq   *0x209f2a(%rip)        # 20bf40 <_ZNSt6thread20hardware_concurrencyEv@GLIBCXX_3.4.17>
    2016:	68 23 00 00 00       	pushq  $0x23
    201b:	e9 b0 fd ff ff       	jmpq   1dd0 <.plt>

0000000000002020 <_ZNSt6localeD1Ev@plt>:
    2020:	ff 25 22 9f 20 00    	jmpq   *0x209f22(%rip)        # 20bf48 <_ZNSt6localeD1Ev@GLIBCXX_3.4>
    2026:	68 24 00 00 00       	pushq  $0x24
    202b:	e9 a0 fd ff ff       	jmpq   1dd0 <.plt>

0000000000002030 <_ZNSt8ios_base4InitC1Ev@plt>:
    2030:	ff 25 1a 9f 20 00    	jmpq   *0x209f1a(%rip)        # 20bf50 <_ZNSt8ios_base4InitC1Ev@GLIBCXX_3.4>
    2036:	68 25 00 00 00       	pushq  $0x25
    203b:	e9 90 fd ff ff       	jmpq   1dd0 <.plt>

0000000000002040 <_ZNSt13basic_filebufIcSt11char_traitsIcEED1Ev@plt>:
    2040:	ff 25 12 9f 20 00    	jmpq   *0x209f12(%rip)        # 20bf58 <_ZNSt13basic_filebufIcSt11char_traitsIcEED1Ev@GLIBCXX_3.4>
    2046:	68 26 00 00 00       	pushq  $0x26
    204b:	e9 80 fd ff ff       	jmpq   1dd0 <.plt>

0000000000002050 <_ZNSo9_M_insertIbEERSoT_@plt>:
    2050:	ff 25 0a 9f 20 00    	jmpq   *0x209f0a(%rip)        # 20bf60 <_ZNSo9_M_insertIbEERSoT_@GLIBCXX_3.4.9>
    2056:	68 27 00 00 00       	pushq  $0x27
    205b:	e9 70 fd ff ff       	jmpq   1dd0 <.plt>

0000000000002060 <__fprintf_chk@plt>:
    2060:	ff 25 02 9f 20 00    	jmpq   *0x209f02(%rip)        # 20bf68 <__fprintf_chk@GLIBC_2.3.4>
    2066:	68 28 00 00 00       	pushq  $0x28
    206b:	e9 60 fd ff ff       	jmpq   1dd0 <.plt>

0000000000002070 <_ZNSt9basic_iosIcSt11char_traitsIcEE5clearESt12_Ios_Iostate@plt>:
    2070:	ff 25 fa 9e 20 00    	jmpq   *0x209efa(%rip)        # 20bf70 <_ZNSt9basic_iosIcSt11char_traitsIcEE5clearESt12_Ios_Iostate@GLIBCXX_3.4>
    2076:	68 29 00 00 00       	pushq  $0x29
    207b:	e9 50 fd ff ff       	jmpq   1dd0 <.plt>

0000000000002080 <_ZNSt6thread4joinEv@plt>:
    2080:	ff 25 f2 9e 20 00    	jmpq   *0x209ef2(%rip)        # 20bf78 <_ZNSt6thread4joinEv@GLIBCXX_3.4.11>
    2086:	68 2a 00 00 00       	pushq  $0x2a
    208b:	e9 40 fd ff ff       	jmpq   1dd0 <.plt>

0000000000002090 <_ZNSi10_M_extractIjEERSiRT_@plt>:
    2090:	ff 25 ea 9e 20 00    	jmpq   *0x209eea(%rip)        # 20bf80 <_ZNSi10_M_extractIjEERSiRT_@GLIBCXX_3.4.9>
    2096:	68 2b 00 00 00       	pushq  $0x2b
    209b:	e9 30 fd ff ff       	jmpq   1dd0 <.plt>

00000000000020a0 <_Unwind_Resume@plt>:
    20a0:	ff 25 e2 9e 20 00    	jmpq   *0x209ee2(%rip)        # 20bf88 <_Unwind_Resume@GCC_3.0>
    20a6:	68 2c 00 00 00       	pushq  $0x2c
    20ab:	e9 20 fd ff ff       	jmpq   1dd0 <.plt>

00000000000020b0 <_ZNSt7__cxx1112basic_stringIcSt11char_traitsIcESaIcEE9_M_createERmm@plt>:
    20b0:	ff 25 da 9e 20 00    	jmpq   *0x209eda(%rip)        # 20bf90 <_ZNSt7__cxx1112basic_stringIcSt11char_traitsIcESaIcEE9_M_createERmm@GLIBCXX_3.4.21>
    20b6:	68 2d 00 00 00       	pushq  $0x2d
    20bb:	e9 10 fd ff ff       	jmpq   1dd0 <.plt>

00000000000020c0 <sqrtf@plt>:
    20c0:	ff 25 d2 9e 20 00    	jmpq   *0x209ed2(%rip)        # 20bf98 <sqrtf@GLIBC_2.2.5>
    20c6:	68 2e 00 00 00       	pushq  $0x2e
    20cb:	e9 00 fd ff ff       	jmpq   1dd0 <.plt>

00000000000020d0 <_ZSt7getlineIcSt11char_traitsIcESaIcEERSt13basic_istreamIT_T0_ES7_RNSt7__cxx1112basic_stringIS4_S5_T1_EES4_@plt>:
    20d0:	ff 25 ca 9e 20 00    	jmpq   *0x209eca(%rip)        # 20bfa0 <_ZSt7getlineIcSt11char_traitsIcESaIcEERSt13basic_istreamIT_T0_ES7_RNSt7__cxx1112basic_stringIS4_S5_T1_EES4_@GLIBCXX_3.4.21>
    20d6:	68 2f 00 00 00       	pushq  $0x2f
    20db:	e9 f0 fc ff ff       	jmpq   1dd0 <.plt>

00000000000020e0 <_ZNSt12__basic_fileIcED1Ev@plt>:
    20e0:	ff 25 c2 9e 20 00    	jmpq   *0x209ec2(%rip)        # 20bfa8 <_ZNSt12__basic_fileIcED1Ev@GLIBCXX_3.4>
    20e6:	68 30 00 00 00       	pushq  $0x30
    20eb:	e9 e0 fc ff ff       	jmpq   1dd0 <.plt>

00000000000020f0 <fwrite@plt>:
    20f0:	ff 25 ba 9e 20 00    	jmpq   *0x209eba(%rip)        # 20bfb0 <fwrite@GLIBC_2.2.5>
    20f6:	68 31 00 00 00       	pushq  $0x31
    20fb:	e9 d0 fc ff ff       	jmpq   1dd0 <.plt>

0000000000002100 <_ZNSi10_M_extractIfEERSiRT_@plt>:
    2100:	ff 25 b2 9e 20 00    	jmpq   *0x209eb2(%rip)        # 20bfb8 <_ZNSi10_M_extractIfEERSiRT_@GLIBCXX_3.4.9>
    2106:	68 32 00 00 00       	pushq  $0x32
    210b:	e9 c0 fc ff ff       	jmpq   1dd0 <.plt>

0000000000002110 <_ZNSt6localeC1Ev@plt>:
    2110:	ff 25 aa 9e 20 00    	jmpq   *0x209eaa(%rip)        # 20bfc0 <_ZNSt6localeC1Ev@GLIBCXX_3.4>
    2116:	68 33 00 00 00       	pushq  $0x33
    211b:	e9 b0 fc ff ff       	jmpq   1dd0 <.plt>

Disassembly of section .plt.got:

0000000000002120 <__cxa_finalize@plt>:
    2120:	ff 25 a2 9e 20 00    	jmpq   *0x209ea2(%rip)        # 20bfc8 <__cxa_finalize@GLIBC_2.2.5>
    2126:	66 90                	xchg   %ax,%ax

Disassembly of section .text:

0000000000002130 <main>:
    2130:	41 57                	push   %r15
    2132:	41 56                	push   %r14
    2134:	48 8d 35 fa 7c 00 00 	lea    0x7cfa(%rip),%rsi        # 9e35 <_IO_stdin_used+0x15>
    213b:	41 55                	push   %r13
    213d:	41 54                	push   %r12
    213f:	55                   	push   %rbp
    2140:	53                   	push   %rbx
    2141:	48 81 ec f8 01 40 00 	sub    $0x4001f8,%rsp
    2148:	64 48 8b 04 25 28 00 	mov    %fs:0x28,%rax
    214f:	00 00 
    2151:	48 89 84 24 e8 01 40 	mov    %rax,0x4001e8(%rsp)
    2158:	00 
    2159:	31 c0                	xor    %eax,%eax
    215b:	48 8d 44 24 70       	lea    0x70(%rsp),%rax
    2160:	48 c7 44 24 70 00 00 	movq   $0x0,0x70(%rsp)
    2167:	00 00 
    2169:	48 c7 44 24 78 00 00 	movq   $0x0,0x78(%rsp)
    2170:	00 00 
    2172:	48 c7 84 24 80 00 00 	movq   $0x0,0x80(%rsp)
    2179:	00 00 00 00 00 
    217e:	48 c7 84 24 88 00 00 	movq   $0x0,0x88(%rsp)
    2185:	00 00 00 00 00 
    218a:	48 89 c7             	mov    %rax,%rdi
    218d:	48 c7 84 24 90 00 00 	movq   $0x0,0x90(%rsp)
    2194:	00 00 00 00 00 
    2199:	48 c7 84 24 98 00 00 	movq   $0x0,0x98(%rsp)
    21a0:	00 00 00 00 00 
    21a5:	48 c7 84 24 a0 00 00 	movq   $0x0,0xa0(%rsp)
    21ac:	00 00 00 00 00 
    21b1:	48 c7 84 24 a8 00 00 	movq   $0x0,0xa8(%rsp)
    21b8:	00 00 00 00 00 
    21bd:	48 c7 84 24 b0 00 00 	movq   $0x0,0xb0(%rsp)
    21c4:	00 00 00 00 00 
    21c9:	48 c7 84 24 b8 00 00 	movq   $0x0,0xb8(%rsp)
    21d0:	00 00 00 00 00 
    21d5:	48 c7 84 24 c0 00 00 	movq   $0x0,0xc0(%rsp)
    21dc:	00 00 00 00 00 
    21e1:	48 c7 84 24 c8 00 00 	movq   $0x0,0xc8(%rsp)
    21e8:	00 00 00 00 00 
    21ed:	48 c7 84 24 d0 00 00 	movq   $0x0,0xd0(%rsp)
    21f4:	00 00 00 00 00 
    21f9:	48 c7 84 24 d8 00 00 	movq   $0x0,0xd8(%rsp)
    2200:	00 00 00 00 00 
    2205:	48 c7 84 24 e0 00 00 	movq   $0x0,0xe0(%rsp)
    220c:	00 00 00 00 00 
    2211:	48 c7 84 24 e8 00 00 	movq   $0x0,0xe8(%rsp)
    2218:	00 00 00 00 00 
    221d:	48 c7 84 24 f0 00 00 	movq   $0x0,0xf0(%rsp)
    2224:	00 00 00 00 00 
    2229:	48 c7 84 24 f8 00 00 	movq   $0x0,0xf8(%rsp)
    2230:	00 00 00 00 00 
    2235:	48 89 44 24 08       	mov    %rax,0x8(%rsp)
    223a:	e8 51 32 00 00       	callq  5490 <_ZN4Mesh8load_objEPKc>
    223f:	48 8b 44 24 08       	mov    0x8(%rsp),%rax
    2244:	48 c7 44 24 38 00 00 	movq   $0x0,0x38(%rsp)
    224b:	00 00 
    224d:	48 c7 44 24 40 00 00 	movq   $0x0,0x40(%rsp)
    2254:	00 00 
    2256:	48 c7 44 24 48 00 00 	movq   $0x0,0x48(%rsp)
    225d:	00 00 
    225f:	48 c7 44 24 50 00 00 	movq   $0x0,0x50(%rsp)
    2266:	00 00 
    2268:	48 c7 44 24 58 00 00 	movq   $0x0,0x58(%rsp)
    226f:	00 00 
    2271:	48 89 44 24 30       	mov    %rax,0x30(%rsp)
    2276:	48 8d 44 24 30       	lea    0x30(%rsp),%rax
    227b:	48 c7 44 24 60 00 00 	movq   $0x0,0x60(%rsp)
    2282:	00 00 
    2284:	48 89 c7             	mov    %rax,%rdi
    2287:	48 89 44 24 10       	mov    %rax,0x10(%rsp)
    228c:	e8 5f 5a 00 00       	callq  7cf0 <_ZN7MeshBVH5buildEv>
    2291:	c7 05 99 9e 20 00 00 	movl   $0x0,0x209e99(%rip)        # 20c134 <_ZL11atomicinc_i>
    2298:	00 00 00 
    229b:	0f ae f0             	mfence 
    229e:	e8 6d fd ff ff       	callq  2010 <_ZNSt6thread20hardware_concurrencyEv@plt>
    22a3:	41 89 c4             	mov    %eax,%r12d
    22a6:	4d 85 e4             	test   %r12,%r12
    22a9:	0f 84 b8 05 00 00    	je     2867 <main+0x737>
    22af:	49 c1 e4 03          	shl    $0x3,%r12
    22b3:	4c 89 e7             	mov    %r12,%rdi
    22b6:	e8 95 fc ff ff       	callq  1f50 <_Znwm@plt>
    22bb:	49 89 c7             	mov    %rax,%r15
    22be:	4c 89 e2             	mov    %r12,%rdx
    22c1:	31 f6                	xor    %esi,%esi
    22c3:	48 89 c7             	mov    %rax,%rdi
    22c6:	4d 01 fc             	add    %r15,%r12
    22c9:	e8 d2 fb ff ff       	callq  1ea0 <memset@plt>
    22ce:	e8 0d fb ff ff       	callq  1de0 <_ZNSt6chrono3_V212system_clock3nowEv@plt>
    22d3:	4d 39 fc             	cmp    %r15,%r12
    22d6:	48 89 44 24 18       	mov    %rax,0x18(%rsp)
    22db:	0f 84 60 04 00 00    	je     2741 <main+0x611>
    22e1:	4c 89 fb             	mov    %r15,%rbx
    22e4:	4d 89 fd             	mov    %r15,%r13
    22e7:	66 0f 1f 84 00 00 00 	nopw   0x0(%rax,%rax,1)
    22ee:	00 00 
    22f0:	bf 08 00 00 00       	mov    $0x8,%edi
    22f5:	e8 56 fc ff ff       	callq  1f50 <_Znwm@plt>
    22fa:	48 8b 74 24 40       	mov    0x40(%rsp),%rsi
    22ff:	49 89 c6             	mov    %rax,%r14
    2302:	48 c7 00 00 00 00 00 	movq   $0x0,(%rax)
    2309:	48 8b 44 24 30       	mov    0x30(%rsp),%rax
    230e:	48 c7 84 24 08 01 00 	movq   $0x0,0x108(%rsp)
    2315:	00 00 00 00 00 
    231a:	48 c7 84 24 10 01 00 	movq   $0x0,0x110(%rsp)
    2321:	00 00 00 00 00 
    2326:	48 c7 84 24 18 01 00 	movq   $0x0,0x118(%rsp)
    232d:	00 00 00 00 00 
    2332:	48 89 f5             	mov    %rsi,%rbp
    2335:	48 2b 6c 24 38       	sub    0x38(%rsp),%rbp
    233a:	48 89 84 24 00 01 00 	mov    %rax,0x100(%rsp)
    2341:	00 
    2342:	48 89 e8             	mov    %rbp,%rax
    2345:	48 c1 f8 05          	sar    $0x5,%rax
    2349:	48 85 c0             	test   %rax,%rax
    234c:	74 20                	je     236e <main+0x23e>
    234e:	48 ba ff ff ff ff ff 	movabs $0x7ffffffffffffff,%rdx
    2355:	ff ff 07 
    2358:	48 39 d0             	cmp    %rdx,%rax
    235b:	0f 87 1d 05 00 00    	ja     287e <main+0x74e>
    2361:	48 89 ef             	mov    %rbp,%rdi
    2364:	e8 e7 fb ff ff       	callq  1f50 <_Znwm@plt>
    2369:	48 8b 74 24 40       	mov    0x40(%rsp),%rsi
    236e:	48 8b 7c 24 38       	mov    0x38(%rsp),%rdi
    2373:	48 01 c5             	add    %rax,%rbp
    2376:	48 89 84 24 08 01 00 	mov    %rax,0x108(%rsp)
    237d:	00 
    237e:	48 89 84 24 10 01 00 	mov    %rax,0x110(%rsp)
    2385:	00 
    2386:	48 89 ac 24 18 01 00 	mov    %rbp,0x118(%rsp)
    238d:	00 
    238e:	48 39 fe             	cmp    %rdi,%rsi
    2391:	74 44                	je     23d7 <main+0x2a7>
    2393:	48 89 c1             	mov    %rax,%rcx
    2396:	48 89 fa             	mov    %rdi,%rdx
    2399:	0f 1f 80 00 00 00 00 	nopl   0x0(%rax)
    23a0:	48 85 c9             	test   %rcx,%rcx
    23a3:	0f 84 8f 04 00 00    	je     2838 <main+0x708>
    23a9:	f3 0f 6f 02          	movdqu (%rdx),%xmm0
    23ad:	48 83 c2 20          	add    $0x20,%rdx
    23b1:	48 83 c1 20          	add    $0x20,%rcx
    23b5:	0f 11 41 e0          	movups %xmm0,-0x20(%rcx)
    23b9:	f3 0f 6f 42 f0       	movdqu -0x10(%rdx),%xmm0
    23be:	0f 11 41 f0          	movups %xmm0,-0x10(%rcx)
    23c2:	48 39 d6             	cmp    %rdx,%rsi
    23c5:	75 d9                	jne    23a0 <main+0x270>
    23c7:	48 83 c7 20          	add    $0x20,%rdi
    23cb:	48 29 fe             	sub    %rdi,%rsi
    23ce:	48 83 e6 e0          	and    $0xffffffffffffffe0,%rsi
    23d2:	48 8d 44 30 20       	lea    0x20(%rax,%rsi,1),%rax
    23d7:	48 8b 4c 24 58       	mov    0x58(%rsp),%rcx
    23dc:	48 89 84 24 10 01 00 	mov    %rax,0x110(%rsp)
    23e3:	00 
    23e4:	48 ba ab aa aa aa aa 	movabs $0xaaaaaaaaaaaaaaab,%rdx
    23eb:	aa aa aa 
    23ee:	66 0f ef c0          	pxor   %xmm0,%xmm0
    23f2:	48 c7 84 24 30 01 00 	movq   $0x0,0x130(%rsp)
    23f9:	00 00 00 00 00 
    23fe:	48 89 cd             	mov    %rcx,%rbp
    2401:	48 2b 6c 24 50       	sub    0x50(%rsp),%rbp
    2406:	0f 29 84 24 20 01 00 	movaps %xmm0,0x120(%rsp)
    240d:	00 
    240e:	48 89 e8             	mov    %rbp,%rax
    2411:	48 c1 f8 03          	sar    $0x3,%rax
    2415:	48 0f af c2          	imul   %rdx,%rax
    2419:	48 85 c0             	test   %rax,%rax
    241c:	74 20                	je     243e <main+0x30e>
    241e:	48 ba aa aa aa aa aa 	movabs $0xaaaaaaaaaaaaaaa,%rdx
    2425:	aa aa 0a 
    2428:	48 39 d0             	cmp    %rdx,%rax
    242b:	0f 87 86 04 00 00    	ja     28b7 <main+0x787>
    2431:	48 89 ef             	mov    %rbp,%rdi
    2434:	e8 17 fb ff ff       	callq  1f50 <_Znwm@plt>
    2439:	48 8b 4c 24 58       	mov    0x58(%rsp),%rcx
    243e:	48 89 04 24          	mov    %rax,(%rsp)
    2442:	48 8b 54 24 50       	mov    0x50(%rsp),%rdx
    2447:	48 01 c5             	add    %rax,%rbp
    244a:	f3 0f 7e 04 24       	movq   (%rsp),%xmm0
    244f:	48 89 ac 24 30 01 00 	mov    %rbp,0x130(%rsp)
    2456:	00 
    2457:	66 0f 6c c0          	punpcklqdq %xmm0,%xmm0
    245b:	48 39 d1             	cmp    %rdx,%rcx
    245e:	0f 29 84 24 20 01 00 	movaps %xmm0,0x120(%rsp)
    2465:	00 
    2466:	0f 84 c4 03 00 00    	je     2830 <main+0x700>
    246c:	48 8d 72 18          	lea    0x18(%rdx),%rsi
    2470:	48 29 f1             	sub    %rsi,%rcx
    2473:	48 c1 e9 03          	shr    $0x3,%rcx
    2477:	48 8d 74 c8 18       	lea    0x18(%rax,%rcx,8),%rsi
    247c:	0f 1f 40 00          	nopl   0x0(%rax)
    2480:	48 85 c0             	test   %rax,%rax
    2483:	0f 84 c6 03 00 00    	je     284f <main+0x71f>
    2489:	f3 0f 6f 02          	movdqu (%rdx),%xmm0
    248d:	48 83 c0 18          	add    $0x18,%rax
    2491:	48 83 c2 18          	add    $0x18,%rdx
    2495:	0f 11 40 e8          	movups %xmm0,-0x18(%rax)
    2499:	48 8b 4a f8          	mov    -0x8(%rdx),%rcx
    249d:	48 89 48 f8          	mov    %rcx,-0x8(%rax)
    24a1:	48 39 f0             	cmp    %rsi,%rax
    24a4:	75 da                	jne    2480 <main+0x350>
    24a6:	48 b8 00 04 00 00 00 	movabs $0x40000000400,%rax
    24ad:	04 00 00 
    24b0:	66 0f 6f 0d f8 7b 00 	movdqa 0x7bf8(%rip),%xmm1        # a0b0 <_ZTSNSt6thread11_State_implINS_8_InvokerISt5tupleIJPFv11StartupData7MeshBVHES3_S4_EEEEEE+0xd0>
    24b7:	00 
    24b8:	48 89 84 24 38 01 00 	mov    %rax,0x138(%rsp)
    24bf:	00 
    24c0:	48 8d 84 24 e0 01 00 	lea    0x1e0(%rsp),%rax
    24c7:	00 
    24c8:	bf e8 00 00 00       	mov    $0xe8,%edi
    24cd:	0f 28 15 ec 7b 00 00 	movaps 0x7bec(%rip),%xmm2        # a0c0 <_ZTSNSt6thread11_State_implINS_8_InvokerISt5tupleIJPFv11StartupData7MeshBVHES3_S4_EEEEEE+0xe0>
    24d4:	48 89 84 24 48 01 00 	mov    %rax,0x148(%rsp)
    24db:	00 
    24dc:	48 b8 00 00 90 40 00 	movabs $0x422a000040900000,%rax
    24e3:	00 2a 42 
    24e6:	48 89 b4 24 28 01 00 	mov    %rsi,0x128(%rsp)
    24ed:	00 
    24ee:	0f 28 1d db 7b 00 00 	movaps 0x7bdb(%rip),%xmm3        # a0d0 <_ZTSNSt6thread11_State_implINS_8_InvokerISt5tupleIJPFv11StartupData7MeshBVHES3_S4_EEEEEE+0xf0>
    24f5:	48 89 84 24 a4 01 00 	mov    %rax,0x1a4(%rsp)
    24fc:	00 
    24fd:	48 8d 05 bc 07 00 00 	lea    0x7bc(%rip),%rax        # 2cc0 <_Z11thread_work11StartupData7MeshBVH>
    2504:	c7 84 24 40 01 00 00 	movl   $0x100000,0x140(%rsp)
    250b:	00 00 10 00 
    250f:	0f 28 25 ca 7b 00 00 	movaps 0x7bca(%rip),%xmm4        # a0e0 <_ZTSNSt6thread11_State_implINS_8_InvokerISt5tupleIJPFv11StartupData7MeshBVHES3_S4_EEEEEE+0x100>
    2516:	c7 84 24 90 01 00 00 	movl   $0x3e0c2b1b,0x190(%rsp)
    251d:	1b 2b 0c 3e 
    2521:	c7 84 24 94 01 00 00 	movl   $0x3e0d8a97,0x194(%rsp)
    2528:	97 8a 0d 3e 
    252c:	0f 29 8c 24 50 01 00 	movaps %xmm1,0x150(%rsp)
    2533:	00 
    2534:	c7 84 24 ac 01 00 00 	movl   $0x40a00000,0x1ac(%rsp)
    253b:	00 00 a0 40 
    253f:	48 89 84 24 d8 01 00 	mov    %rax,0x1d8(%rsp)
    2546:	00 
    2547:	0f 29 94 24 60 01 00 	movaps %xmm2,0x160(%rsp)
    254e:	00 
    254f:	0f 29 9c 24 70 01 00 	movaps %xmm3,0x170(%rsp)
    2556:	00 
    2557:	0f 29 a4 24 80 01 00 	movaps %xmm4,0x180(%rsp)
    255e:	00 
    255f:	e8 ec f9 ff ff       	callq  1f50 <_Znwm@plt>
    2564:	48 8d 3d c5 93 20 00 	lea    0x2093c5(%rip),%rdi        # 20b930 <_ZTVNSt6thread11_State_implINS_8_InvokerISt5tupleIJPFv11StartupData7MeshBVHES3_S4_EEEEEE+0x10>
    256b:	48 8d 74 24 28       	lea    0x28(%rsp),%rsi
    2570:	48 8b 94 24 00 01 00 	mov    0x100(%rsp),%rdx
    2577:	00 
    2578:	48 89 38             	mov    %rdi,(%rax)
    257b:	4c 89 f7             	mov    %r14,%rdi
    257e:	f3 0f 6f 84 24 38 01 	movdqu 0x138(%rsp),%xmm0
    2585:	00 00 
    2587:	48 89 50 08          	mov    %rdx,0x8(%rax)
    258b:	48 8b 94 24 08 01 00 	mov    0x108(%rsp),%rdx
    2592:	00 
    2593:	0f 11 40 40          	movups %xmm0,0x40(%rax)
    2597:	48 c7 84 24 08 01 00 	movq   $0x0,0x108(%rsp)
    259e:	00 00 00 00 00 
    25a3:	48 89 50 10          	mov    %rdx,0x10(%rax)
    25a7:	48 8b 94 24 10 01 00 	mov    0x110(%rsp),%rdx
    25ae:	00 
    25af:	f3 0f 6f 84 24 48 01 	movdqu 0x148(%rsp),%xmm0
    25b6:	00 00 
    25b8:	48 c7 84 24 10 01 00 	movq   $0x0,0x110(%rsp)
    25bf:	00 00 00 00 00 
    25c4:	48 89 50 18          	mov    %rdx,0x18(%rax)
    25c8:	48 8b 94 24 18 01 00 	mov    0x118(%rsp),%rdx
    25cf:	00 
    25d0:	0f 11 40 50          	movups %xmm0,0x50(%rax)
    25d4:	48 c7 84 24 18 01 00 	movq   $0x0,0x118(%rsp)
    25db:	00 00 00 00 00 
    25e0:	48 89 50 20          	mov    %rdx,0x20(%rax)
    25e4:	48 8b 94 24 20 01 00 	mov    0x120(%rsp),%rdx
    25eb:	00 
    25ec:	f3 0f 6f 84 24 58 01 	movdqu 0x158(%rsp),%xmm0
    25f3:	00 00 
    25f5:	48 c7 84 24 20 01 00 	movq   $0x0,0x120(%rsp)
    25fc:	00 00 00 00 00 
    2601:	48 89 50 28          	mov    %rdx,0x28(%rax)
    2605:	48 8b 94 24 28 01 00 	mov    0x128(%rsp),%rdx
    260c:	00 
    260d:	0f 11 40 60          	movups %xmm0,0x60(%rax)
    2611:	48 c7 84 24 28 01 00 	movq   $0x0,0x128(%rsp)
    2618:	00 00 00 00 00 
    261d:	f3 0f 6f 84 24 68 01 	movdqu 0x168(%rsp),%xmm0
    2624:	00 00 
    2626:	48 89 50 30          	mov    %rdx,0x30(%rax)
    262a:	48 8b 94 24 30 01 00 	mov    0x130(%rsp),%rdx
    2631:	00 
    2632:	0f 11 40 70          	movups %xmm0,0x70(%rax)
    2636:	48 c7 84 24 30 01 00 	movq   $0x0,0x130(%rsp)
    263d:	00 00 00 00 00 
    2642:	f3 0f 6f 84 24 78 01 	movdqu 0x178(%rsp),%xmm0
    2649:	00 00 
    264b:	48 89 50 38          	mov    %rdx,0x38(%rax)
    264f:	0f 11 80 80 00 00 00 	movups %xmm0,0x80(%rax)
    2656:	f3 0f 6f 84 24 88 01 	movdqu 0x188(%rsp),%xmm0
    265d:	00 00 
    265f:	0f 11 80 90 00 00 00 	movups %xmm0,0x90(%rax)
    2666:	48 8b 94 24 d8 01 00 	mov    0x1d8(%rsp),%rdx
    266d:	00 
    266e:	48 89 44 24 28       	mov    %rax,0x28(%rsp)
    2673:	f3 0f 6f 84 24 98 01 	movdqu 0x198(%rsp),%xmm0
    267a:	00 00 
    267c:	48 89 90 e0 00 00 00 	mov    %rdx,0xe0(%rax)
    2683:	48 8b 15 46 99 20 00 	mov    0x209946(%rip),%rdx        # 20bfd0 <pthread_create@GLIBC_2.2.5>
    268a:	0f 11 80 a0 00 00 00 	movups %xmm0,0xa0(%rax)
    2691:	f3 0f 6f 84 24 a8 01 	movdqu 0x1a8(%rsp),%xmm0
    2698:	00 00 
    269a:	0f 11 80 b0 00 00 00 	movups %xmm0,0xb0(%rax)
    26a1:	f3 0f 6f 84 24 b8 01 	movdqu 0x1b8(%rsp),%xmm0
    26a8:	00 00 
    26aa:	0f 11 80 c0 00 00 00 	movups %xmm0,0xc0(%rax)
    26b1:	f3 0f 6f 84 24 c8 01 	movdqu 0x1c8(%rsp),%xmm0
    26b8:	00 00 
    26ba:	0f 11 80 d0 00 00 00 	movups %xmm0,0xd0(%rax)
    26c1:	e8 3a f8 ff ff       	callq  1f00 <_ZNSt6thread15_M_start_threadESt10unique_ptrINS_6_StateESt14default_deleteIS1_EEPFvvE@plt>
    26c6:	48 8b 7c 24 28       	mov    0x28(%rsp),%rdi
    26cb:	48 85 ff             	test   %rdi,%rdi
    26ce:	74 06                	je     26d6 <main+0x5a6>
    26d0:	48 8b 07             	mov    (%rdi),%rax
    26d3:	ff 50 08             	callq  *0x8(%rax)
    26d6:	48 8b bc 24 20 01 00 	mov    0x120(%rsp),%rdi
    26dd:	00 
    26de:	48 85 ff             	test   %rdi,%rdi
    26e1:	74 05                	je     26e8 <main+0x5b8>
    26e3:	e8 28 f8 ff ff       	callq  1f10 <_ZdlPv@plt>
    26e8:	48 8b bc 24 08 01 00 	mov    0x108(%rsp),%rdi
    26ef:	00 
    26f0:	48 85 ff             	test   %rdi,%rdi
    26f3:	0f 84 17 01 00 00    	je     2810 <main+0x6e0>
    26f9:	e8 12 f8 ff ff       	callq  1f10 <_ZdlPv@plt>
    26fe:	49 83 c5 08          	add    $0x8,%r13
    2702:	4d 89 75 f8          	mov    %r14,-0x8(%r13)
    2706:	4d 39 ec             	cmp    %r13,%r12
    2709:	0f 85 e1 fb ff ff    	jne    22f0 <main+0x1c0>
    270f:	90                   	nop
    2710:	48 8b 2b             	mov    (%rbx),%rbp
    2713:	48 89 ef             	mov    %rbp,%rdi
    2716:	e8 65 f9 ff ff       	callq  2080 <_ZNSt6thread4joinEv@plt>
    271b:	48 85 ed             	test   %rbp,%rbp
    271e:	74 18                	je     2738 <main+0x608>
    2720:	48 83 7d 00 00       	cmpq   $0x0,0x0(%rbp)
    2725:	0f 85 4e 01 00 00    	jne    2879 <main+0x749>
    272b:	be 08 00 00 00       	mov    $0x8,%esi
    2730:	48 89 ef             	mov    %rbp,%rdi
    2733:	e8 28 f8 ff ff       	callq  1f60 <_ZdlPvm@plt>
    2738:	48 83 c3 08          	add    $0x8,%rbx
    273c:	49 39 dc             	cmp    %rbx,%r12
    273f:	75 cf                	jne    2710 <main+0x5e0>
    2741:	e8 9a f6 ff ff       	callq  1de0 <_ZNSt6chrono3_V212system_clock3nowEv@plt>
    2746:	48 2b 44 24 18       	sub    0x18(%rsp),%rax
    274b:	48 ba db 34 b6 d7 82 	movabs $0x431bde82d7b634db,%rdx
    2752:	de 1b 43 
    2755:	48 8d 35 ea 76 00 00 	lea    0x76ea(%rip),%rsi        # 9e46 <_IO_stdin_used+0x26>
    275c:	48 8d 3d bd 98 20 00 	lea    0x2098bd(%rip),%rdi        # 20c020 <_ZSt4cout@@GLIBCXX_3.4>
    2763:	48 89 c1             	mov    %rax,%rcx
    2766:	48 f7 ea             	imul   %rdx
    2769:	48 c1 f9 3f          	sar    $0x3f,%rcx
    276d:	48 c1 fa 12          	sar    $0x12,%rdx
    2771:	48 89 d3             	mov    %rdx,%rbx
    2774:	ba 09 00 00 00       	mov    $0x9,%edx
    2779:	48 29 cb             	sub    %rcx,%rbx
    277c:	e8 0f f8 ff ff       	callq  1f90 <_ZSt16__ostream_insertIcSt11char_traitsIcEERSt13basic_ostreamIT_T0_ES6_PKS3_l@plt>
    2781:	48 8d 3d 98 98 20 00 	lea    0x209898(%rip),%rdi        # 20c020 <_ZSt4cout@@GLIBCXX_3.4>
    2788:	48 89 de             	mov    %rbx,%rsi
    278b:	e8 90 f7 ff ff       	callq  1f20 <_ZNSo9_M_insertIlEERSoT_@plt>
    2790:	48 8d 35 b9 76 00 00 	lea    0x76b9(%rip),%rsi        # 9e50 <_IO_stdin_used+0x30>
    2797:	48 89 c7             	mov    %rax,%rdi
    279a:	e8 91 f7 ff ff       	callq  1f30 <_ZStlsISt11char_traitsIcEERSt13basic_ostreamIcT_ES5_PKc@plt>
    279f:	48 8d bc 24 e0 01 00 	lea    0x1e0(%rsp),%rdi
    27a6:	00 
    27a7:	48 8d 35 a8 76 00 00 	lea    0x76a8(%rip),%rsi        # 9e56 <_IO_stdin_used+0x36>
    27ae:	b9 00 04 00 00       	mov    $0x400,%ecx
    27b3:	ba 00 04 00 00       	mov    $0x400,%edx
    27b8:	e8 53 04 00 00       	callq  2c10 <_Z24dump_framebuffer_addressPjPKcjj>
    27bd:	4d 85 ff             	test   %r15,%r15
    27c0:	74 08                	je     27ca <main+0x69a>
    27c2:	4c 89 ff             	mov    %r15,%rdi
    27c5:	e8 46 f7 ff ff       	callq  1f10 <_ZdlPv@plt>
    27ca:	48 8b 7c 24 10       	mov    0x10(%rsp),%rdi
    27cf:	e8 bc 23 00 00       	callq  4b90 <_ZN7MeshBVHD1Ev>
    27d4:	48 8b 7c 24 08       	mov    0x8(%rsp),%rdi
    27d9:	e8 42 23 00 00       	callq  4b20 <_ZN4MeshD1Ev>
    27de:	31 c0                	xor    %eax,%eax
    27e0:	48 8b 9c 24 e8 01 40 	mov    0x4001e8(%rsp),%rbx
    27e7:	00 
    27e8:	64 48 33 1c 25 28 00 	xor    %fs:0x28,%rbx
    27ef:	00 00 
    27f1:	0f 85 dc 00 00 00    	jne    28d3 <main+0x7a3>
    27f7:	48 81 c4 f8 01 40 00 	add    $0x4001f8,%rsp
    27fe:	5b                   	pop    %rbx
    27ff:	5d                   	pop    %rbp
    2800:	41 5c                	pop    %r12
    2802:	41 5d                	pop    %r13
    2804:	41 5e                	pop    %r14
    2806:	41 5f                	pop    %r15
    2808:	c3                   	retq   
    2809:	0f 1f 80 00 00 00 00 	nopl   0x0(%rax)
    2810:	4d 89 75 00          	mov    %r14,0x0(%r13)
    2814:	49 83 c5 08          	add    $0x8,%r13
    2818:	4d 39 ec             	cmp    %r13,%r12
    281b:	0f 85 cf fa ff ff    	jne    22f0 <main+0x1c0>
    2821:	e9 ea fe ff ff       	jmpq   2710 <main+0x5e0>
    2826:	66 2e 0f 1f 84 00 00 	nopw   %cs:0x0(%rax,%rax,1)
    282d:	00 00 00 
    2830:	48 89 c6             	mov    %rax,%rsi
    2833:	e9 6e fc ff ff       	jmpq   24a6 <main+0x376>
    2838:	48 83 c2 20          	add    $0x20,%rdx
    283c:	48 39 d6             	cmp    %rdx,%rsi
    283f:	0f 84 82 fb ff ff    	je     23c7 <main+0x297>
    2845:	b9 20 00 00 00       	mov    $0x20,%ecx
    284a:	e9 5a fb ff ff       	jmpq   23a9 <main+0x279>
    284f:	48 83 c2 18          	add    $0x18,%rdx
    2853:	48 83 fe 18          	cmp    $0x18,%rsi
    2857:	0f 84 49 fc ff ff    	je     24a6 <main+0x376>
    285d:	b8 18 00 00 00       	mov    $0x18,%eax
    2862:	e9 22 fc ff ff       	jmpq   2489 <main+0x359>
    2867:	e8 74 f5 ff ff       	callq  1de0 <_ZNSt6chrono3_V212system_clock3nowEv@plt>
    286c:	45 31 ff             	xor    %r15d,%r15d
    286f:	48 89 44 24 18       	mov    %rax,0x18(%rsp)
    2874:	e9 c8 fe ff ff       	jmpq   2741 <main+0x611>
    2879:	e8 a2 f5 ff ff       	callq  1e20 <_ZSt9terminatev@plt>
    287e:	e8 dd f5 ff ff       	callq  1e60 <_ZSt17__throw_bad_allocv@plt>
    2883:	48 89 c3             	mov    %rax,%rbx
    2886:	be 08 00 00 00       	mov    $0x8,%esi
    288b:	4c 89 f7             	mov    %r14,%rdi
    288e:	e8 cd f6 ff ff       	callq  1f60 <_ZdlPvm@plt>
    2893:	4c 89 ff             	mov    %r15,%rdi
    2896:	e8 75 f6 ff ff       	callq  1f10 <_ZdlPv@plt>
    289b:	48 8b 7c 24 10       	mov    0x10(%rsp),%rdi
    28a0:	e8 eb 22 00 00       	callq  4b90 <_ZN7MeshBVHD1Ev>
    28a5:	48 8b 7c 24 08       	mov    0x8(%rsp),%rdi
    28aa:	e8 71 22 00 00       	callq  4b20 <_ZN4MeshD1Ev>
    28af:	48 89 df             	mov    %rbx,%rdi
    28b2:	e8 e9 f7 ff ff       	callq  20a0 <_Unwind_Resume@plt>
    28b7:	e8 a4 f5 ff ff       	callq  1e60 <_ZSt17__throw_bad_allocv@plt>
    28bc:	48 8b bc 24 08 01 00 	mov    0x108(%rsp),%rdi
    28c3:	00 
    28c4:	48 89 c3             	mov    %rax,%rbx
    28c7:	48 85 ff             	test   %rdi,%rdi
    28ca:	74 ba                	je     2886 <main+0x756>
    28cc:	e8 3f f6 ff ff       	callq  1f10 <_ZdlPv@plt>
    28d1:	eb b3                	jmp    2886 <main+0x756>
    28d3:	e8 a8 f6 ff ff       	callq  1f80 <__stack_chk_fail@plt>
    28d8:	48 8b bc 24 e8 00 00 	mov    0xe8(%rsp),%rdi
    28df:	00 
    28e0:	48 89 c3             	mov    %rax,%rbx
    28e3:	48 85 ff             	test   %rdi,%rdi
    28e6:	74 05                	je     28ed <main+0x7bd>
    28e8:	e8 23 f6 ff ff       	callq  1f10 <_ZdlPv@plt>
    28ed:	48 8b bc 24 d0 00 00 	mov    0xd0(%rsp),%rdi
    28f4:	00 
    28f5:	48 85 ff             	test   %rdi,%rdi
    28f8:	74 05                	je     28ff <main+0x7cf>
    28fa:	e8 11 f6 ff ff       	callq  1f10 <_ZdlPv@plt>
    28ff:	48 8b bc 24 b8 00 00 	mov    0xb8(%rsp),%rdi
    2906:	00 
    2907:	48 85 ff             	test   %rdi,%rdi
    290a:	74 05                	je     2911 <main+0x7e1>
    290c:	e8 ff f5 ff ff       	callq  1f10 <_ZdlPv@plt>
    2911:	48 8b bc 24 a0 00 00 	mov    0xa0(%rsp),%rdi
    2918:	00 
    2919:	48 85 ff             	test   %rdi,%rdi
    291c:	74 05                	je     2923 <main+0x7f3>
    291e:	e8 ed f5 ff ff       	callq  1f10 <_ZdlPv@plt>
    2923:	48 8b bc 24 88 00 00 	mov    0x88(%rsp),%rdi
    292a:	00 
    292b:	48 85 ff             	test   %rdi,%rdi
    292e:	74 05                	je     2935 <main+0x805>
    2930:	e8 db f5 ff ff       	callq  1f10 <_ZdlPv@plt>
    2935:	48 8b 7c 24 70       	mov    0x70(%rsp),%rdi
    293a:	48 85 ff             	test   %rdi,%rdi
    293d:	0f 84 6c ff ff ff    	je     28af <main+0x77f>
    2943:	e8 c8 f5 ff ff       	callq  1f10 <_ZdlPv@plt>
    2948:	e9 62 ff ff ff       	jmpq   28af <main+0x77f>
    294d:	48 8b 7c 24 28       	mov    0x28(%rsp),%rdi
    2952:	48 89 c3             	mov    %rax,%rbx
    2955:	48 85 ff             	test   %rdi,%rdi
    2958:	74 06                	je     2960 <main+0x830>
    295a:	48 8b 07             	mov    (%rdi),%rax
    295d:	ff 50 08             	callq  *0x8(%rax)
    2960:	48 8d bc 24 00 01 00 	lea    0x100(%rsp),%rdi
    2967:	00 
    2968:	e8 23 22 00 00       	callq  4b90 <_ZN7MeshBVHD1Ev>
    296d:	e9 14 ff ff ff       	jmpq   2886 <main+0x756>
    2972:	4d 85 ff             	test   %r15,%r15
    2975:	48 89 c3             	mov    %rax,%rbx
    2978:	0f 85 15 ff ff ff    	jne    2893 <main+0x763>
    297e:	e9 18 ff ff ff       	jmpq   289b <main+0x76b>
    2983:	48 89 c3             	mov    %rax,%rbx
    2986:	eb d8                	jmp    2960 <main+0x830>
    2988:	48 89 c3             	mov    %rax,%rbx
    298b:	e9 03 ff ff ff       	jmpq   2893 <main+0x763>
    2990:	48 89 c3             	mov    %rax,%rbx
    2993:	e9 03 ff ff ff       	jmpq   289b <main+0x76b>
    2998:	0f 1f 84 00 00 00 00 	nopl   0x0(%rax,%rax,1)
    299f:	00 

00000000000029a0 <_GLOBAL__sub_I__Z10fast_sqrtff>:
    29a0:	48 8d 3d 91 97 20 00 	lea    0x209791(%rip),%rdi        # 20c138 <_ZStL8__ioinit>
    29a7:	48 83 ec 08          	sub    $0x8,%rsp
    29ab:	e8 80 f6 ff ff       	callq  2030 <_ZNSt8ios_base4InitC1Ev@plt>
    29b0:	48 8b 3d 41 96 20 00 	mov    0x209641(%rip),%rdi        # 20bff8 <_ZNSt8ios_base4InitD1Ev@GLIBCXX_3.4>
    29b7:	48 8d 15 4a 96 20 00 	lea    0x20964a(%rip),%rdx        # 20c008 <__dso_handle>
    29be:	48 8d 35 73 97 20 00 	lea    0x209773(%rip),%rsi        # 20c138 <_ZStL8__ioinit>
    29c5:	48 83 c4 08          	add    $0x8,%rsp
    29c9:	e9 12 f5 ff ff       	jmpq   1ee0 <__cxa_atexit@plt>
    29ce:	66 90                	xchg   %ax,%ax

00000000000029d0 <_start>:
    29d0:	31 ed                	xor    %ebp,%ebp
    29d2:	49 89 d1             	mov    %rdx,%r9
    29d5:	5e                   	pop    %rsi
    29d6:	48 89 e2             	mov    %rsp,%rdx
    29d9:	48 83 e4 f0          	and    $0xfffffffffffffff0,%rsp
    29dd:	50                   	push   %rax
    29de:	54                   	push   %rsp
    29df:	4c 8d 05 2a 74 00 00 	lea    0x742a(%rip),%r8        # 9e10 <__libc_csu_fini>
    29e6:	48 8d 0d b3 73 00 00 	lea    0x73b3(%rip),%rcx        # 9da0 <__libc_csu_init>
    29ed:	48 8d 3d 3c f7 ff ff 	lea    -0x8c4(%rip),%rdi        # 2130 <main>
    29f4:	ff 15 e6 95 20 00    	callq  *0x2095e6(%rip)        # 20bfe0 <__libc_start_main@GLIBC_2.2.5>
    29fa:	f4                   	hlt    
    29fb:	0f 1f 44 00 00       	nopl   0x0(%rax,%rax,1)

0000000000002a00 <deregister_tm_clones>:
    2a00:	48 8d 3d 11 96 20 00 	lea    0x209611(%rip),%rdi        # 20c018 <__TMC_END__>
    2a07:	55                   	push   %rbp
    2a08:	48 8d 05 09 96 20 00 	lea    0x209609(%rip),%rax        # 20c018 <__TMC_END__>
    2a0f:	48 39 f8             	cmp    %rdi,%rax
    2a12:	48 89 e5             	mov    %rsp,%rbp
    2a15:	74 19                	je     2a30 <deregister_tm_clones+0x30>
    2a17:	48 8b 05 ba 95 20 00 	mov    0x2095ba(%rip),%rax        # 20bfd8 <_ITM_deregisterTMCloneTable>
    2a1e:	48 85 c0             	test   %rax,%rax
    2a21:	74 0d                	je     2a30 <deregister_tm_clones+0x30>
    2a23:	5d                   	pop    %rbp
    2a24:	ff e0                	jmpq   *%rax
    2a26:	66 2e 0f 1f 84 00 00 	nopw   %cs:0x0(%rax,%rax,1)
    2a2d:	00 00 00 
    2a30:	5d                   	pop    %rbp
    2a31:	c3                   	retq   
    2a32:	0f 1f 40 00          	nopl   0x0(%rax)
    2a36:	66 2e 0f 1f 84 00 00 	nopw   %cs:0x0(%rax,%rax,1)
    2a3d:	00 00 00 

0000000000002a40 <register_tm_clones>:
    2a40:	48 8d 3d d1 95 20 00 	lea    0x2095d1(%rip),%rdi        # 20c018 <__TMC_END__>
    2a47:	48 8d 35 ca 95 20 00 	lea    0x2095ca(%rip),%rsi        # 20c018 <__TMC_END__>
    2a4e:	55                   	push   %rbp
    2a4f:	48 29 fe             	sub    %rdi,%rsi
    2a52:	48 89 e5             	mov    %rsp,%rbp
    2a55:	48 c1 fe 03          	sar    $0x3,%rsi
    2a59:	48 89 f0             	mov    %rsi,%rax
    2a5c:	48 c1 e8 3f          	shr    $0x3f,%rax
    2a60:	48 01 c6             	add    %rax,%rsi
    2a63:	48 d1 fe             	sar    %rsi
    2a66:	74 18                	je     2a80 <register_tm_clones+0x40>
    2a68:	48 8b 05 81 95 20 00 	mov    0x209581(%rip),%rax        # 20bff0 <_ITM_registerTMCloneTable>
    2a6f:	48 85 c0             	test   %rax,%rax
    2a72:	74 0c                	je     2a80 <register_tm_clones+0x40>
    2a74:	5d                   	pop    %rbp
    2a75:	ff e0                	jmpq   *%rax
    2a77:	66 0f 1f 84 00 00 00 	nopw   0x0(%rax,%rax,1)
    2a7e:	00 00 
    2a80:	5d                   	pop    %rbp
    2a81:	c3                   	retq   
    2a82:	0f 1f 40 00          	nopl   0x0(%rax)
    2a86:	66 2e 0f 1f 84 00 00 	nopw   %cs:0x0(%rax,%rax,1)
    2a8d:	00 00 00 

0000000000002a90 <__do_global_dtors_aux>:
    2a90:	80 3d 99 96 20 00 00 	cmpb   $0x0,0x209699(%rip)        # 20c130 <completed.7697>
    2a97:	75 2f                	jne    2ac8 <__do_global_dtors_aux+0x38>
    2a99:	48 83 3d 27 95 20 00 	cmpq   $0x0,0x209527(%rip)        # 20bfc8 <__cxa_finalize@GLIBC_2.2.5>
    2aa0:	00 
    2aa1:	55                   	push   %rbp
    2aa2:	48 89 e5             	mov    %rsp,%rbp
    2aa5:	74 0c                	je     2ab3 <__do_global_dtors_aux+0x23>
    2aa7:	48 8b 3d 5a 95 20 00 	mov    0x20955a(%rip),%rdi        # 20c008 <__dso_handle>
    2aae:	e8 6d f6 ff ff       	callq  2120 <__cxa_finalize@plt>
    2ab3:	e8 48 ff ff ff       	callq  2a00 <deregister_tm_clones>
    2ab8:	c6 05 71 96 20 00 01 	movb   $0x1,0x209671(%rip)        # 20c130 <completed.7697>
    2abf:	5d                   	pop    %rbp
    2ac0:	c3                   	retq   
    2ac1:	0f 1f 80 00 00 00 00 	nopl   0x0(%rax)
    2ac8:	f3 c3                	repz retq 
    2aca:	66 0f 1f 44 00 00    	nopw   0x0(%rax,%rax,1)

0000000000002ad0 <frame_dummy>:
    2ad0:	55                   	push   %rbp
    2ad1:	48 89 e5             	mov    %rsp,%rbp
    2ad4:	5d                   	pop    %rbp
    2ad5:	e9 66 ff ff ff       	jmpq   2a40 <register_tm_clones>
    2ada:	66 0f 1f 44 00 00    	nopw   0x0(%rax,%rax,1)

0000000000002ae0 <_Z10fast_sqrtff>:
    2ae0:	66 0f ef d2          	pxor   %xmm2,%xmm2
    2ae4:	f3 0f 51 c8          	sqrtss %xmm0,%xmm1
    2ae8:	0f 2e d0             	ucomiss %xmm0,%xmm2
    2aeb:	77 04                	ja     2af1 <_Z10fast_sqrtff+0x11>
    2aed:	0f 28 c1             	movaps %xmm1,%xmm0
    2af0:	c3                   	retq   
    2af1:	48 83 ec 18          	sub    $0x18,%rsp
    2af5:	f3 0f 11 4c 24 0c    	movss  %xmm1,0xc(%rsp)
    2afb:	e8 c0 f5 ff ff       	callq  20c0 <sqrtf@plt>
    2b00:	f3 0f 10 4c 24 0c    	movss  0xc(%rsp),%xmm1
    2b06:	48 83 c4 18          	add    $0x18,%rsp
    2b0a:	0f 28 c1             	movaps %xmm1,%xmm0
    2b0d:	c3                   	retq   
    2b0e:	66 90                	xchg   %ax,%ax

0000000000002b10 <_Z14fast_inv_sqrtff>:
    2b10:	66 0f ef d2          	pxor   %xmm2,%xmm2
    2b14:	f3 0f 51 c8          	sqrtss %xmm0,%xmm1
    2b18:	0f 2e d0             	ucomiss %xmm0,%xmm2
    2b1b:	77 0d                	ja     2b2a <_Z14fast_inv_sqrtff+0x1a>
    2b1d:	f3 0f 10 05 13 75 00 	movss  0x7513(%rip),%xmm0        # a038 <_ZTSNSt6thread11_State_implINS_8_InvokerISt5tupleIJPFv11StartupData7MeshBVHES3_S4_EEEEEE+0x58>
    2b24:	00 
    2b25:	f3 0f 5e c1          	divss  %xmm1,%xmm0
    2b29:	c3                   	retq   
    2b2a:	48 83 ec 18          	sub    $0x18,%rsp
    2b2e:	f3 0f 11 4c 24 0c    	movss  %xmm1,0xc(%rsp)
    2b34:	e8 87 f5 ff ff       	callq  20c0 <sqrtf@plt>
    2b39:	f3 0f 10 4c 24 0c    	movss  0xc(%rsp),%xmm1
    2b3f:	f3 0f 10 05 f1 74 00 	movss  0x74f1(%rip),%xmm0        # a038 <_ZTSNSt6thread11_State_implINS_8_InvokerISt5tupleIJPFv11StartupData7MeshBVHES3_S4_EEEEEE+0x58>
    2b46:	00 
    2b47:	48 83 c4 18          	add    $0x18,%rsp
    2b4b:	f3 0f 5e c1          	divss  %xmm1,%xmm0
    2b4f:	c3                   	retq   

0000000000002b50 <_Z9atomicincv>:
    2b50:	b8 01 00 00 00       	mov    $0x1,%eax
    2b55:	f0 0f c1 05 d7 95 20 	lock xadd %eax,0x2095d7(%rip)        # 20c134 <_ZL11atomicinc_i>
    2b5c:	00 
    2b5d:	c3                   	retq   
    2b5e:	66 90                	xchg   %ax,%ax

0000000000002b60 <_Z28write_to_framebuffer_addressPjjRN3rtm4vec3E>:
    2b60:	f3 0f 10 22          	movss  (%rdx),%xmm4
    2b64:	f3 0f 10 0d cc 74 00 	movss  0x74cc(%rip),%xmm1        # a038 <_ZTSNSt6thread11_State_implINS_8_InvokerISt5tupleIJPFv11StartupData7MeshBVHES3_S4_EEEEEE+0x58>
    2b6b:	00 
    2b6c:	0f 2e e1             	ucomiss %xmm1,%xmm4
    2b6f:	f3 0f 10 5a 04       	movss  0x4(%rdx),%xmm3
    2b74:	f3 0f 10 52 08       	movss  0x8(%rdx),%xmm2
    2b79:	77 6d                	ja     2be8 <_Z28write_to_framebuffer_addressPjjRN3rtm4vec3E+0x88>
    2b7b:	f3 0f 10 05 b9 74 00 	movss  0x74b9(%rip),%xmm0        # a03c <_ZTSNSt6thread11_State_implINS_8_InvokerISt5tupleIJPFv11StartupData7MeshBVHES3_S4_EEEEEE+0x5c>
    2b82:	00 
    2b83:	f3 0f 59 c4          	mulss  %xmm4,%xmm0
    2b87:	f3 48 0f 2c c0       	cvttss2si %xmm0,%rax
    2b8c:	41 89 c0             	mov    %eax,%r8d
    2b8f:	41 81 c8 00 00 00 ff 	or     $0xff000000,%r8d
    2b96:	0f 2e d9             	ucomiss %xmm1,%xmm3
    2b99:	77 5b                	ja     2bf6 <_Z28write_to_framebuffer_addressPjjRN3rtm4vec3E+0x96>
    2b9b:	f3 0f 10 05 99 74 00 	movss  0x7499(%rip),%xmm0        # a03c <_ZTSNSt6thread11_State_implINS_8_InvokerISt5tupleIJPFv11StartupData7MeshBVHES3_S4_EEEEEE+0x5c>
    2ba2:	00 
    2ba3:	f3 0f 59 c3          	mulss  %xmm3,%xmm0
    2ba7:	f3 48 0f 2c c0       	cvttss2si %xmm0,%rax
    2bac:	c1 e0 08             	shl    $0x8,%eax
    2baf:	0f 2e d1             	ucomiss %xmm1,%xmm2
    2bb2:	77 4f                	ja     2c03 <_Z28write_to_framebuffer_addressPjjRN3rtm4vec3E+0xa3>
    2bb4:	f3 0f 10 05 80 74 00 	movss  0x7480(%rip),%xmm0        # a03c <_ZTSNSt6thread11_State_implINS_8_InvokerISt5tupleIJPFv11StartupData7MeshBVHES3_S4_EEEEEE+0x5c>
    2bbb:	00 
    2bbc:	f3 0f 59 c2          	mulss  %xmm2,%xmm0
    2bc0:	f3 48 0f 2c c8       	cvttss2si %xmm0,%rcx
    2bc5:	c1 e1 10             	shl    $0x10,%ecx
    2bc8:	44 09 c0             	or     %r8d,%eax
    2bcb:	89 f6                	mov    %esi,%esi
    2bcd:	f3 0f 11 22          	movss  %xmm4,(%rdx)
    2bd1:	09 c8                	or     %ecx,%eax
    2bd3:	f3 0f 11 5a 04       	movss  %xmm3,0x4(%rdx)
    2bd8:	f3 0f 11 52 08       	movss  %xmm2,0x8(%rdx)
    2bdd:	89 04 b7             	mov    %eax,(%rdi,%rsi,4)
    2be0:	c3                   	retq   
    2be1:	0f 1f 80 00 00 00 00 	nopl   0x0(%rax)
    2be8:	0f 2e d9             	ucomiss %xmm1,%xmm3
    2beb:	41 b8 ff 00 00 ff    	mov    $0xff0000ff,%r8d
    2bf1:	0f 28 e1             	movaps %xmm1,%xmm4
    2bf4:	76 a5                	jbe    2b9b <_Z28write_to_framebuffer_addressPjjRN3rtm4vec3E+0x3b>
    2bf6:	0f 2e d1             	ucomiss %xmm1,%xmm2
    2bf9:	b8 00 ff 00 00       	mov    $0xff00,%eax
    2bfe:	0f 28 d9             	movaps %xmm1,%xmm3
    2c01:	76 b1                	jbe    2bb4 <_Z28write_to_framebuffer_addressPjjRN3rtm4vec3E+0x54>
    2c03:	b9 00 00 ff 00       	mov    $0xff0000,%ecx
    2c08:	0f 28 d1             	movaps %xmm1,%xmm2
    2c0b:	eb bb                	jmp    2bc8 <_Z28write_to_framebuffer_addressPjjRN3rtm4vec3E+0x68>
    2c0d:	0f 1f 00             	nopl   (%rax)

0000000000002c10 <_Z24dump_framebuffer_addressPjPKcjj>:
    2c10:	41 57                	push   %r15
    2c12:	41 56                	push   %r14
    2c14:	41 89 ce             	mov    %ecx,%r14d
    2c17:	41 55                	push   %r13
    2c19:	41 54                	push   %r12
    2c1b:	41 89 d5             	mov    %edx,%r13d
    2c1e:	55                   	push   %rbp
    2c1f:	53                   	push   %rbx
    2c20:	48 89 fb             	mov    %rdi,%rbx
    2c23:	48 89 f7             	mov    %rsi,%rdi
    2c26:	48 8d 35 f7 71 00 00 	lea    0x71f7(%rip),%rsi        # 9e24 <_IO_stdin_used+0x4>
    2c2d:	48 83 ec 08          	sub    $0x8,%rsp
    2c31:	e8 7a f3 ff ff       	callq  1fb0 <fopen@plt>
    2c36:	48 8d 15 ea 71 00 00 	lea    0x71ea(%rip),%rdx        # 9e27 <_IO_stdin_used+0x7>
    2c3d:	48 89 c7             	mov    %rax,%rdi
    2c40:	49 89 c4             	mov    %rax,%r12
    2c43:	45 89 f0             	mov    %r14d,%r8d
    2c46:	31 c0                	xor    %eax,%eax
    2c48:	44 89 e9             	mov    %r13d,%ecx
    2c4b:	be 01 00 00 00       	mov    $0x1,%esi
    2c50:	e8 0b f4 ff ff       	callq  2060 <__fprintf_chk@plt>
    2c55:	4d 85 f6             	test   %r14,%r14
    2c58:	74 45                	je     2c9f <_Z24dump_framebuffer_addressPjPKcjj+0x8f>
    2c5a:	4d 85 ed             	test   %r13,%r13
    2c5d:	74 40                	je     2c9f <_Z24dump_framebuffer_addressPjPKcjj+0x8f>
    2c5f:	49 c1 e5 02          	shl    $0x2,%r13
    2c63:	45 31 ff             	xor    %r15d,%r15d
    2c66:	66 2e 0f 1f 84 00 00 	nopw   %cs:0x0(%rax,%rax,1)
    2c6d:	00 00 00 
    2c70:	49 8d 6c 1d 00       	lea    0x0(%r13,%rbx,1),%rbp
    2c75:	0f 1f 00             	nopl   (%rax)
    2c78:	48 89 df             	mov    %rbx,%rdi
    2c7b:	4c 89 e1             	mov    %r12,%rcx
    2c7e:	ba 03 00 00 00       	mov    $0x3,%edx
    2c83:	be 01 00 00 00       	mov    $0x1,%esi
    2c88:	48 83 c3 04          	add    $0x4,%rbx
    2c8c:	e8 5f f4 ff ff       	callq  20f0 <fwrite@plt>
    2c91:	48 39 eb             	cmp    %rbp,%rbx
    2c94:	75 e2                	jne    2c78 <_Z24dump_framebuffer_addressPjPKcjj+0x68>
    2c96:	49 83 c7 01          	add    $0x1,%r15
    2c9a:	4d 39 f7             	cmp    %r14,%r15
    2c9d:	75 d1                	jne    2c70 <_Z24dump_framebuffer_addressPjPKcjj+0x60>
    2c9f:	48 83 c4 08          	add    $0x8,%rsp
    2ca3:	4c 89 e7             	mov    %r12,%rdi
    2ca6:	5b                   	pop    %rbx
    2ca7:	5d                   	pop    %rbp
    2ca8:	41 5c                	pop    %r12
    2caa:	41 5d                	pop    %r13
    2cac:	41 5e                	pop    %r14
    2cae:	41 5f                	pop    %r15
    2cb0:	e9 8b f2 ff ff       	jmpq   1f40 <fclose@plt>
    2cb5:	90                   	nop
    2cb6:	66 2e 0f 1f 84 00 00 	nopw   %cs:0x0(%rax,%rax,1)
    2cbd:	00 00 00 

0000000000002cc0 <_Z11thread_work11StartupData7MeshBVH>:
    2cc0:	55                   	push   %rbp
    2cc1:	53                   	push   %rbx
    2cc2:	48 89 fd             	mov    %rdi,%rbp
    2cc5:	48 83 ec 38          	sub    $0x38,%rsp
    2cc9:	64 48 8b 04 25 28 00 	mov    %fs:0x28,%rax
    2cd0:	00 00 
    2cd2:	48 89 44 24 28       	mov    %rax,0x28(%rsp)
    2cd7:	31 c0                	xor    %eax,%eax
    2cd9:	f3 0f 10 1d 57 73 00 	movss  0x7357(%rip),%xmm3        # a038 <_ZTSNSt6thread11_State_implINS_8_InvokerISt5tupleIJPFv11StartupData7MeshBVHES3_S4_EEEEEE+0x58>
    2ce0:	00 
    2ce1:	e9 a0 00 00 00       	jmpq   2d86 <_Z11thread_work11StartupData7MeshBVH+0xc6>
    2ce6:	66 2e 0f 1f 84 00 00 	nopw   %cs:0x0(%rax,%rax,1)
    2ced:	00 00 00 
    2cf0:	48 8d 54 24 50       	lea    0x50(%rsp),%rdx
    2cf5:	48 89 ee             	mov    %rbp,%rsi
    2cf8:	89 df                	mov    %ebx,%edi
    2cfa:	e8 51 01 00 00       	callq  2e50 <_Z11path_tracerjR7MeshBVHR11StartupData>
    2cff:	66 0f d6 44 24 1c    	movq   %xmm0,0x1c(%rsp)
    2d05:	48 8b 74 24 60       	mov    0x60(%rsp),%rsi
    2d0a:	b9 ff 00 00 ff       	mov    $0xff0000ff,%ecx
    2d0f:	f3 0f 10 5c 24 0c    	movss  0xc(%rsp),%xmm3
    2d15:	f3 0f 10 54 24 1c    	movss  0x1c(%rsp),%xmm2
    2d1b:	0f 2e d3             	ucomiss %xmm3,%xmm2
    2d1e:	66 0f 7e 4c 24 24    	movd   %xmm1,0x24(%rsp)
    2d24:	f3 0f 10 4c 24 20    	movss  0x20(%rsp),%xmm1
    2d2a:	f3 0f 10 44 24 24    	movss  0x24(%rsp),%xmm0
    2d30:	77 15                	ja     2d47 <_Z11thread_work11StartupData7MeshBVH+0x87>
    2d32:	f3 0f 59 15 02 73 00 	mulss  0x7302(%rip),%xmm2        # a03c <_ZTSNSt6thread11_State_implINS_8_InvokerISt5tupleIJPFv11StartupData7MeshBVHES3_S4_EEEEEE+0x5c>
    2d39:	00 
    2d3a:	f3 48 0f 2c c2       	cvttss2si %xmm2,%rax
    2d3f:	89 c1                	mov    %eax,%ecx
    2d41:	81 c9 00 00 00 ff    	or     $0xff000000,%ecx
    2d47:	0f 2e cb             	ucomiss %xmm3,%xmm1
    2d4a:	b8 00 ff 00 00       	mov    $0xff00,%eax
    2d4f:	77 12                	ja     2d63 <_Z11thread_work11StartupData7MeshBVH+0xa3>
    2d51:	f3 0f 59 0d e3 72 00 	mulss  0x72e3(%rip),%xmm1        # a03c <_ZTSNSt6thread11_State_implINS_8_InvokerISt5tupleIJPFv11StartupData7MeshBVHES3_S4_EEEEEE+0x5c>
    2d58:	00 
    2d59:	f3 48 0f 2c d1       	cvttss2si %xmm1,%rdx
    2d5e:	89 d0                	mov    %edx,%eax
    2d60:	c1 e0 08             	shl    $0x8,%eax
    2d63:	0f 2e c3             	ucomiss %xmm3,%xmm0
    2d66:	ba 00 00 ff 00       	mov    $0xff0000,%edx
    2d6b:	77 10                	ja     2d7d <_Z11thread_work11StartupData7MeshBVH+0xbd>
    2d6d:	f3 0f 59 05 c7 72 00 	mulss  0x72c7(%rip),%xmm0        # a03c <_ZTSNSt6thread11_State_implINS_8_InvokerISt5tupleIJPFv11StartupData7MeshBVHES3_S4_EEEEEE+0x5c>
    2d74:	00 
    2d75:	f3 48 0f 2c d0       	cvttss2si %xmm0,%rdx
    2d7a:	c1 e2 10             	shl    $0x10,%edx
    2d7d:	09 c8                	or     %ecx,%eax
    2d7f:	89 db                	mov    %ebx,%ebx
    2d81:	09 d0                	or     %edx,%eax
    2d83:	89 04 9e             	mov    %eax,(%rsi,%rbx,4)
    2d86:	f3 0f 11 5c 24 0c    	movss  %xmm3,0xc(%rsp)
    2d8c:	bb 01 00 00 00       	mov    $0x1,%ebx
    2d91:	f0 0f c1 1d 9b 93 20 	lock xadd %ebx,0x20939b(%rip)        # 20c134 <_ZL11atomicinc_i>
    2d98:	00 
    2d99:	39 5c 24 58          	cmp    %ebx,0x58(%rsp)
    2d9d:	0f 87 4d ff ff ff    	ja     2cf0 <_Z11thread_work11StartupData7MeshBVH+0x30>
    2da3:	48 8b 44 24 28       	mov    0x28(%rsp),%rax
    2da8:	64 48 33 04 25 28 00 	xor    %fs:0x28,%rax
    2daf:	00 00 
    2db1:	75 07                	jne    2dba <_Z11thread_work11StartupData7MeshBVH+0xfa>
    2db3:	48 83 c4 38          	add    $0x38,%rsp
    2db7:	5b                   	pop    %rbx
    2db8:	5d                   	pop    %rbp
    2db9:	c3                   	retq   
    2dba:	e8 c1 f1 ff ff       	callq  1f80 <__stack_chk_fail@plt>
    2dbf:	90                   	nop

0000000000002dc0 <_ZNKSt5ctypeIcE8do_widenEc>:
    2dc0:	89 f0                	mov    %esi,%eax
    2dc2:	c3                   	retq   
    2dc3:	66 2e 0f 1f 84 00 00 	nopw   %cs:0x0(%rax,%rax,1)
    2dca:	00 00 00 
    2dcd:	0f 1f 00             	nopl   (%rax)

0000000000002dd0 <_ZNSt6thread11_State_implINS_8_InvokerISt5tupleIJPFv11StartupData7MeshBVHES3_S4_EEEEED1Ev>:
    2dd0:	48 8d 05 59 8b 20 00 	lea    0x208b59(%rip),%rax        # 20b930 <_ZTVNSt6thread11_State_implINS_8_InvokerISt5tupleIJPFv11StartupData7MeshBVHES3_S4_EEEEEE+0x10>
    2dd7:	53                   	push   %rbx
    2dd8:	48 89 fb             	mov    %rdi,%rbx
    2ddb:	48 89 07             	mov    %rax,(%rdi)
    2dde:	48 8b 7f 28          	mov    0x28(%rdi),%rdi
    2de2:	48 85 ff             	test   %rdi,%rdi
    2de5:	74 05                	je     2dec <_ZNSt6thread11_State_implINS_8_InvokerISt5tupleIJPFv11StartupData7MeshBVHES3_S4_EEEEED1Ev+0x1c>
    2de7:	e8 24 f1 ff ff       	callq  1f10 <_ZdlPv@plt>
    2dec:	48 8b 7b 10          	mov    0x10(%rbx),%rdi
    2df0:	48 85 ff             	test   %rdi,%rdi
    2df3:	74 05                	je     2dfa <_ZNSt6thread11_State_implINS_8_InvokerISt5tupleIJPFv11StartupData7MeshBVHES3_S4_EEEEED1Ev+0x2a>
    2df5:	e8 16 f1 ff ff       	callq  1f10 <_ZdlPv@plt>
    2dfa:	48 89 df             	mov    %rbx,%rdi
    2dfd:	5b                   	pop    %rbx
    2dfe:	e9 7d f0 ff ff       	jmpq   1e80 <_ZNSt6thread6_StateD2Ev@plt>
    2e03:	66 2e 0f 1f 84 00 00 	nopw   %cs:0x0(%rax,%rax,1)
    2e0a:	00 00 00 
    2e0d:	0f 1f 00             	nopl   (%rax)

0000000000002e10 <_ZNSt6thread11_State_implINS_8_InvokerISt5tupleIJPFv11StartupData7MeshBVHES3_S4_EEEEED0Ev>:
    2e10:	48 8d 05 19 8b 20 00 	lea    0x208b19(%rip),%rax        # 20b930 <_ZTVNSt6thread11_State_implINS_8_InvokerISt5tupleIJPFv11StartupData7MeshBVHES3_S4_EEEEEE+0x10>
    2e17:	53                   	push   %rbx
    2e18:	48 89 fb             	mov    %rdi,%rbx
    2e1b:	48 89 07             	mov    %rax,(%rdi)
    2e1e:	48 8b 7f 28          	mov    0x28(%rdi),%rdi
    2e22:	48 85 ff             	test   %rdi,%rdi
    2e25:	74 05                	je     2e2c <_ZNSt6thread11_State_implINS_8_InvokerISt5tupleIJPFv11StartupData7MeshBVHES3_S4_EEEEED0Ev+0x1c>
    2e27:	e8 e4 f0 ff ff       	callq  1f10 <_ZdlPv@plt>
    2e2c:	48 8b 7b 10          	mov    0x10(%rbx),%rdi
    2e30:	48 85 ff             	test   %rdi,%rdi
    2e33:	74 05                	je     2e3a <_ZNSt6thread11_State_implINS_8_InvokerISt5tupleIJPFv11StartupData7MeshBVHES3_S4_EEEEED0Ev+0x2a>
    2e35:	e8 d6 f0 ff ff       	callq  1f10 <_ZdlPv@plt>
    2e3a:	48 89 df             	mov    %rbx,%rdi
    2e3d:	e8 3e f0 ff ff       	callq  1e80 <_ZNSt6thread6_StateD2Ev@plt>
    2e42:	48 89 df             	mov    %rbx,%rdi
    2e45:	be e8 00 00 00       	mov    $0xe8,%esi
    2e4a:	5b                   	pop    %rbx
    2e4b:	e9 10 f1 ff ff       	jmpq   1f60 <_ZdlPvm@plt>

0000000000002e50 <_Z11path_tracerjR7MeshBVHR11StartupData>:
    2e50:	41 57                	push   %r15
    2e52:	41 56                	push   %r14
    2e54:	49 89 d7             	mov    %rdx,%r15
    2e57:	41 55                	push   %r13
    2e59:	41 54                	push   %r12
    2e5b:	49 89 f5             	mov    %rsi,%r13
    2e5e:	55                   	push   %rbp
    2e5f:	53                   	push   %rbx
    2e60:	31 d2                	xor    %edx,%edx
    2e62:	48 81 ec b8 01 00 00 	sub    $0x1b8,%rsp
    2e69:	64 48 8b 04 25 28 00 	mov    %fs:0x28,%rax
    2e70:	00 00 
    2e72:	48 89 84 24 a8 01 00 	mov    %rax,0x1a8(%rsp)
    2e79:	00 
    2e7a:	31 c0                	xor    %eax,%eax
    2e7c:	89 f8                	mov    %edi,%eax
    2e7e:	83 c7 01             	add    $0x1,%edi
    2e81:	89 f9                	mov    %edi,%ecx
    2e83:	c1 e1 1f             	shl    $0x1f,%ecx
    2e86:	29 f9                	sub    %edi,%ecx
    2e88:	89 ce                	mov    %ecx,%esi
    2e8a:	c1 e6 0c             	shl    $0xc,%esi
    2e8d:	8d 8c 31 16 5d d5 7e 	lea    0x7ed55d16(%rcx,%rsi,1),%ecx
    2e94:	41 f7 37             	divl   (%r15)
    2e97:	89 ce                	mov    %ecx,%esi
    2e99:	81 f1 3c c2 61 c7    	xor    $0xc761c23c,%ecx
    2e9f:	c1 ee 13             	shr    $0x13,%esi
    2ea2:	31 f1                	xor    %esi,%ecx
    2ea4:	89 ce                	mov    %ecx,%esi
    2ea6:	c1 e6 05             	shl    $0x5,%esi
    2ea9:	01 ce                	add    %ecx,%esi
    2eab:	8d 8e b1 67 56 16    	lea    0x165667b1(%rsi),%ecx
    2eb1:	89 cf                	mov    %ecx,%edi
    2eb3:	8d 8e 1d cc f8 e9    	lea    -0x160733e3(%rsi),%ecx
    2eb9:	c1 e7 09             	shl    $0x9,%edi
    2ebc:	31 f9                	xor    %edi,%ecx
    2ebe:	8d 8c c9 c5 46 70 fd 	lea    -0x28fb93b(%rcx,%rcx,8),%ecx
    2ec5:	41 89 ce             	mov    %ecx,%r14d
    2ec8:	81 f1 09 4f 5a b5    	xor    $0xb55a4f09,%ecx
    2ece:	41 c1 ee 10          	shr    $0x10,%r14d
    2ed2:	41 31 ce             	xor    %ecx,%r14d
    2ed5:	41 8b 4f 18          	mov    0x18(%r15),%ecx
    2ed9:	85 c9                	test   %ecx,%ecx
    2edb:	0f 84 02 1b 00 00    	je     49e3 <_Z11path_tracerjR7MeshBVHR11StartupData+0x1b93>
    2ee1:	66 0f ef c0          	pxor   %xmm0,%xmm0
    2ee5:	89 c0                	mov    %eax,%eax
    2ee7:	89 d2                	mov    %edx,%edx
    2ee9:	f3 0f 10 0d 53 71 00 	movss  0x7153(%rip),%xmm1        # a044 <_ZTSNSt6thread11_State_implINS_8_InvokerISt5tupleIJPFv11StartupData7MeshBVHES3_S4_EEEEEE+0x64>
    2ef0:	00 
    2ef1:	c7 84 24 80 00 00 00 	movl   $0x0,0x80(%rsp)
    2ef8:	00 00 00 00 
    2efc:	c7 44 24 7c 00 00 00 	movl   $0x0,0x7c(%rsp)
    2f03:	00 
    2f04:	45 31 c0             	xor    %r8d,%r8d
    2f07:	c7 84 24 84 00 00 00 	movl   $0x0,0x84(%rsp)
    2f0e:	00 00 00 00 
    2f12:	f3 48 0f 2a c0       	cvtsi2ss %rax,%xmm0
    2f17:	f3 0f 58 c1          	addss  %xmm1,%xmm0
    2f1b:	f3 0f 11 84 24 88 00 	movss  %xmm0,0x88(%rsp)
    2f22:	00 00 
    2f24:	66 0f ef c0          	pxor   %xmm0,%xmm0
    2f28:	f3 48 0f 2a c2       	cvtsi2ss %rdx,%xmm0
    2f2d:	f3 0f 58 c1          	addss  %xmm1,%xmm0
    2f31:	f3 0f 11 84 24 8c 00 	movss  %xmm0,0x8c(%rsp)
    2f38:	00 00 
    2f3a:	66 0f 1f 44 00 00    	nopw   0x0(%rax,%rax,1)
    2f40:	f3 0f 10 84 24 88 00 	movss  0x88(%rsp),%xmm0
    2f47:	00 00 
    2f49:	f3 0f 10 a4 24 8c 00 	movss  0x8c(%rsp),%xmm4
    2f50:	00 00 
    2f52:	f3 41 0f 59 47 2c    	mulss  0x2c(%r15),%xmm0
    2f58:	f3 41 0f 10 5f 50    	movss  0x50(%r15),%xmm3
    2f5e:	f3 41 0f 59 67 28    	mulss  0x28(%r15),%xmm4
    2f64:	f3 41 0f 10 4f 44    	movss  0x44(%r15),%xmm1
    2f6a:	f3 41 0f 10 57 4c    	movss  0x4c(%r15),%xmm2
    2f70:	f3 41 0f 10 6f 30    	movss  0x30(%r15),%xmm5
    2f76:	f3 0f 11 6c 24 08    	movss  %xmm5,0x8(%rsp)
    2f7c:	f3 41 0f 10 6f 34    	movss  0x34(%r15),%xmm5
    2f82:	f3 0f 5c 05 ae 70 00 	subss  0x70ae(%rip),%xmm0        # a038 <_ZTSNSt6thread11_State_implINS_8_InvokerISt5tupleIJPFv11StartupData7MeshBVHES3_S4_EEEEEE+0x58>
    2f89:	00 
    2f8a:	f3 0f 11 6c 24 0c    	movss  %xmm5,0xc(%rsp)
    2f90:	f3 0f 5c 25 a0 70 00 	subss  0x70a0(%rip),%xmm4        # a038 <_ZTSNSt6thread11_State_implINS_8_InvokerISt5tupleIJPFv11StartupData7MeshBVHES3_S4_EEEEEE+0x58>
    2f97:	00 
    2f98:	f3 41 0f 10 6f 38    	movss  0x38(%r15),%xmm5
    2f9e:	f3 0f 11 6c 24 14    	movss  %xmm5,0x14(%rsp)
    2fa4:	66 0f ef ed          	pxor   %xmm5,%xmm5
    2fa8:	f3 0f 59 d8          	mulss  %xmm0,%xmm3
    2fac:	f3 0f 59 cc          	mulss  %xmm4,%xmm1
    2fb0:	f3 0f 59 d0          	mulss  %xmm0,%xmm2
    2fb4:	f3 0f 58 d9          	addss  %xmm1,%xmm3
    2fb8:	f3 41 0f 10 4f 40    	movss  0x40(%r15),%xmm1
    2fbe:	f3 0f 59 cc          	mulss  %xmm4,%xmm1
    2fc2:	f3 41 0f 59 67 3c    	mulss  0x3c(%r15),%xmm4
    2fc8:	f3 41 0f 5c 5f 5c    	subss  0x5c(%r15),%xmm3
    2fce:	f3 0f 58 d1          	addss  %xmm1,%xmm2
    2fd2:	f3 41 0f 10 4f 48    	movss  0x48(%r15),%xmm1
    2fd8:	f3 0f 59 c8          	mulss  %xmm0,%xmm1
    2fdc:	f3 41 0f 5c 57 58    	subss  0x58(%r15),%xmm2
    2fe2:	f3 0f 58 cc          	addss  %xmm4,%xmm1
    2fe6:	f3 41 0f 5c 4f 54    	subss  0x54(%r15),%xmm1
    2fec:	0f 28 e2             	movaps %xmm2,%xmm4
    2fef:	f3 0f 59 e2          	mulss  %xmm2,%xmm4
    2ff3:	0f 28 c1             	movaps %xmm1,%xmm0
    2ff6:	f3 0f 59 c1          	mulss  %xmm1,%xmm0
    2ffa:	f3 0f 58 c4          	addss  %xmm4,%xmm0
    2ffe:	0f 28 e3             	movaps %xmm3,%xmm4
    3001:	f3 0f 59 e3          	mulss  %xmm3,%xmm4
    3005:	f3 0f 58 c4          	addss  %xmm4,%xmm0
    3009:	0f 2e e8             	ucomiss %xmm0,%xmm5
    300c:	f3 0f 51 e0          	sqrtss %xmm0,%xmm4
    3010:	0f 87 be 1a 00 00    	ja     4ad4 <_Z11path_tracerjR7MeshBVHR11StartupData+0x1c84>
    3016:	f3 0f 5e dc          	divss  %xmm4,%xmm3
    301a:	41 8b 47 1c          	mov    0x1c(%r15),%eax
    301e:	c7 44 24 70 00 00 00 	movl   $0x0,0x70(%rsp)
    3025:	00 
    3026:	c7 44 24 6c 00 00 00 	movl   $0x0,0x6c(%rsp)
    302d:	00 
    302e:	c7 44 24 74 00 00 00 	movl   $0x0,0x74(%rsp)
    3035:	00 
    3036:	85 c0                	test   %eax,%eax
    3038:	f3 0f 5e d4          	divss  %xmm4,%xmm2
    303c:	f3 0f 11 5c 24 18    	movss  %xmm3,0x18(%rsp)
    3042:	f3 0f 5e cc          	divss  %xmm4,%xmm1
    3046:	f3 0f 11 54 24 1c    	movss  %xmm2,0x1c(%rsp)
    304c:	f3 0f 11 4c 24 20    	movss  %xmm1,0x20(%rsp)
    3052:	0f 84 ea 12 00 00    	je     4342 <_Z11path_tracerjR7MeshBVHR11StartupData+0x14f2>
    3058:	c7 44 24 68 00 00 80 	movl   $0x3f800000,0x68(%rsp)
    305f:	3f 
    3060:	31 ff                	xor    %edi,%edi
    3062:	66 0f 1f 44 00 00    	nopw   0x0(%rax,%rax,1)
    3068:	f3 0f 10 3d c8 6f 00 	movss  0x6fc8(%rip),%xmm7        # a038 <_ZTSNSt6thread11_State_implINS_8_InvokerISt5tupleIJPFv11StartupData7MeshBVHES3_S4_EEEEEE+0x58>
    306f:	00 
    3070:	f3 0f 5e 7c 24 18    	divss  0x18(%rsp),%xmm7
    3076:	f3 0f 10 35 ba 6f 00 	movss  0x6fba(%rip),%xmm6        # a038 <_ZTSNSt6thread11_State_implINS_8_InvokerISt5tupleIJPFv11StartupData7MeshBVHES3_S4_EEEEEE+0x58>
    307d:	00 
    307e:	49 8b 45 08          	mov    0x8(%r13),%rax
    3082:	f3 0f 10 6c 24 08    	movss  0x8(%rsp),%xmm5
    3088:	f3 0f 10 18          	movss  (%rax),%xmm3
    308c:	f3 0f 10 40 0c       	movss  0xc(%rax),%xmm0
    3091:	f3 0f 5c dd          	subss  %xmm5,%xmm3
    3095:	f3 0f 5c c5          	subss  %xmm5,%xmm0
    3099:	f3 0f 5e 74 24 20    	divss  0x20(%rsp),%xmm6
    309f:	f3 0f 11 7c 24 5c    	movss  %xmm7,0x5c(%rsp)
    30a5:	f3 0f 10 3d 8b 6f 00 	movss  0x6f8b(%rip),%xmm7        # a038 <_ZTSNSt6thread11_State_implINS_8_InvokerISt5tupleIJPFv11StartupData7MeshBVHES3_S4_EEEEEE+0x58>
    30ac:	00 
    30ad:	f3 0f 5e 7c 24 1c    	divss  0x1c(%rsp),%xmm7
    30b3:	f3 0f 11 74 24 48    	movss  %xmm6,0x48(%rsp)
    30b9:	f3 0f 59 de          	mulss  %xmm6,%xmm3
    30bd:	f3 0f 59 c6          	mulss  %xmm6,%xmm0
    30c1:	0f 2e d8             	ucomiss %xmm0,%xmm3
    30c4:	f3 0f 11 7c 24 40    	movss  %xmm7,0x40(%rsp)
    30ca:	77 09                	ja     30d5 <_Z11path_tracerjR7MeshBVHR11StartupData+0x285>
    30cc:	0f 28 c8             	movaps %xmm0,%xmm1
    30cf:	0f 28 c3             	movaps %xmm3,%xmm0
    30d2:	0f 28 d9             	movaps %xmm1,%xmm3
    30d5:	f3 0f 10 74 24 0c    	movss  0xc(%rsp),%xmm6
    30db:	f3 0f 10 48 04       	movss  0x4(%rax),%xmm1
    30e0:	f3 0f 10 50 10       	movss  0x10(%rax),%xmm2
    30e5:	f3 0f 5c ce          	subss  %xmm6,%xmm1
    30e9:	f3 0f 5c d6          	subss  %xmm6,%xmm2
    30ed:	f3 0f 59 cf          	mulss  %xmm7,%xmm1
    30f1:	f3 0f 59 d7          	mulss  %xmm7,%xmm2
    30f5:	0f 2e ca             	ucomiss %xmm2,%xmm1
    30f8:	77 09                	ja     3103 <_Z11path_tracerjR7MeshBVHR11StartupData+0x2b3>
    30fa:	0f 28 e2             	movaps %xmm2,%xmm4
    30fd:	0f 28 d1             	movaps %xmm1,%xmm2
    3100:	0f 28 cc             	movaps %xmm4,%xmm1
    3103:	0f 2e c1             	ucomiss %xmm1,%xmm0
    3106:	0f 87 6c 16 00 00    	ja     4778 <_Z11path_tracerjR7MeshBVHR11StartupData+0x1928>
    310c:	0f 2e d3             	ucomiss %xmm3,%xmm2
    310f:	0f 87 63 16 00 00    	ja     4778 <_Z11path_tracerjR7MeshBVHR11StartupData+0x1928>
    3115:	f3 0f 10 74 24 14    	movss  0x14(%rsp),%xmm6
    311b:	f3 0f 5f d0          	maxss  %xmm0,%xmm2
    311f:	f3 0f 5d cb          	minss  %xmm3,%xmm1
    3123:	f3 0f 10 40 14       	movss  0x14(%rax),%xmm0
    3128:	f3 0f 10 58 08       	movss  0x8(%rax),%xmm3
    312d:	f3 0f 5c c6          	subss  %xmm6,%xmm0
    3131:	f3 0f 5c de          	subss  %xmm6,%xmm3
    3135:	f3 0f 10 6c 24 5c    	movss  0x5c(%rsp),%xmm5
    313b:	f3 0f 59 c5          	mulss  %xmm5,%xmm0
    313f:	f3 0f 59 dd          	mulss  %xmm5,%xmm3
    3143:	0f 2e d8             	ucomiss %xmm0,%xmm3
    3146:	77 09                	ja     3151 <_Z11path_tracerjR7MeshBVHR11StartupData+0x301>
    3148:	0f 28 e0             	movaps %xmm0,%xmm4
    314b:	0f 28 c3             	movaps %xmm3,%xmm0
    314e:	0f 28 dc             	movaps %xmm4,%xmm3
    3151:	0f 2e d3             	ucomiss %xmm3,%xmm2
    3154:	0f 87 1e 16 00 00    	ja     4778 <_Z11path_tracerjR7MeshBVHR11StartupData+0x1928>
    315a:	0f 2e c1             	ucomiss %xmm1,%xmm0
    315d:	0f 87 15 16 00 00    	ja     4778 <_Z11path_tracerjR7MeshBVHR11StartupData+0x1928>
    3163:	f3 0f 5d d9          	minss  %xmm1,%xmm3
    3167:	f3 0f 10 2d d9 6e 00 	movss  0x6ed9(%rip),%xmm5        # a048 <_ZTSNSt6thread11_State_implINS_8_InvokerISt5tupleIJPFv11StartupData7MeshBVHES3_S4_EEEEEE+0x68>
    316e:	00 
    316f:	f3 0f 5f c2          	maxss  %xmm2,%xmm0
    3173:	0f 2e eb             	ucomiss %xmm3,%xmm5
    3176:	0f 87 fc 15 00 00    	ja     4778 <_Z11path_tracerjR7MeshBVHR11StartupData+0x1928>
    317c:	0f 2e 05 bd 6e 00 00 	ucomiss 0x6ebd(%rip),%xmm0        # a040 <_ZTSNSt6thread11_State_implINS_8_InvokerISt5tupleIJPFv11StartupData7MeshBVHES3_S4_EEEEEE+0x60>
    3183:	0f 83 ef 15 00 00    	jae    4778 <_Z11path_tracerjR7MeshBVHR11StartupData+0x1928>
    3189:	f3 0f 11 84 24 a0 00 	movss  %xmm0,0xa0(%rsp)
    3190:	00 00 
    3192:	48 8d b4 24 a0 00 00 	lea    0xa0(%rsp),%rsi
    3199:	00 
    319a:	c7 84 24 a4 00 00 00 	movl   $0x0,0xa4(%rsp)
    31a1:	00 00 00 00 
    31a5:	31 db                	xor    %ebx,%ebx
    31a7:	c7 44 24 24 00 00 80 	movl   $0x4f800000,0x24(%rsp)
    31ae:	4f 
    31af:	45 31 c9             	xor    %r9d,%r9d
    31b2:	66 0f 1f 44 00 00    	nopw   0x0(%rax,%rax,1)
    31b8:	0f 2e 44 24 24       	ucomiss 0x24(%rsp),%xmm0
    31bd:	45 8d 61 ff          	lea    -0x1(%r9),%r12d
    31c1:	0f 83 f8 02 00 00    	jae    34bf <_Z11path_tracerjR7MeshBVHR11StartupData+0x66f>
    31c7:	49 8b 45 08          	mov    0x8(%r13),%rax
    31cb:	48 c1 e3 05          	shl    $0x5,%rbx
    31cf:	48 01 c3             	add    %rax,%rbx
    31d2:	80 7b 1c 00          	cmpb   $0x0,0x1c(%rbx)
    31d6:	8b 4b 18             	mov    0x18(%rbx),%ecx
    31d9:	0f 84 39 03 00 00    	je     3518 <_Z11path_tracerjR7MeshBVHR11StartupData+0x6c8>
    31df:	31 ed                	xor    %ebp,%ebp
    31e1:	eb 08                	jmp    31eb <_Z11path_tracerjR7MeshBVHR11StartupData+0x39b>
    31e3:	0f 1f 44 00 00       	nopl   0x0(%rax,%rax,1)
    31e8:	8b 4b 18             	mov    0x18(%rbx),%ecx
    31eb:	49 8b 45 00          	mov    0x0(%r13),%rax
    31ef:	8d 54 0d 00          	lea    0x0(%rbp,%rcx,1),%edx
    31f3:	48 8d 0c 52          	lea    (%rdx,%rdx,2),%rcx
    31f7:	48 8b 10             	mov    (%rax),%rdx
    31fa:	48 8b 40 48          	mov    0x48(%rax),%rax
    31fe:	48 8d 14 8a          	lea    (%rdx,%rcx,4),%rdx
    3202:	8b 0a                	mov    (%rdx),%ecx
    3204:	48 8d 0c 49          	lea    (%rcx,%rcx,2),%rcx
    3208:	48 8d 0c 88          	lea    (%rax,%rcx,4),%rcx
    320c:	f3 0f 10 31          	movss  (%rcx),%xmm6
    3210:	f3 44 0f 10 41 04    	movss  0x4(%rcx),%xmm8
    3216:	f3 0f 10 69 08       	movss  0x8(%rcx),%xmm5
    321b:	8b 4a 04             	mov    0x4(%rdx),%ecx
    321e:	8b 52 08             	mov    0x8(%rdx),%edx
    3221:	48 8d 0c 49          	lea    (%rcx,%rcx,2),%rcx
    3225:	48 8d 14 52          	lea    (%rdx,%rdx,2),%rdx
    3229:	48 8d 0c 88          	lea    (%rax,%rcx,4),%rcx
    322d:	48 8d 04 90          	lea    (%rax,%rdx,4),%rax
    3231:	f3 0f 10 51 04       	movss  0x4(%rcx),%xmm2
    3236:	f3 44 0f 10 70 04    	movss  0x4(%rax),%xmm14
    323c:	41 0f 28 de          	movaps %xmm14,%xmm3
    3240:	f3 44 0f 10 29       	movss  (%rcx),%xmm13
    3245:	f3 44 0f 10 49 08    	movss  0x8(%rcx),%xmm9
    324b:	f3 0f 10 38          	movss  (%rax),%xmm7
    324f:	f3 41 0f 5c d8       	subss  %xmm8,%xmm3
    3254:	f3 44 0f 10 50 08    	movss  0x8(%rax),%xmm10
    325a:	0f 28 e7             	movaps %xmm7,%xmm4
    325d:	f3 0f 11 54 24 28    	movss  %xmm2,0x28(%rsp)
    3263:	41 0f 28 ca          	movaps %xmm10,%xmm1
    3267:	f3 41 0f 5c d0       	subss  %xmm8,%xmm2
    326c:	45 0f 28 d9          	movaps %xmm9,%xmm11
    3270:	41 0f 28 c5          	movaps %xmm13,%xmm0
    3274:	f3 44 0f 5c dd       	subss  %xmm5,%xmm11
    3279:	f3 0f 5c cd          	subss  %xmm5,%xmm1
    327d:	f3 0f 5c e6          	subss  %xmm6,%xmm4
    3281:	44 0f 28 e2          	movaps %xmm2,%xmm12
    3285:	f3 0f 5c c6          	subss  %xmm6,%xmm0
    3289:	0f 28 d3             	movaps %xmm3,%xmm2
    328c:	f3 41 0f 59 db       	mulss  %xmm11,%xmm3
    3291:	44 0f 28 fc          	movaps %xmm4,%xmm15
    3295:	f3 41 0f 59 e3       	mulss  %xmm11,%xmm4
    329a:	f3 0f 59 d0          	mulss  %xmm0,%xmm2
    329e:	44 0f 28 de          	movaps %xmm6,%xmm11
    32a2:	f3 0f 59 c1          	mulss  %xmm1,%xmm0
    32a6:	f3 41 0f 59 cc       	mulss  %xmm12,%xmm1
    32ab:	f3 44 0f 5c 5c 24 08 	subss  0x8(%rsp),%xmm11
    32b2:	f3 45 0f 59 fc       	mulss  %xmm12,%xmm15
    32b7:	f3 0f 5c c4          	subss  %xmm4,%xmm0
    32bb:	f3 0f 5c cb          	subss  %xmm3,%xmm1
    32bf:	f3 0f 10 5c 24 20    	movss  0x20(%rsp),%xmm3
    32c5:	f3 41 0f 5c d7       	subss  %xmm15,%xmm2
    32ca:	0f 28 e0             	movaps %xmm0,%xmm4
    32cd:	44 0f 28 f8          	movaps %xmm0,%xmm15
    32d1:	f3 0f 10 44 24 1c    	movss  0x1c(%rsp),%xmm0
    32d7:	0f 57 25 b2 6d 00 00 	xorps  0x6db2(%rip),%xmm4        # a090 <_ZTSNSt6thread11_State_implINS_8_InvokerISt5tupleIJPFv11StartupData7MeshBVHES3_S4_EEEEEE+0xb0>
    32de:	f3 0f 59 d9          	mulss  %xmm1,%xmm3
    32e2:	f3 44 0f 59 d9       	mulss  %xmm1,%xmm11
    32e7:	f3 0f 59 c4          	mulss  %xmm4,%xmm0
    32eb:	f3 0f 58 c3          	addss  %xmm3,%xmm0
    32ef:	f3 0f 10 5c 24 18    	movss  0x18(%rsp),%xmm3
    32f5:	f3 0f 59 da          	mulss  %xmm2,%xmm3
    32f9:	44 0f 28 e0          	movaps %xmm0,%xmm12
    32fd:	f3 44 0f 58 e3       	addss  %xmm3,%xmm12
    3302:	41 0f 28 d8          	movaps %xmm8,%xmm3
    3306:	f3 0f 5c 5c 24 0c    	subss  0xc(%rsp),%xmm3
    330c:	f3 44 0f 11 64 24 10 	movss  %xmm12,0x10(%rsp)
    3313:	f3 44 0f 10 64 24 14 	movss  0x14(%rsp),%xmm12
    331a:	0f 28 c3             	movaps %xmm3,%xmm0
    331d:	f3 0f 59 c4          	mulss  %xmm4,%xmm0
    3321:	f3 44 0f 58 d8       	addss  %xmm0,%xmm11
    3326:	41 0f 28 db          	movaps %xmm11,%xmm3
    332a:	44 0f 28 dd          	movaps %xmm5,%xmm11
    332e:	f3 45 0f 5c dc       	subss  %xmm12,%xmm11
    3333:	41 0f 28 c3          	movaps %xmm11,%xmm0
    3337:	f3 0f 59 c2          	mulss  %xmm2,%xmm0
    333b:	f3 0f 58 d8          	addss  %xmm0,%xmm3
    333f:	f3 0f 5e 5c 24 10    	divss  0x10(%rsp),%xmm3
    3345:	0f 2e 1d fc 6c 00 00 	ucomiss 0x6cfc(%rip),%xmm3        # a048 <_ZTSNSt6thread11_State_implINS_8_InvokerISt5tupleIJPFv11StartupData7MeshBVHES3_S4_EEEEEE+0x68>
    334c:	0f 86 5e 01 00 00    	jbe    34b0 <_Z11path_tracerjR7MeshBVHR11StartupData+0x660>
    3352:	f3 44 0f 10 5c 24 24 	movss  0x24(%rsp),%xmm11
    3359:	44 0f 2e db          	ucomiss %xmm3,%xmm11
    335d:	0f 86 4d 01 00 00    	jbe    34b0 <_Z11path_tracerjR7MeshBVHR11StartupData+0x660>
    3363:	f3 44 0f 10 5c 24 18 	movss  0x18(%rsp),%xmm11
    336a:	f3 44 0f 59 db       	mulss  %xmm3,%xmm11
    336f:	f3 0f 2c c1          	cvttss2si %xmm1,%eax
    3373:	41 0f 28 c3          	movaps %xmm11,%xmm0
    3377:	66 45 0f ef db       	pxor   %xmm11,%xmm11
    337c:	f3 41 0f 58 c4       	addss  %xmm12,%xmm0
    3381:	66 45 0f ef e4       	pxor   %xmm12,%xmm12
    3386:	f3 0f 11 44 24 2c    	movss  %xmm0,0x2c(%rsp)
    338c:	f3 0f 10 44 24 1c    	movss  0x1c(%rsp),%xmm0
    3392:	99                   	cltd   
    3393:	f3 0f 59 c3          	mulss  %xmm3,%xmm0
    3397:	31 d0                	xor    %edx,%eax
    3399:	29 d0                	sub    %edx,%eax
    339b:	f3 44 0f 2a d8       	cvtsi2ss %eax,%xmm11
    33a0:	f3 0f 58 44 24 0c    	addss  0xc(%rsp),%xmm0
    33a6:	f3 0f 2c c4          	cvttss2si %xmm4,%eax
    33aa:	f3 0f 11 44 24 44    	movss  %xmm0,0x44(%rsp)
    33b0:	f3 0f 10 44 24 20    	movss  0x20(%rsp),%xmm0
    33b6:	f3 0f 59 c3          	mulss  %xmm3,%xmm0
    33ba:	99                   	cltd   
    33bb:	f3 0f 58 44 24 08    	addss  0x8(%rsp),%xmm0
    33c1:	31 d0                	xor    %edx,%eax
    33c3:	29 d0                	sub    %edx,%eax
    33c5:	f3 0f 11 44 24 30    	movss  %xmm0,0x30(%rsp)
    33cb:	66 0f ef c0          	pxor   %xmm0,%xmm0
    33cf:	f3 0f 2a c0          	cvtsi2ss %eax,%xmm0
    33d3:	f3 0f 2c c2          	cvttss2si %xmm2,%eax
    33d7:	99                   	cltd   
    33d8:	31 d0                	xor    %edx,%eax
    33da:	29 d0                	sub    %edx,%eax
    33dc:	44 0f 2e d8          	ucomiss %xmm0,%xmm11
    33e0:	f3 44 0f 2a e0       	cvtsi2ss %eax,%xmm12
    33e5:	0f 86 f5 00 00 00    	jbe    34e0 <_Z11path_tracerjR7MeshBVHR11StartupData+0x690>
    33eb:	45 0f 2e dc          	ucomiss %xmm12,%xmm11
    33ef:	0f 86 eb 00 00 00    	jbe    34e0 <_Z11path_tracerjR7MeshBVHR11StartupData+0x690>
    33f5:	f3 0f 10 44 24 44    	movss  0x44(%rsp),%xmm0
    33fb:	44 0f 28 d9          	movaps %xmm1,%xmm11
    33ff:	41 0f 28 fe          	movaps %xmm14,%xmm7
    3403:	f3 0f 11 44 24 30    	movss  %xmm0,0x30(%rsp)
    3409:	41 0f 28 f0          	movaps %xmm8,%xmm6
    340d:	f3 44 0f 10 6c 24 28 	movss  0x28(%rsp),%xmm13
    3414:	f3 44 0f 10 74 24 2c 	movss  0x2c(%rsp),%xmm14
    341b:	41 0f 28 c5          	movaps %xmm13,%xmm0
    341f:	f3 45 0f 5c d6       	subss  %xmm14,%xmm10
    3424:	f3 44 0f 10 64 24 30 	movss  0x30(%rsp),%xmm12
    342b:	f3 41 0f 5c c4       	subss  %xmm12,%xmm0
    3430:	f3 41 0f 5c fc       	subss  %xmm12,%xmm7
    3435:	f3 45 0f 5c ce       	subss  %xmm14,%xmm9
    343a:	45 0f 28 ea          	movaps %xmm10,%xmm13
    343e:	f3 44 0f 59 e8       	mulss  %xmm0,%xmm13
    3443:	45 0f 28 c5          	movaps %xmm13,%xmm8
    3447:	44 0f 28 ef          	movaps %xmm7,%xmm13
    344b:	f3 45 0f 59 e9       	mulss  %xmm9,%xmm13
    3450:	f3 45 0f 5c c5       	subss  %xmm13,%xmm8
    3455:	66 45 0f ef ed       	pxor   %xmm13,%xmm13
    345a:	f3 45 0f 5e c3       	divss  %xmm11,%xmm8
    345f:	45 0f 2e c5          	ucomiss %xmm13,%xmm8
    3463:	72 4b                	jb     34b0 <_Z11path_tracerjR7MeshBVHR11StartupData+0x660>
    3465:	f3 41 0f 5c ee       	subss  %xmm14,%xmm5
    346a:	f3 41 0f 5c f4       	subss  %xmm12,%xmm6
    346f:	f3 0f 59 fd          	mulss  %xmm5,%xmm7
    3473:	f3 44 0f 59 d6       	mulss  %xmm6,%xmm10
    3478:	f3 41 0f 5c fa       	subss  %xmm10,%xmm7
    347d:	66 45 0f ef d2       	pxor   %xmm10,%xmm10
    3482:	f3 41 0f 5e fb       	divss  %xmm11,%xmm7
    3487:	41 0f 2e fa          	ucomiss %xmm10,%xmm7
    348b:	72 23                	jb     34b0 <_Z11path_tracerjR7MeshBVHR11StartupData+0x660>
    348d:	f3 44 0f 59 ce       	mulss  %xmm6,%xmm9
    3492:	f3 0f 59 e8          	mulss  %xmm0,%xmm5
    3496:	66 0f ef f6          	pxor   %xmm6,%xmm6
    349a:	f3 44 0f 5c cd       	subss  %xmm5,%xmm9
    349f:	f3 45 0f 5e cb       	divss  %xmm11,%xmm9
    34a4:	44 0f 2e ce          	ucomiss %xmm6,%xmm9
    34a8:	0f 83 92 0b 00 00    	jae    4040 <_Z11path_tracerjR7MeshBVHR11StartupData+0x11f0>
    34ae:	66 90                	xchg   %ax,%ax
    34b0:	0f b6 43 1d          	movzbl 0x1d(%rbx),%eax
    34b4:	83 c5 01             	add    $0x1,%ebp
    34b7:	39 e8                	cmp    %ebp,%eax
    34b9:	0f 83 29 fd ff ff    	jae    31e8 <_Z11path_tracerjR7MeshBVHR11StartupData+0x398>
    34bf:	41 83 fc ff          	cmp    $0xffffffff,%r12d
    34c3:	0f 84 7f 02 00 00    	je     3748 <_Z11path_tracerjR7MeshBVHR11StartupData+0x8f8>
    34c9:	44 89 e0             	mov    %r12d,%eax
    34cc:	45 89 e1             	mov    %r12d,%r9d
    34cf:	48 8d 04 c6          	lea    (%rsi,%rax,8),%rax
    34d3:	f3 0f 10 00          	movss  (%rax),%xmm0
    34d7:	8b 58 04             	mov    0x4(%rax),%ebx
    34da:	e9 d9 fc ff ff       	jmpq   31b8 <_Z11path_tracerjR7MeshBVHR11StartupData+0x368>
    34df:	90                   	nop
    34e0:	41 0f 2e c4          	ucomiss %xmm12,%xmm0
    34e4:	45 0f 28 df          	movaps %xmm15,%xmm11
    34e8:	0f 87 26 ff ff ff    	ja     3414 <_Z11path_tracerjR7MeshBVHR11StartupData+0x5c4>
    34ee:	f3 0f 10 44 24 44    	movss  0x44(%rsp),%xmm0
    34f4:	44 0f 28 da          	movaps %xmm2,%xmm11
    34f8:	45 0f 28 d6          	movaps %xmm14,%xmm10
    34fc:	f3 0f 11 44 24 2c    	movss  %xmm0,0x2c(%rsp)
    3502:	f3 44 0f 10 4c 24 28 	movss  0x28(%rsp),%xmm9
    3509:	41 0f 28 e8          	movaps %xmm8,%xmm5
    350d:	e9 02 ff ff ff       	jmpq   3414 <_Z11path_tracerjR7MeshBVHR11StartupData+0x5c4>
    3512:	66 0f 1f 44 00 00    	nopw   0x0(%rax,%rax,1)
    3518:	89 ca                	mov    %ecx,%edx
    351a:	f3 0f 10 74 24 08    	movss  0x8(%rsp),%xmm6
    3520:	48 c1 e2 05          	shl    $0x5,%rdx
    3524:	f3 0f 10 7c 24 48    	movss  0x48(%rsp),%xmm7
    352a:	48 01 c2             	add    %rax,%rdx
    352d:	44 8d 51 01          	lea    0x1(%rcx),%r10d
    3531:	f3 0f 10 1a          	movss  (%rdx),%xmm3
    3535:	f3 0f 10 52 0c       	movss  0xc(%rdx),%xmm2
    353a:	f3 0f 5c de          	subss  %xmm6,%xmm3
    353e:	f3 0f 5c d6          	subss  %xmm6,%xmm2
    3542:	f3 0f 59 df          	mulss  %xmm7,%xmm3
    3546:	f3 0f 59 d7          	mulss  %xmm7,%xmm2
    354a:	0f 2e da             	ucomiss %xmm2,%xmm3
    354d:	77 09                	ja     3558 <_Z11path_tracerjR7MeshBVHR11StartupData+0x708>
    354f:	0f 28 c2             	movaps %xmm2,%xmm0
    3552:	0f 28 d3             	movaps %xmm3,%xmm2
    3555:	0f 28 d8             	movaps %xmm0,%xmm3
    3558:	f3 0f 10 74 24 0c    	movss  0xc(%rsp),%xmm6
    355e:	f3 0f 10 42 04       	movss  0x4(%rdx),%xmm0
    3563:	f3 0f 10 4a 10       	movss  0x10(%rdx),%xmm1
    3568:	f3 0f 5c c6          	subss  %xmm6,%xmm0
    356c:	f3 0f 5c ce          	subss  %xmm6,%xmm1
    3570:	f3 0f 10 7c 24 40    	movss  0x40(%rsp),%xmm7
    3576:	f3 0f 59 c7          	mulss  %xmm7,%xmm0
    357a:	f3 0f 59 cf          	mulss  %xmm7,%xmm1
    357e:	0f 2e c1             	ucomiss %xmm1,%xmm0
    3581:	77 09                	ja     358c <_Z11path_tracerjR7MeshBVHR11StartupData+0x73c>
    3583:	0f 28 e1             	movaps %xmm1,%xmm4
    3586:	0f 28 c8             	movaps %xmm0,%xmm1
    3589:	0f 28 c4             	movaps %xmm4,%xmm0
    358c:	0f 2e d0             	ucomiss %xmm0,%xmm2
    358f:	f3 0f 10 2d a9 6a 00 	movss  0x6aa9(%rip),%xmm5        # a040 <_ZTSNSt6thread11_State_implINS_8_InvokerISt5tupleIJPFv11StartupData7MeshBVHES3_S4_EEEEEE+0x60>
    3596:	00 
    3597:	77 77                	ja     3610 <_Z11path_tracerjR7MeshBVHR11StartupData+0x7c0>
    3599:	0f 2e cb             	ucomiss %xmm3,%xmm1
    359c:	77 72                	ja     3610 <_Z11path_tracerjR7MeshBVHR11StartupData+0x7c0>
    359e:	f3 0f 10 74 24 14    	movss  0x14(%rsp),%xmm6
    35a4:	f3 0f 5f ca          	maxss  %xmm2,%xmm1
    35a8:	f3 0f 10 6a 14       	movss  0x14(%rdx),%xmm5
    35ad:	f3 0f 5d c3          	minss  %xmm3,%xmm0
    35b1:	f3 0f 10 52 08       	movss  0x8(%rdx),%xmm2
    35b6:	f3 0f 5c ee          	subss  %xmm6,%xmm5
    35ba:	f3 0f 5c d6          	subss  %xmm6,%xmm2
    35be:	f3 0f 10 7c 24 5c    	movss  0x5c(%rsp),%xmm7
    35c4:	f3 0f 59 ef          	mulss  %xmm7,%xmm5
    35c8:	f3 0f 59 d7          	mulss  %xmm7,%xmm2
    35cc:	0f 2e d5             	ucomiss %xmm5,%xmm2
    35cf:	77 09                	ja     35da <_Z11path_tracerjR7MeshBVHR11StartupData+0x78a>
    35d1:	0f 28 dd             	movaps %xmm5,%xmm3
    35d4:	0f 28 ea             	movaps %xmm2,%xmm5
    35d7:	0f 28 d3             	movaps %xmm3,%xmm2
    35da:	0f 2e ca             	ucomiss %xmm2,%xmm1
    35dd:	0f 87 2d 0e 00 00    	ja     4410 <_Z11path_tracerjR7MeshBVHR11StartupData+0x15c0>
    35e3:	0f 2e e8             	ucomiss %xmm0,%xmm5
    35e6:	0f 87 24 0e 00 00    	ja     4410 <_Z11path_tracerjR7MeshBVHR11StartupData+0x15c0>
    35ec:	f3 0f 5d d0          	minss  %xmm0,%xmm2
    35f0:	f3 0f 10 35 48 6a 00 	movss  0x6a48(%rip),%xmm6        # a040 <_ZTSNSt6thread11_State_implINS_8_InvokerISt5tupleIJPFv11StartupData7MeshBVHES3_S4_EEEEEE+0x60>
    35f7:	00 
    35f8:	f3 0f 5f e9          	maxss  %xmm1,%xmm5
    35fc:	f3 0f c2 15 43 6a 00 	cmpnltss 0x6a43(%rip),%xmm2        # a048 <_ZTSNSt6thread11_State_implINS_8_InvokerISt5tupleIJPFv11StartupData7MeshBVHES3_S4_EEEEEE+0x68>
    3603:	00 05 
    3605:	0f 54 ea             	andps  %xmm2,%xmm5
    3608:	0f 55 d6             	andnps %xmm6,%xmm2
    360b:	0f 56 ea             	orps   %xmm2,%xmm5
    360e:	66 90                	xchg   %ax,%ax
    3610:	44 89 d2             	mov    %r10d,%edx
    3613:	f3 0f 10 74 24 08    	movss  0x8(%rsp),%xmm6
    3619:	48 c1 e2 05          	shl    $0x5,%rdx
    361d:	f3 0f 10 7c 24 48    	movss  0x48(%rsp),%xmm7
    3623:	48 01 d0             	add    %rdx,%rax
    3626:	f3 0f 10 18          	movss  (%rax),%xmm3
    362a:	f3 0f 10 50 0c       	movss  0xc(%rax),%xmm2
    362f:	f3 0f 5c de          	subss  %xmm6,%xmm3
    3633:	f3 0f 5c d6          	subss  %xmm6,%xmm2
    3637:	f3 0f 59 df          	mulss  %xmm7,%xmm3
    363b:	f3 0f 59 d7          	mulss  %xmm7,%xmm2
    363f:	0f 2e da             	ucomiss %xmm2,%xmm3
    3642:	77 09                	ja     364d <_Z11path_tracerjR7MeshBVHR11StartupData+0x7fd>
    3644:	0f 28 c2             	movaps %xmm2,%xmm0
    3647:	0f 28 d3             	movaps %xmm3,%xmm2
    364a:	0f 28 d8             	movaps %xmm0,%xmm3
    364d:	f3 0f 10 74 24 0c    	movss  0xc(%rsp),%xmm6
    3653:	f3 0f 10 40 04       	movss  0x4(%rax),%xmm0
    3658:	f3 0f 10 48 10       	movss  0x10(%rax),%xmm1
    365d:	f3 0f 5c c6          	subss  %xmm6,%xmm0
    3661:	f3 0f 5c ce          	subss  %xmm6,%xmm1
    3665:	f3 0f 10 7c 24 40    	movss  0x40(%rsp),%xmm7
    366b:	f3 0f 59 c7          	mulss  %xmm7,%xmm0
    366f:	f3 0f 59 cf          	mulss  %xmm7,%xmm1
    3673:	0f 2e c1             	ucomiss %xmm1,%xmm0
    3676:	77 09                	ja     3681 <_Z11path_tracerjR7MeshBVHR11StartupData+0x831>
    3678:	0f 28 e1             	movaps %xmm1,%xmm4
    367b:	0f 28 c8             	movaps %xmm0,%xmm1
    367e:	0f 28 c4             	movaps %xmm4,%xmm0
    3681:	0f 2e d0             	ucomiss %xmm0,%xmm2
    3684:	f3 0f 10 25 b4 69 00 	movss  0x69b4(%rip),%xmm4        # a040 <_ZTSNSt6thread11_State_implINS_8_InvokerISt5tupleIJPFv11StartupData7MeshBVHES3_S4_EEEEEE+0x60>
    368b:	00 
    368c:	77 7a                	ja     3708 <_Z11path_tracerjR7MeshBVHR11StartupData+0x8b8>
    368e:	0f 2e cb             	ucomiss %xmm3,%xmm1
    3691:	77 75                	ja     3708 <_Z11path_tracerjR7MeshBVHR11StartupData+0x8b8>
    3693:	f3 0f 10 74 24 14    	movss  0x14(%rsp),%xmm6
    3699:	f3 0f 5f ca          	maxss  %xmm2,%xmm1
    369d:	f3 0f 10 60 14       	movss  0x14(%rax),%xmm4
    36a2:	f3 0f 5d c3          	minss  %xmm3,%xmm0
    36a6:	f3 0f 10 50 08       	movss  0x8(%rax),%xmm2
    36ab:	f3 0f 5c e6          	subss  %xmm6,%xmm4
    36af:	f3 0f 5c d6          	subss  %xmm6,%xmm2
    36b3:	f3 0f 10 7c 24 5c    	movss  0x5c(%rsp),%xmm7
    36b9:	f3 0f 59 e7          	mulss  %xmm7,%xmm4
    36bd:	f3 0f 59 d7          	mulss  %xmm7,%xmm2
    36c1:	0f 2e d4             	ucomiss %xmm4,%xmm2
    36c4:	77 09                	ja     36cf <_Z11path_tracerjR7MeshBVHR11StartupData+0x87f>
    36c6:	0f 28 dc             	movaps %xmm4,%xmm3
    36c9:	0f 28 e2             	movaps %xmm2,%xmm4
    36cc:	0f 28 d3             	movaps %xmm3,%xmm2
    36cf:	0f 2e ca             	ucomiss %xmm2,%xmm1
    36d2:	0f 87 48 0d 00 00    	ja     4420 <_Z11path_tracerjR7MeshBVHR11StartupData+0x15d0>
    36d8:	0f 2e e0             	ucomiss %xmm0,%xmm4
    36db:	0f 87 3f 0d 00 00    	ja     4420 <_Z11path_tracerjR7MeshBVHR11StartupData+0x15d0>
    36e1:	f3 0f 5d d0          	minss  %xmm0,%xmm2
    36e5:	f3 0f 10 35 53 69 00 	movss  0x6953(%rip),%xmm6        # a040 <_ZTSNSt6thread11_State_implINS_8_InvokerISt5tupleIJPFv11StartupData7MeshBVHES3_S4_EEEEEE+0x60>
    36ec:	00 
    36ed:	f3 0f 5f e1          	maxss  %xmm1,%xmm4
    36f1:	f3 0f c2 15 4e 69 00 	cmpnltss 0x694e(%rip),%xmm2        # a048 <_ZTSNSt6thread11_State_implINS_8_InvokerISt5tupleIJPFv11StartupData7MeshBVHES3_S4_EEEEEE+0x68>
    36f8:	00 05 
    36fa:	0f 54 e2             	andps  %xmm2,%xmm4
    36fd:	0f 55 d6             	andnps %xmm6,%xmm2
    3700:	0f 56 e2             	orps   %xmm2,%xmm4
    3703:	0f 1f 44 00 00       	nopl   0x0(%rax,%rax,1)
    3708:	0f 2e e5             	ucomiss %xmm5,%xmm4
    370b:	45 8d 61 01          	lea    0x1(%r9),%r12d
    370f:	0f 86 fb 08 00 00    	jbe    4010 <_Z11path_tracerjR7MeshBVHR11StartupData+0x11c0>
    3715:	44 89 e0             	mov    %r12d,%eax
    3718:	41 83 fc ff          	cmp    $0xffffffff,%r12d
    371c:	f3 42 0f 11 a4 cc a0 	movss  %xmm4,0xa0(%rsp,%r9,8)
    3723:	00 00 00 
    3726:	46 89 94 cc a4 00 00 	mov    %r10d,0xa4(%rsp,%r9,8)
    372d:	00 
    372e:	f3 0f 11 ac c4 a0 00 	movss  %xmm5,0xa0(%rsp,%rax,8)
    3735:	00 00 
    3737:	89 8c c4 a4 00 00 00 	mov    %ecx,0xa4(%rsp,%rax,8)
    373e:	0f 85 85 fd ff ff    	jne    34c9 <_Z11path_tracerjR7MeshBVHR11StartupData+0x679>
    3744:	0f 1f 40 00          	nopl   0x0(%rax)
    3748:	f3 0f 10 2d f0 68 00 	movss  0x68f0(%rip),%xmm5        # a040 <_ZTSNSt6thread11_State_implINS_8_InvokerISt5tupleIJPFv11StartupData7MeshBVHES3_S4_EEEEEE+0x60>
    374f:	00 
    3750:	f3 0f 10 7c 24 24    	movss  0x24(%rsp),%xmm7
    3756:	0f 2e ef             	ucomiss %xmm7,%xmm5
    3759:	0f 86 19 10 00 00    	jbe    4778 <_Z11path_tracerjR7MeshBVHR11StartupData+0x1928>
    375f:	f3 0f 10 44 24 20    	movss  0x20(%rsp),%xmm0
    3765:	44 89 f0             	mov    %r14d,%eax
    3768:	f3 0f 59 c7          	mulss  %xmm7,%xmm0
    376c:	c1 e0 0a             	shl    $0xa,%eax
    376f:	44 01 f0             	add    %r14d,%eax
    3772:	41 81 e6 ff ff 7f 00 	and    $0x7fffff,%r14d
    3779:	89 c2                	mov    %eax,%edx
    377b:	41 81 ce 00 00 80 3f 	or     $0x3f800000,%r14d
    3782:	c1 ea 06             	shr    $0x6,%edx
    3785:	44 89 74 24 10       	mov    %r14d,0x10(%rsp)
    378a:	f3 0f 58 44 24 08    	addss  0x8(%rsp),%xmm0
    3790:	31 d0                	xor    %edx,%eax
    3792:	8d 04 c0             	lea    (%rax,%rax,8),%eax
    3795:	66 0f ef f6          	pxor   %xmm6,%xmm6
    3799:	89 c3                	mov    %eax,%ebx
    379b:	c1 eb 0b             	shr    $0xb,%ebx
    379e:	31 c3                	xor    %eax,%ebx
    37a0:	f3 0f 11 44 24 08    	movss  %xmm0,0x8(%rsp)
    37a6:	89 d8                	mov    %ebx,%eax
    37a8:	f3 0f 10 44 24 1c    	movss  0x1c(%rsp),%xmm0
    37ae:	c1 e0 0f             	shl    $0xf,%eax
    37b1:	f3 0f 59 c7          	mulss  %xmm7,%xmm0
    37b5:	01 c3                	add    %eax,%ebx
    37b7:	f3 0f 59 7c 24 18    	mulss  0x18(%rsp),%xmm7
    37bd:	f3 0f 58 44 24 0c    	addss  0xc(%rsp),%xmm0
    37c3:	f3 0f 11 44 24 0c    	movss  %xmm0,0xc(%rsp)
    37c9:	f3 0f 10 44 24 14    	movss  0x14(%rsp),%xmm0
    37cf:	f3 0f 58 c7          	addss  %xmm7,%xmm0
    37d3:	f3 0f 11 44 24 14    	movss  %xmm0,0x14(%rsp)
    37d9:	f3 0f 10 44 24 10    	movss  0x10(%rsp),%xmm0
    37df:	f3 0f 5c 05 51 68 00 	subss  0x6851(%rip),%xmm0        # a038 <_ZTSNSt6thread11_State_implINS_8_InvokerISt5tupleIJPFv11StartupData7MeshBVHES3_S4_EEEEEE+0x58>
    37e6:	00 
    37e7:	0f 2e f0             	ucomiss %xmm0,%xmm6
    37ea:	f3 0f 51 e8          	sqrtss %xmm0,%xmm5
    37ee:	0f 87 cf 0f 00 00    	ja     47c3 <_Z11path_tracerjR7MeshBVHR11StartupData+0x1973>
    37f4:	89 d8                	mov    %ebx,%eax
    37f6:	f3 0f 10 35 4e 68 00 	movss  0x684e(%rip),%xmm6        # a04c <_ZTSNSt6thread11_State_implINS_8_InvokerISt5tupleIJPFv11StartupData7MeshBVHES3_S4_EEEEEE+0x6c>
    37fd:	00 
    37fe:	c1 e0 0a             	shl    $0xa,%eax
    3801:	f3 0f 10 1d 4b 68 00 	movss  0x684b(%rip),%xmm3        # a054 <_ZTSNSt6thread11_State_implINS_8_InvokerISt5tupleIJPFv11StartupData7MeshBVHES3_S4_EEEEEE+0x74>
    3808:	00 
    3809:	01 d8                	add    %ebx,%eax
    380b:	81 e3 ff ff 7f 00    	and    $0x7fffff,%ebx
    3811:	81 cb 00 00 80 3f    	or     $0x3f800000,%ebx
    3817:	89 c2                	mov    %eax,%edx
    3819:	89 5c 24 10          	mov    %ebx,0x10(%rsp)
    381d:	c1 ea 06             	shr    $0x6,%edx
    3820:	f3 0f 10 64 24 10    	movss  0x10(%rsp),%xmm4
    3826:	31 d0                	xor    %edx,%eax
    3828:	f3 0f 5c 25 08 68 00 	subss  0x6808(%rip),%xmm4        # a038 <_ZTSNSt6thread11_State_implINS_8_InvokerISt5tupleIJPFv11StartupData7MeshBVHES3_S4_EEEEEE+0x58>
    382f:	00 
    3830:	8d 04 c0             	lea    (%rax,%rax,8),%eax
    3833:	41 89 c6             	mov    %eax,%r14d
    3836:	41 c1 ee 0b          	shr    $0xb,%r14d
    383a:	41 31 c6             	xor    %eax,%r14d
    383d:	44 89 f0             	mov    %r14d,%eax
    3840:	f3 0f 59 e6          	mulss  %xmm6,%xmm4
    3844:	c1 e0 0f             	shl    $0xf,%eax
    3847:	41 01 c6             	add    %eax,%r14d
    384a:	0f 28 d4             	movaps %xmm4,%xmm2
    384d:	f3 0f 5c 15 fb 67 00 	subss  0x67fb(%rip),%xmm2        # a050 <_ZTSNSt6thread11_State_implINS_8_InvokerISt5tupleIJPFv11StartupData7MeshBVHES3_S4_EEEEEE+0x70>
    3854:	00 
    3855:	0f 28 c2             	movaps %xmm2,%xmm0
    3858:	0f 54 05 41 68 00 00 	andps  0x6841(%rip),%xmm0        # a0a0 <_ZTSNSt6thread11_State_implINS_8_InvokerISt5tupleIJPFv11StartupData7MeshBVHES3_S4_EEEEEE+0xc0>
    385f:	0f 28 c8             	movaps %xmm0,%xmm1
    3862:	f3 0f 59 cb          	mulss  %xmm3,%xmm1
    3866:	f3 48 0f 2c c1       	cvttss2si %xmm1,%rax
    386b:	83 f8 01             	cmp    $0x1,%eax
    386e:	0f 84 ec 0d 00 00    	je     4660 <_Z11path_tracerjR7MeshBVHR11StartupData+0x1810>
    3874:	0f 82 c6 0d 00 00    	jb     4640 <_Z11path_tracerjR7MeshBVHR11StartupData+0x17f0>
    387a:	83 f8 02             	cmp    $0x2,%eax
    387d:	0f 84 6d 0d 00 00    	je     45f0 <_Z11path_tracerjR7MeshBVHR11StartupData+0x17a0>
    3883:	83 f8 03             	cmp    $0x3,%eax
    3886:	0f 85 44 0d 00 00    	jne    45d0 <_Z11path_tracerjR7MeshBVHR11StartupData+0x1780>
    388c:	0f 28 d6             	movaps %xmm6,%xmm2
    388f:	f3 0f 5c d0          	subss  %xmm0,%xmm2
    3893:	f3 0f 59 d2          	mulss  %xmm2,%xmm2
    3897:	0f 28 c2             	movaps %xmm2,%xmm0
    389a:	f3 0f 59 15 b6 67 00 	mulss  0x67b6(%rip),%xmm2        # a058 <_ZTSNSt6thread11_State_implINS_8_InvokerISt5tupleIJPFv11StartupData7MeshBVHES3_S4_EEEEEE+0x78>
    38a1:	00 
    38a2:	f3 0f 5c 15 b2 67 00 	subss  0x67b2(%rip),%xmm2        # a05c <_ZTSNSt6thread11_State_implINS_8_InvokerISt5tupleIJPFv11StartupData7MeshBVHES3_S4_EEEEEE+0x7c>
    38a9:	00 
    38aa:	f3 0f 59 d0          	mulss  %xmm0,%xmm2
    38ae:	f3 0f 10 3d da 67 00 	movss  0x67da(%rip),%xmm7        # a090 <_ZTSNSt6thread11_State_implINS_8_InvokerISt5tupleIJPFv11StartupData7MeshBVHES3_S4_EEEEEE+0xb0>
    38b5:	00 
    38b6:	0f 29 7c 24 30       	movaps %xmm7,0x30(%rsp)
    38bb:	f3 0f 58 15 9d 67 00 	addss  0x679d(%rip),%xmm2        # a060 <_ZTSNSt6thread11_State_implINS_8_InvokerISt5tupleIJPFv11StartupData7MeshBVHES3_S4_EEEEEE+0x80>
    38c2:	00 
    38c3:	0f 28 c2             	movaps %xmm2,%xmm0
    38c6:	f3 0f 59 c2          	mulss  %xmm2,%xmm0
    38ca:	0f 28 cc             	movaps %xmm4,%xmm1
    38cd:	0f 54 0d cc 67 00 00 	andps  0x67cc(%rip),%xmm1        # a0a0 <_ZTSNSt6thread11_State_implINS_8_InvokerISt5tupleIJPFv11StartupData7MeshBVHES3_S4_EEEEEE+0xc0>
    38d4:	f3 0f 59 d9          	mulss  %xmm1,%xmm3
    38d8:	f3 48 0f 2c c3       	cvttss2si %xmm3,%rax
    38dd:	83 f8 01             	cmp    $0x1,%eax
    38e0:	0f 84 5a 0e 00 00    	je     4740 <_Z11path_tracerjR7MeshBVHR11StartupData+0x18f0>
    38e6:	0f 82 1c 0e 00 00    	jb     4708 <_Z11path_tracerjR7MeshBVHR11StartupData+0x18b8>
    38ec:	83 f8 02             	cmp    $0x2,%eax
    38ef:	0f 84 cb 0d 00 00    	je     46c0 <_Z11path_tracerjR7MeshBVHR11StartupData+0x1870>
    38f5:	83 f8 03             	cmp    $0x3,%eax
    38f8:	0f 85 b2 0d 00 00    	jne    46b0 <_Z11path_tracerjR7MeshBVHR11StartupData+0x1860>
    38fe:	f3 0f 5c f1          	subss  %xmm1,%xmm6
    3902:	f3 0f 10 0d 4e 67 00 	movss  0x674e(%rip),%xmm1        # a058 <_ZTSNSt6thread11_State_implINS_8_InvokerISt5tupleIJPFv11StartupData7MeshBVHES3_S4_EEEEEE+0x78>
    3909:	00 
    390a:	f3 0f 59 f6          	mulss  %xmm6,%xmm6
    390e:	f3 0f 59 ce          	mulss  %xmm6,%xmm1
    3912:	f3 0f 5c 0d 42 67 00 	subss  0x6742(%rip),%xmm1        # a05c <_ZTSNSt6thread11_State_implINS_8_InvokerISt5tupleIJPFv11StartupData7MeshBVHES3_S4_EEEEEE+0x7c>
    3919:	00 
    391a:	f3 0f 59 ce          	mulss  %xmm6,%xmm1
    391e:	f3 0f 58 0d 3a 67 00 	addss  0x673a(%rip),%xmm1        # a060 <_ZTSNSt6thread11_State_implINS_8_InvokerISt5tupleIJPFv11StartupData7MeshBVHES3_S4_EEEEEE+0x80>
    3925:	00 
    3926:	0f 28 d9             	movaps %xmm1,%xmm3
    3929:	f3 0f 59 d9          	mulss  %xmm1,%xmm3
    392d:	f3 0f 58 c3          	addss  %xmm3,%xmm0
    3931:	66 0f ef f6          	pxor   %xmm6,%xmm6
    3935:	0f 2e f0             	ucomiss %xmm0,%xmm6
    3938:	f3 0f 51 e0          	sqrtss %xmm0,%xmm4
    393c:	0f 87 83 0f 00 00    	ja     48c5 <_Z11path_tracerjR7MeshBVHR11StartupData+0x1a75>
    3942:	f3 0f 5e d4          	divss  %xmm4,%xmm2
    3946:	f3 0f 5e cc          	divss  %xmm4,%xmm1
    394a:	f3 0f 59 d5          	mulss  %xmm5,%xmm2
    394e:	f3 0f 59 cd          	mulss  %xmm5,%xmm1
    3952:	f3 0f 10 2d de 66 00 	movss  0x66de(%rip),%xmm5        # a038 <_ZTSNSt6thread11_State_implINS_8_InvokerISt5tupleIJPFv11StartupData7MeshBVHES3_S4_EEEEEE+0x58>
    3959:	00 
    395a:	0f 28 da             	movaps %xmm2,%xmm3
    395d:	f3 0f 59 da          	mulss  %xmm2,%xmm3
    3961:	0f 28 c1             	movaps %xmm1,%xmm0
    3964:	f3 0f 59 c1          	mulss  %xmm1,%xmm0
    3968:	f3 0f 58 c3          	addss  %xmm3,%xmm0
    396c:	f3 0f 5c e8          	subss  %xmm0,%xmm5
    3970:	0f 28 c5             	movaps %xmm5,%xmm0
    3973:	f3 0f 51 dd          	sqrtss %xmm5,%xmm3
    3977:	66 0f ef ed          	pxor   %xmm5,%xmm5
    397b:	0f 2e e8             	ucomiss %xmm0,%xmm5
    397e:	0f 87 01 0f 00 00    	ja     4885 <_Z11path_tracerjR7MeshBVHR11StartupData+0x1a35>
    3984:	f3 0f 10 6c 24 58    	movss  0x58(%rsp),%xmm5
    398a:	0f 28 e5             	movaps %xmm5,%xmm4
    398d:	f3 0f 10 74 24 50    	movss  0x50(%rsp),%xmm6
    3993:	f3 0f 59 e5          	mulss  %xmm5,%xmm4
    3997:	f3 0f 10 6c 24 4c    	movss  0x4c(%rsp),%xmm5
    399d:	0f 28 c5             	movaps %xmm5,%xmm0
    39a0:	f3 0f 59 c5          	mulss  %xmm5,%xmm0
    39a4:	66 0f ef ed          	pxor   %xmm5,%xmm5
    39a8:	f3 0f 58 c4          	addss  %xmm4,%xmm0
    39ac:	0f 28 e6             	movaps %xmm6,%xmm4
    39af:	f3 0f 59 e6          	mulss  %xmm6,%xmm4
    39b3:	f3 0f 58 c4          	addss  %xmm4,%xmm0
    39b7:	0f 2e e8             	ucomiss %xmm0,%xmm5
    39ba:	f3 0f 51 e0          	sqrtss %xmm0,%xmm4
    39be:	0f 87 75 0e 00 00    	ja     4839 <_Z11path_tracerjR7MeshBVHR11StartupData+0x19e9>
    39c4:	f3 0f 10 74 24 4c    	movss  0x4c(%rsp),%xmm6
    39ca:	f3 0f 5e f4          	divss  %xmm4,%xmm6
    39ce:	f3 0f 10 6c 24 58    	movss  0x58(%rsp),%xmm5
    39d4:	f3 0f 10 7c 24 50    	movss  0x50(%rsp),%xmm7
    39da:	f3 44 0f 10 0d 85 66 	movss  0x6685(%rip),%xmm9        # a068 <_ZTSNSt6thread11_State_implINS_8_InvokerISt5tupleIJPFv11StartupData7MeshBVHES3_S4_EEEEEE+0x88>
    39e1:	00 00 
    39e3:	f3 0f 5e ec          	divss  %xmm4,%xmm5
    39e7:	f3 0f 5e fc          	divss  %xmm4,%xmm7
    39eb:	0f 28 e6             	movaps %xmm6,%xmm4
    39ee:	44 0f 28 c4          	movaps %xmm4,%xmm8
    39f2:	0f 28 c5             	movaps %xmm5,%xmm0
    39f5:	f3 0f 59 c6          	mulss  %xmm6,%xmm0
    39f9:	44 0f 54 05 9f 66 00 	andps  0x669f(%rip),%xmm8        # a0a0 <_ZTSNSt6thread11_State_implINS_8_InvokerISt5tupleIJPFv11StartupData7MeshBVHES3_S4_EEEEEE+0xc0>
    3a00:	00 
    3a01:	66 0f ef f6          	pxor   %xmm6,%xmm6
    3a05:	f3 0f 5c f0          	subss  %xmm0,%xmm6
    3a09:	45 0f 2e c8          	ucomiss %xmm8,%xmm9
    3a0d:	0f 28 c6             	movaps %xmm6,%xmm0
    3a10:	f3 0f 59 c6          	mulss  %xmm6,%xmm0
    3a14:	0f 87 16 0a 00 00    	ja     4430 <_Z11path_tracerjR7MeshBVHR11StartupData+0x15e0>
    3a1a:	f3 0f 59 fd          	mulss  %xmm5,%xmm7
    3a1e:	66 0f ef e4          	pxor   %xmm4,%xmm4
    3a22:	f3 0f 59 ed          	mulss  %xmm5,%xmm5
    3a26:	66 45 0f ef d2       	pxor   %xmm10,%xmm10
    3a2b:	f3 0f 5c e7          	subss  %xmm7,%xmm4
    3a2f:	f3 0f 10 3d 01 66 00 	movss  0x6601(%rip),%xmm7        # a038 <_ZTSNSt6thread11_State_implINS_8_InvokerISt5tupleIJPFv11StartupData7MeshBVHES3_S4_EEEEEE+0x58>
    3a36:	00 
    3a37:	f3 0f 5c fd          	subss  %xmm5,%xmm7
    3a3b:	0f 28 ef             	movaps %xmm7,%xmm5
    3a3e:	f3 0f 59 ff          	mulss  %xmm7,%xmm7
    3a42:	f3 0f 58 c7          	addss  %xmm7,%xmm0
    3a46:	0f 28 fc             	movaps %xmm4,%xmm7
    3a49:	f3 0f 59 fc          	mulss  %xmm4,%xmm7
    3a4d:	f3 0f 58 c7          	addss  %xmm7,%xmm0
    3a51:	44 0f 2e d0          	ucomiss %xmm0,%xmm10
    3a55:	f3 0f 51 f8          	sqrtss %xmm0,%xmm7
    3a59:	0f 87 14 0f 00 00    	ja     4973 <_Z11path_tracerjR7MeshBVHR11StartupData+0x1b23>
    3a5f:	f3 0f 5e e7          	divss  %xmm7,%xmm4
    3a63:	f3 0f 5e ef          	divss  %xmm7,%xmm5
    3a67:	0f 28 c4             	movaps %xmm4,%xmm0
    3a6a:	f3 0f 5e f7          	divss  %xmm7,%xmm6
    3a6e:	f3 44 0f 10 54 24 4c 	movss  0x4c(%rsp),%xmm10
    3a75:	0f 28 f9             	movaps %xmm1,%xmm7
    3a78:	f3 44 0f 10 74 24 58 	movss  0x58(%rsp),%xmm14
    3a7f:	45 0f 28 c2          	movaps %xmm10,%xmm8
    3a83:	f3 44 0f 10 6c 24 50 	movss  0x50(%rsp),%xmm13
    3a8a:	41 0f 28 e6          	movaps %xmm14,%xmm4
    3a8e:	45 0f 28 ca          	movaps %xmm10,%xmm9
    3a92:	f3 0f 59 e6          	mulss  %xmm6,%xmm4
    3a96:	f3 44 0f 59 c5       	mulss  %xmm5,%xmm8
    3a9b:	f3 44 0f 59 c8       	mulss  %xmm0,%xmm9
    3aa0:	f3 0f 59 fd          	mulss  %xmm5,%xmm7
    3aa4:	f3 41 0f 59 ed       	mulss  %xmm13,%xmm5
    3aa9:	f3 44 0f 5c c4       	subss  %xmm4,%xmm8
    3aae:	0f 28 e0             	movaps %xmm0,%xmm4
    3ab1:	f3 41 0f 59 c6       	mulss  %xmm14,%xmm0
    3ab6:	f3 0f 59 e1          	mulss  %xmm1,%xmm4
    3aba:	f3 44 0f 59 c2       	mulss  %xmm2,%xmm8
    3abf:	f3 0f 5c c5          	subss  %xmm5,%xmm0
    3ac3:	66 0f ef ed          	pxor   %xmm5,%xmm5
    3ac7:	f3 44 0f 58 c4       	addss  %xmm4,%xmm8
    3acc:	41 0f 28 e5          	movaps %xmm13,%xmm4
    3ad0:	f3 0f 59 c2          	mulss  %xmm2,%xmm0
    3ad4:	f3 0f 59 e3          	mulss  %xmm3,%xmm4
    3ad8:	f3 44 0f 58 c4       	addss  %xmm4,%xmm8
    3add:	41 0f 28 e5          	movaps %xmm13,%xmm4
    3ae1:	f3 0f 59 e6          	mulss  %xmm6,%xmm4
    3ae5:	f3 0f 59 f1          	mulss  %xmm1,%xmm6
    3ae9:	f3 44 0f 5c cc       	subss  %xmm4,%xmm9
    3aee:	41 0f 28 e6          	movaps %xmm14,%xmm4
    3af2:	f3 0f 58 c6          	addss  %xmm6,%xmm0
    3af6:	f3 0f 59 e3          	mulss  %xmm3,%xmm4
    3afa:	f3 41 0f 59 da       	mulss  %xmm10,%xmm3
    3aff:	f3 44 0f 59 ca       	mulss  %xmm2,%xmm9
    3b04:	f3 0f 58 d8          	addss  %xmm0,%xmm3
    3b08:	f3 41 0f 5c f9       	subss  %xmm9,%xmm7
    3b0d:	0f 28 c3             	movaps %xmm3,%xmm0
    3b10:	f3 0f 58 fc          	addss  %xmm4,%xmm7
    3b14:	f3 0f 59 c3          	mulss  %xmm3,%xmm0
    3b18:	0f 28 cf             	movaps %xmm7,%xmm1
    3b1b:	f3 0f 59 cf          	mulss  %xmm7,%xmm1
    3b1f:	f3 0f 58 c1          	addss  %xmm1,%xmm0
    3b23:	41 0f 28 c8          	movaps %xmm8,%xmm1
    3b27:	f3 41 0f 59 c8       	mulss  %xmm8,%xmm1
    3b2c:	f3 0f 58 c1          	addss  %xmm1,%xmm0
    3b30:	0f 2e e8             	ucomiss %xmm0,%xmm5
    3b33:	f3 0f 51 c8          	sqrtss %xmm0,%xmm1
    3b37:	0f 87 ae 0c 00 00    	ja     47eb <_Z11path_tracerjR7MeshBVHR11StartupData+0x199b>
    3b3d:	f3 0f 5e f9          	divss  %xmm1,%xmm7
    3b41:	f3 0f 10 2d 23 65 00 	movss  0x6523(%rip),%xmm5        # a06c <_ZTSNSt6thread11_State_implINS_8_InvokerISt5tupleIJPFv11StartupData7MeshBVHES3_S4_EEEEEE+0x8c>
    3b48:	00 
    3b49:	f3 41 0f 10 77 70    	movss  0x70(%r15),%xmm6
    3b4f:	49 8b 45 08          	mov    0x8(%r13),%rax
    3b53:	f3 0f 11 74 24 2c    	movss  %xmm6,0x2c(%rsp)
    3b59:	f3 0f 10 50 0c       	movss  0xc(%rax),%xmm2
    3b5e:	f3 0f 59 6c 24 68    	mulss  0x68(%rsp),%xmm5
    3b64:	f3 0f 5e d9          	divss  %xmm1,%xmm3
    3b68:	f3 0f 11 7c 24 1c    	movss  %xmm7,0x1c(%rsp)
    3b6e:	f3 41 0f 10 7f 74    	movss  0x74(%r15),%xmm7
    3b74:	f3 0f 11 7c 24 28    	movss  %xmm7,0x28(%rsp)
    3b7a:	f3 0f 10 3d b6 64 00 	movss  0x64b6(%rip),%xmm7        # a038 <_ZTSNSt6thread11_State_implINS_8_InvokerISt5tupleIJPFv11StartupData7MeshBVHES3_S4_EEEEEE+0x58>
    3b81:	00 
    3b82:	f3 0f 11 6c 24 68    	movss  %xmm5,0x68(%rsp)
    3b88:	f3 41 0f 10 6f 6c    	movss  0x6c(%r15),%xmm5
    3b8e:	f3 0f 11 6c 24 24    	movss  %xmm5,0x24(%rsp)
    3b94:	f3 0f 5e fe          	divss  %xmm6,%xmm7
    3b98:	f3 0f 10 35 98 64 00 	movss  0x6498(%rip),%xmm6        # a038 <_ZTSNSt6thread11_State_implINS_8_InvokerISt5tupleIJPFv11StartupData7MeshBVHES3_S4_EEEEEE+0x58>
    3b9f:	00 
    3ba0:	f3 0f 11 5c 24 20    	movss  %xmm3,0x20(%rsp)
    3ba6:	f3 0f 10 18          	movss  (%rax),%xmm3
    3baa:	f3 0f 5e f5          	divss  %xmm5,%xmm6
    3bae:	f3 0f 11 7c 24 48    	movss  %xmm7,0x48(%rsp)
    3bb4:	f3 0f 10 7c 24 08    	movss  0x8(%rsp),%xmm7
    3bba:	f3 0f 5c df          	subss  %xmm7,%xmm3
    3bbe:	f3 0f 5c d7          	subss  %xmm7,%xmm2
    3bc2:	f3 44 0f 5e c1       	divss  %xmm1,%xmm8
    3bc7:	f3 0f 11 74 24 5c    	movss  %xmm6,0x5c(%rsp)
    3bcd:	f3 0f 59 de          	mulss  %xmm6,%xmm3
    3bd1:	f3 0f 59 d6          	mulss  %xmm6,%xmm2
    3bd5:	f3 44 0f 11 44 24 18 	movss  %xmm8,0x18(%rsp)
    3bdc:	0f 2e da             	ucomiss %xmm2,%xmm3
    3bdf:	77 09                	ja     3bea <_Z11path_tracerjR7MeshBVHR11StartupData+0xd9a>
    3be1:	0f 28 c2             	movaps %xmm2,%xmm0
    3be4:	0f 28 d3             	movaps %xmm3,%xmm2
    3be7:	0f 28 d8             	movaps %xmm0,%xmm3
    3bea:	f3 0f 10 74 24 0c    	movss  0xc(%rsp),%xmm6
    3bf0:	f3 0f 10 40 04       	movss  0x4(%rax),%xmm0
    3bf5:	f3 0f 10 48 10       	movss  0x10(%rax),%xmm1
    3bfa:	f3 0f 5c c6          	subss  %xmm6,%xmm0
    3bfe:	f3 0f 5c ce          	subss  %xmm6,%xmm1
    3c02:	f3 0f 10 6c 24 48    	movss  0x48(%rsp),%xmm5
    3c08:	f3 0f 59 c5          	mulss  %xmm5,%xmm0
    3c0c:	f3 0f 59 cd          	mulss  %xmm5,%xmm1
    3c10:	0f 2e c1             	ucomiss %xmm1,%xmm0
    3c13:	77 09                	ja     3c1e <_Z11path_tracerjR7MeshBVHR11StartupData+0xdce>
    3c15:	0f 28 e1             	movaps %xmm1,%xmm4
    3c18:	0f 28 c8             	movaps %xmm0,%xmm1
    3c1b:	0f 28 c4             	movaps %xmm4,%xmm0
    3c1e:	0f 2e d0             	ucomiss %xmm0,%xmm2
    3c21:	0f 87 99 08 00 00    	ja     44c0 <_Z11path_tracerjR7MeshBVHR11StartupData+0x1670>
    3c27:	0f 2e cb             	ucomiss %xmm3,%xmm1
    3c2a:	0f 87 90 08 00 00    	ja     44c0 <_Z11path_tracerjR7MeshBVHR11StartupData+0x1670>
    3c30:	f3 0f 10 2d 00 64 00 	movss  0x6400(%rip),%xmm5        # a038 <_ZTSNSt6thread11_State_implINS_8_InvokerISt5tupleIJPFv11StartupData7MeshBVHES3_S4_EEEEEE+0x58>
    3c37:	00 
    3c38:	f3 0f 5f ca          	maxss  %xmm2,%xmm1
    3c3c:	f3 0f 5e 6c 24 28    	divss  0x28(%rsp),%xmm5
    3c42:	f3 0f 10 74 24 14    	movss  0x14(%rsp),%xmm6
    3c48:	f3 0f 5d c3          	minss  %xmm3,%xmm0
    3c4c:	f3 0f 10 50 14       	movss  0x14(%rax),%xmm2
    3c51:	f3 0f 10 58 08       	movss  0x8(%rax),%xmm3
    3c56:	f3 0f 5c d6          	subss  %xmm6,%xmm2
    3c5a:	f3 0f 5c de          	subss  %xmm6,%xmm3
    3c5e:	f3 0f 59 d5          	mulss  %xmm5,%xmm2
    3c62:	f3 0f 11 6c 24 78    	movss  %xmm5,0x78(%rsp)
    3c68:	f3 0f 59 dd          	mulss  %xmm5,%xmm3
    3c6c:	0f 2e da             	ucomiss %xmm2,%xmm3
    3c6f:	77 09                	ja     3c7a <_Z11path_tracerjR7MeshBVHR11StartupData+0xe2a>
    3c71:	0f 28 e2             	movaps %xmm2,%xmm4
    3c74:	0f 28 d3             	movaps %xmm3,%xmm2
    3c77:	0f 28 dc             	movaps %xmm4,%xmm3
    3c7a:	0f 2e cb             	ucomiss %xmm3,%xmm1
    3c7d:	0f 87 3d 08 00 00    	ja     44c0 <_Z11path_tracerjR7MeshBVHR11StartupData+0x1670>
    3c83:	0f 2e d0             	ucomiss %xmm0,%xmm2
    3c86:	0f 87 34 08 00 00    	ja     44c0 <_Z11path_tracerjR7MeshBVHR11StartupData+0x1670>
    3c8c:	f3 0f 5d d8          	minss  %xmm0,%xmm3
    3c90:	f3 0f 10 2d b0 63 00 	movss  0x63b0(%rip),%xmm5        # a048 <_ZTSNSt6thread11_State_implINS_8_InvokerISt5tupleIJPFv11StartupData7MeshBVHES3_S4_EEEEEE+0x68>
    3c97:	00 
    3c98:	f3 0f 5f d1          	maxss  %xmm1,%xmm2
    3c9c:	0f 2e eb             	ucomiss %xmm3,%xmm5
    3c9f:	0f 87 1b 08 00 00    	ja     44c0 <_Z11path_tracerjR7MeshBVHR11StartupData+0x1670>
    3ca5:	0f 2e 15 94 63 00 00 	ucomiss 0x6394(%rip),%xmm2        # a040 <_ZTSNSt6thread11_State_implINS_8_InvokerISt5tupleIJPFv11StartupData7MeshBVHES3_S4_EEEEEE+0x60>
    3cac:	0f 83 0e 08 00 00    	jae    44c0 <_Z11path_tracerjR7MeshBVHR11StartupData+0x1670>
    3cb2:	f3 44 0f 10 35 85 63 	movss  0x6385(%rip),%xmm14        # a040 <_ZTSNSt6thread11_State_implINS_8_InvokerISt5tupleIJPFv11StartupData7MeshBVHES3_S4_EEEEEE+0x60>
    3cb9:	00 00 
    3cbb:	48 8d 8c 24 a0 00 00 	lea    0xa0(%rsp),%rcx
    3cc2:	00 
    3cc3:	c7 84 24 a4 00 00 00 	movl   $0x0,0xa4(%rsp)
    3cca:	00 00 00 00 
    3cce:	f3 0f 11 94 24 a0 00 	movss  %xmm2,0xa0(%rsp)
    3cd5:	00 00 
    3cd7:	31 db                	xor    %ebx,%ebx
    3cd9:	45 31 c9             	xor    %r9d,%r9d
    3cdc:	f3 44 0f 11 74 24 10 	movss  %xmm14,0x10(%rsp)
    3ce3:	0f 2e 54 24 10       	ucomiss 0x10(%rsp),%xmm2
    3ce8:	45 8d 61 ff          	lea    -0x1(%r9),%r12d
    3cec:	0f 83 08 06 00 00    	jae    42fa <_Z11path_tracerjR7MeshBVHR11StartupData+0x14aa>
    3cf2:	49 8b 45 08          	mov    0x8(%r13),%rax
    3cf6:	48 c1 e3 05          	shl    $0x5,%rbx
    3cfa:	48 01 c3             	add    %rax,%rbx
    3cfd:	80 7b 1c 00          	cmpb   $0x0,0x1c(%rbx)
    3d01:	8b 53 18             	mov    0x18(%rbx),%edx
    3d04:	0f 84 c6 03 00 00    	je     40d0 <_Z11path_tracerjR7MeshBVHR11StartupData+0x1280>
    3d0a:	31 ed                	xor    %ebp,%ebp
    3d0c:	e9 dc 00 00 00       	jmpq   3ded <_Z11path_tracerjR7MeshBVHR11StartupData+0xf9d>
    3d11:	0f 1f 80 00 00 00 00 	nopl   0x0(%rax)
    3d18:	45 0f 2e e6          	ucomiss %xmm14,%xmm12
    3d1c:	0f 86 b5 02 00 00    	jbe    3fd7 <_Z11path_tracerjR7MeshBVHR11StartupData+0x1187>
    3d22:	44 0f 28 e1          	movaps %xmm1,%xmm12
    3d26:	41 0f 28 d8          	movaps %xmm8,%xmm3
    3d2a:	f3 0f 10 7c 24 44    	movss  0x44(%rsp),%xmm7
    3d30:	f3 44 0f 10 54 24 40 	movss  0x40(%rsp),%xmm10
    3d37:	f3 44 0f 10 6c 24 60 	movss  0x60(%rsp),%xmm13
    3d3e:	f3 45 0f 5c cf       	subss  %xmm15,%xmm9
    3d43:	66 45 0f ef f6       	pxor   %xmm14,%xmm14
    3d48:	f3 41 0f 5c fd       	subss  %xmm13,%xmm7
    3d4d:	f3 45 0f 5c df       	subss  %xmm15,%xmm11
    3d52:	f3 45 0f 5c d5       	subss  %xmm13,%xmm10
    3d57:	41 0f 28 e9          	movaps %xmm9,%xmm5
    3d5b:	44 0f 28 c7          	movaps %xmm7,%xmm8
    3d5f:	f3 41 0f 59 ea       	mulss  %xmm10,%xmm5
    3d64:	f3 45 0f 59 c3       	mulss  %xmm11,%xmm8
    3d69:	f3 41 0f 5c e8       	subss  %xmm8,%xmm5
    3d6e:	f3 41 0f 5e ec       	divss  %xmm12,%xmm5
    3d73:	41 0f 2e ee          	ucomiss %xmm14,%xmm5
    3d77:	72 4f                	jb     3dc8 <_Z11path_tracerjR7MeshBVHR11StartupData+0xf78>
    3d79:	f3 41 0f 5c f7       	subss  %xmm15,%xmm6
    3d7e:	66 0f ef ed          	pxor   %xmm5,%xmm5
    3d82:	f3 41 0f 5c dd       	subss  %xmm13,%xmm3
    3d87:	f3 0f 59 fe          	mulss  %xmm6,%xmm7
    3d8b:	f3 44 0f 59 cb       	mulss  %xmm3,%xmm9
    3d90:	f3 41 0f 5c f9       	subss  %xmm9,%xmm7
    3d95:	f3 41 0f 5e fc       	divss  %xmm12,%xmm7
    3d9a:	0f 2e fd             	ucomiss %xmm5,%xmm7
    3d9d:	72 29                	jb     3dc8 <_Z11path_tracerjR7MeshBVHR11StartupData+0xf78>
    3d9f:	f3 44 0f 59 d6       	mulss  %xmm6,%xmm10
    3da4:	f3 44 0f 59 db       	mulss  %xmm3,%xmm11
    3da9:	66 0f ef f6          	pxor   %xmm6,%xmm6
    3dad:	f3 45 0f 5c da       	subss  %xmm10,%xmm11
    3db2:	f3 45 0f 5e dc       	divss  %xmm12,%xmm11
    3db7:	44 0f 2e de          	ucomiss %xmm6,%xmm11
    3dbb:	0f 83 df 07 00 00    	jae    45a0 <_Z11path_tracerjR7MeshBVHR11StartupData+0x1750>
    3dc1:	0f 1f 80 00 00 00 00 	nopl   0x0(%rax)
    3dc8:	f3 0f 10 35 70 62 00 	movss  0x6270(%rip),%xmm6        # a040 <_ZTSNSt6thread11_State_implINS_8_InvokerISt5tupleIJPFv11StartupData7MeshBVHES3_S4_EEEEEE+0x60>
    3dcf:	00 
    3dd0:	0f 2e 74 24 10       	ucomiss 0x10(%rsp),%xmm6
    3dd5:	0f 87 45 05 00 00    	ja     4320 <_Z11path_tracerjR7MeshBVHR11StartupData+0x14d0>
    3ddb:	0f b6 43 1d          	movzbl 0x1d(%rbx),%eax
    3ddf:	83 c5 01             	add    $0x1,%ebp
    3de2:	39 e8                	cmp    %ebp,%eax
    3de4:	0f 82 10 05 00 00    	jb     42fa <_Z11path_tracerjR7MeshBVHR11StartupData+0x14aa>
    3dea:	8b 53 18             	mov    0x18(%rbx),%edx
    3ded:	49 8b 45 00          	mov    0x0(%r13),%rax
    3df1:	01 ea                	add    %ebp,%edx
    3df3:	48 8d 34 52          	lea    (%rdx,%rdx,2),%rsi
    3df7:	f3 44 0f 10 74 24 2c 	movss  0x2c(%rsp),%xmm14
    3dfe:	48 8b 10             	mov    (%rax),%rdx
    3e01:	48 8b 40 48          	mov    0x48(%rax),%rax
    3e05:	48 8d 14 b2          	lea    (%rdx,%rsi,4),%rdx
    3e09:	8b 32                	mov    (%rdx),%esi
    3e0b:	48 8d 34 76          	lea    (%rsi,%rsi,2),%rsi
    3e0f:	48 8d 34 b0          	lea    (%rax,%rsi,4),%rsi
    3e13:	f3 0f 10 1e          	movss  (%rsi),%xmm3
    3e17:	f3 44 0f 10 46 04    	movss  0x4(%rsi),%xmm8
    3e1d:	f3 0f 10 76 08       	movss  0x8(%rsi),%xmm6
    3e22:	8b 72 04             	mov    0x4(%rdx),%esi
    3e25:	8b 52 08             	mov    0x8(%rdx),%edx
    3e28:	48 8d 34 76          	lea    (%rsi,%rsi,2),%rsi
    3e2c:	48 8d 14 52          	lea    (%rdx,%rdx,2),%rdx
    3e30:	48 8d 34 b0          	lea    (%rax,%rsi,4),%rsi
    3e34:	48 8d 04 90          	lea    (%rax,%rdx,4),%rax
    3e38:	f3 0f 10 56 04       	movss  0x4(%rsi),%xmm2
    3e3d:	f3 0f 11 54 24 40    	movss  %xmm2,0x40(%rsp)
    3e43:	f3 41 0f 5c d0       	subss  %xmm8,%xmm2
    3e48:	f3 0f 10 68 04       	movss  0x4(%rax),%xmm5
    3e4d:	0f 28 e5             	movaps %xmm5,%xmm4
    3e50:	f3 44 0f 10 16       	movss  (%rsi),%xmm10
    3e55:	f3 44 0f 10 5e 08    	movss  0x8(%rsi),%xmm11
    3e5b:	f3 44 0f 10 48 08    	movss  0x8(%rax),%xmm9
    3e61:	44 0f 28 ea          	movaps %xmm2,%xmm13
    3e65:	f3 41 0f 5c e0       	subss  %xmm8,%xmm4
    3e6a:	41 0f 28 c9          	movaps %xmm9,%xmm1
    3e6e:	45 0f 28 e3          	movaps %xmm11,%xmm12
    3e72:	f3 0f 11 6c 24 44    	movss  %xmm5,0x44(%rsp)
    3e78:	41 0f 28 d2          	movaps %xmm10,%xmm2
    3e7c:	f3 44 0f 5c e6       	subss  %xmm6,%xmm12
    3e81:	f3 0f 10 38          	movss  (%rax),%xmm7
    3e85:	f3 0f 5c ce          	subss  %xmm6,%xmm1
    3e89:	0f 28 c4             	movaps %xmm4,%xmm0
    3e8c:	f3 0f 5c d3          	subss  %xmm3,%xmm2
    3e90:	0f 28 ef             	movaps %xmm7,%xmm5
    3e93:	f3 41 0f 59 e4       	mulss  %xmm12,%xmm4
    3e98:	f3 0f 5c eb          	subss  %xmm3,%xmm5
    3e9c:	f3 0f 59 c2          	mulss  %xmm2,%xmm0
    3ea0:	f3 0f 59 d1          	mulss  %xmm1,%xmm2
    3ea4:	f3 41 0f 59 cd       	mulss  %xmm13,%xmm1
    3ea9:	44 0f 28 fd          	movaps %xmm5,%xmm15
    3ead:	f3 41 0f 59 ec       	mulss  %xmm12,%xmm5
    3eb2:	f3 45 0f 59 fd       	mulss  %xmm13,%xmm15
    3eb7:	f3 44 0f 10 6c 24 24 	movss  0x24(%rsp),%xmm13
    3ebe:	f3 0f 5c cc          	subss  %xmm4,%xmm1
    3ec2:	0f 28 e3             	movaps %xmm3,%xmm4
    3ec5:	f3 0f 5c d5          	subss  %xmm5,%xmm2
    3ec9:	0f 28 6c 24 30       	movaps 0x30(%rsp),%xmm5
    3ece:	f3 0f 5c 64 24 08    	subss  0x8(%rsp),%xmm4
    3ed4:	f3 41 0f 5c c7       	subss  %xmm15,%xmm0
    3ed9:	f3 44 0f 10 7c 24 28 	movss  0x28(%rsp),%xmm15
    3ee0:	f3 44 0f 59 e9       	mulss  %xmm1,%xmm13
    3ee5:	0f 57 ea             	xorps  %xmm2,%xmm5
    3ee8:	f3 0f 59 e1          	mulss  %xmm1,%xmm4
    3eec:	44 0f 28 e4          	movaps %xmm4,%xmm12
    3ef0:	41 0f 28 e0          	movaps %xmm8,%xmm4
    3ef4:	f3 0f 5c 64 24 0c    	subss  0xc(%rsp),%xmm4
    3efa:	f3 0f 59 e5          	mulss  %xmm5,%xmm4
    3efe:	f3 41 0f 58 e4       	addss  %xmm12,%xmm4
    3f03:	44 0f 28 e6          	movaps %xmm6,%xmm12
    3f07:	f3 44 0f 5c 64 24 14 	subss  0x14(%rsp),%xmm12
    3f0e:	f3 44 0f 59 e0       	mulss  %xmm0,%xmm12
    3f13:	f3 41 0f 58 e4       	addss  %xmm12,%xmm4
    3f18:	45 0f 28 e6          	movaps %xmm14,%xmm12
    3f1c:	f3 44 0f 59 e5       	mulss  %xmm5,%xmm12
    3f21:	f3 45 0f 58 e5       	addss  %xmm13,%xmm12
    3f26:	45 0f 28 ef          	movaps %xmm15,%xmm13
    3f2a:	f3 44 0f 59 e8       	mulss  %xmm0,%xmm13
    3f2f:	f3 45 0f 58 e5       	addss  %xmm13,%xmm12
    3f34:	f3 41 0f 5e e4       	divss  %xmm12,%xmm4
    3f39:	0f 2e 25 08 61 00 00 	ucomiss 0x6108(%rip),%xmm4        # a048 <_ZTSNSt6thread11_State_implINS_8_InvokerISt5tupleIJPFv11StartupData7MeshBVHES3_S4_EEEEEE+0x68>
    3f40:	0f 86 82 fe ff ff    	jbe    3dc8 <_Z11path_tracerjR7MeshBVHR11StartupData+0xf78>
    3f46:	f3 44 0f 10 64 24 10 	movss  0x10(%rsp),%xmm12
    3f4d:	44 0f 2e e4          	ucomiss %xmm4,%xmm12
    3f51:	0f 86 71 fe ff ff    	jbe    3dc8 <_Z11path_tracerjR7MeshBVHR11StartupData+0xf78>
    3f57:	45 0f 28 e6          	movaps %xmm14,%xmm12
    3f5b:	f3 44 0f 10 6c 24 0c 	movss  0xc(%rsp),%xmm13
    3f62:	f3 0f 2c c1          	cvttss2si %xmm1,%eax
    3f66:	f3 44 0f 59 fc       	mulss  %xmm4,%xmm15
    3f6b:	f3 44 0f 59 e4       	mulss  %xmm4,%xmm12
    3f70:	66 45 0f ef f6       	pxor   %xmm14,%xmm14
    3f75:	f3 44 0f 58 7c 24 14 	addss  0x14(%rsp),%xmm15
    3f7c:	f3 45 0f 58 ec       	addss  %xmm12,%xmm13
    3f81:	f3 44 0f 10 64 24 24 	movss  0x24(%rsp),%xmm12
    3f88:	f3 44 0f 59 e4       	mulss  %xmm4,%xmm12
    3f8d:	f3 44 0f 11 6c 24 60 	movss  %xmm13,0x60(%rsp)
    3f94:	f3 44 0f 58 64 24 08 	addss  0x8(%rsp),%xmm12
    3f9b:	99                   	cltd   
    3f9c:	31 d0                	xor    %edx,%eax
    3f9e:	29 d0                	sub    %edx,%eax
    3fa0:	45 0f 28 ec          	movaps %xmm12,%xmm13
    3fa4:	66 45 0f ef e4       	pxor   %xmm12,%xmm12
    3fa9:	f3 44 0f 2a e0       	cvtsi2ss %eax,%xmm12
    3fae:	f3 0f 2c c5          	cvttss2si %xmm5,%eax
    3fb2:	66 0f ef ed          	pxor   %xmm5,%xmm5
    3fb6:	99                   	cltd   
    3fb7:	31 d0                	xor    %edx,%eax
    3fb9:	29 d0                	sub    %edx,%eax
    3fbb:	f3 0f 2a e8          	cvtsi2ss %eax,%xmm5
    3fbf:	f3 0f 2c c0          	cvttss2si %xmm0,%eax
    3fc3:	99                   	cltd   
    3fc4:	31 d0                	xor    %edx,%eax
    3fc6:	29 d0                	sub    %edx,%eax
    3fc8:	44 0f 2e e5          	ucomiss %xmm5,%xmm12
    3fcc:	f3 44 0f 2a f0       	cvtsi2ss %eax,%xmm14
    3fd1:	0f 87 41 fd ff ff    	ja     3d18 <_Z11path_tracerjR7MeshBVHR11StartupData+0xec8>
    3fd7:	41 0f 2e ee          	ucomiss %xmm14,%xmm5
    3fdb:	44 0f 28 e2          	movaps %xmm2,%xmm12
    3fdf:	0f 87 59 fd ff ff    	ja     3d3e <_Z11path_tracerjR7MeshBVHR11StartupData+0xeee>
    3fe5:	44 0f 28 e0          	movaps %xmm0,%xmm12
    3fe9:	f3 44 0f 10 4c 24 44 	movss  0x44(%rsp),%xmm9
    3ff0:	f3 44 0f 10 5c 24 40 	movss  0x40(%rsp),%xmm11
    3ff7:	41 0f 28 f0          	movaps %xmm8,%xmm6
    3ffb:	f3 44 0f 10 7c 24 60 	movss  0x60(%rsp),%xmm15
    4002:	e9 37 fd ff ff       	jmpq   3d3e <_Z11path_tracerjR7MeshBVHR11StartupData+0xeee>
    4007:	66 0f 1f 84 00 00 00 	nopw   0x0(%rax,%rax,1)
    400e:	00 00 
    4010:	44 89 e0             	mov    %r12d,%eax
    4013:	f3 42 0f 11 ac cc a0 	movss  %xmm5,0xa0(%rsp,%r9,8)
    401a:	00 00 00 
    401d:	42 89 8c cc a4 00 00 	mov    %ecx,0xa4(%rsp,%r9,8)
    4024:	00 
    4025:	f3 0f 11 a4 c4 a0 00 	movss  %xmm4,0xa0(%rsp,%rax,8)
    402c:	00 00 
    402e:	44 89 94 c4 a4 00 00 	mov    %r10d,0xa4(%rsp,%rax,8)
    4035:	00 
    4036:	e9 84 f4 ff ff       	jmpq   34bf <_Z11path_tracerjR7MeshBVHR11StartupData+0x66f>
    403b:	0f 1f 44 00 00       	nopl   0x0(%rax,%rax,1)
    4040:	0f 28 c1             	movaps %xmm1,%xmm0
    4043:	f3 45 0f 59 ff       	mulss  %xmm15,%xmm15
    4048:	f3 0f 59 c1          	mulss  %xmm1,%xmm0
    404c:	f3 44 0f 58 f8       	addss  %xmm0,%xmm15
    4051:	0f 28 c2             	movaps %xmm2,%xmm0
    4054:	f3 0f 59 c2          	mulss  %xmm2,%xmm0
    4058:	f3 41 0f 58 c7       	addss  %xmm15,%xmm0
    405d:	0f 2e f0             	ucomiss %xmm0,%xmm6
    4060:	f3 0f 51 e8          	sqrtss %xmm0,%xmm5
    4064:	0f 87 a7 08 00 00    	ja     4911 <_Z11path_tracerjR7MeshBVHR11StartupData+0x1ac1>
    406a:	f3 0f 5e cd          	divss  %xmm5,%xmm1
    406e:	0f 28 fa             	movaps %xmm2,%xmm7
    4071:	0f 28 f4             	movaps %xmm4,%xmm6
    4074:	f3 0f 5e fd          	divss  %xmm5,%xmm7
    4078:	f3 0f 11 4c 24 4c    	movss  %xmm1,0x4c(%rsp)
    407e:	f3 0f 5e f5          	divss  %xmm5,%xmm6
    4082:	0f 28 e9             	movaps %xmm1,%xmm5
    4085:	f3 0f 11 7c 24 50    	movss  %xmm7,0x50(%rsp)
    408b:	66 0f ef c9          	pxor   %xmm1,%xmm1
    408f:	0f 2e 4c 24 10       	ucomiss 0x10(%rsp),%xmm1
    4094:	f3 0f 11 74 24 58    	movss  %xmm6,0x58(%rsp)
    409a:	77 27                	ja     40c3 <_Z11path_tracerjR7MeshBVHR11StartupData+0x1273>
    409c:	0f 57 3d ed 5f 00 00 	xorps  0x5fed(%rip),%xmm7        # a090 <_ZTSNSt6thread11_State_implINS_8_InvokerISt5tupleIJPFv11StartupData7MeshBVHES3_S4_EEEEEE+0xb0>
    40a3:	0f 57 35 e6 5f 00 00 	xorps  0x5fe6(%rip),%xmm6        # a090 <_ZTSNSt6thread11_State_implINS_8_InvokerISt5tupleIJPFv11StartupData7MeshBVHES3_S4_EEEEEE+0xb0>
    40aa:	0f 57 2d df 5f 00 00 	xorps  0x5fdf(%rip),%xmm5        # a090 <_ZTSNSt6thread11_State_implINS_8_InvokerISt5tupleIJPFv11StartupData7MeshBVHES3_S4_EEEEEE+0xb0>
    40b1:	f3 0f 11 7c 24 50    	movss  %xmm7,0x50(%rsp)
    40b7:	f3 0f 11 74 24 58    	movss  %xmm6,0x58(%rsp)
    40bd:	f3 0f 11 6c 24 4c    	movss  %xmm5,0x4c(%rsp)
    40c3:	f3 0f 11 5c 24 24    	movss  %xmm3,0x24(%rsp)
    40c9:	e9 e2 f3 ff ff       	jmpq   34b0 <_Z11path_tracerjR7MeshBVHR11StartupData+0x660>
    40ce:	66 90                	xchg   %ax,%ax
    40d0:	89 d6                	mov    %edx,%esi
    40d2:	f3 0f 10 7c 24 08    	movss  0x8(%rsp),%xmm7
    40d8:	48 c1 e6 05          	shl    $0x5,%rsi
    40dc:	f3 0f 10 6c 24 5c    	movss  0x5c(%rsp),%xmm5
    40e2:	48 01 c6             	add    %rax,%rsi
    40e5:	44 8d 52 01          	lea    0x1(%rdx),%r10d
    40e9:	f3 0f 10 1e          	movss  (%rsi),%xmm3
    40ed:	f3 0f 10 56 0c       	movss  0xc(%rsi),%xmm2
    40f2:	f3 0f 5c df          	subss  %xmm7,%xmm3
    40f6:	f3 0f 5c d7          	subss  %xmm7,%xmm2
    40fa:	f3 0f 59 dd          	mulss  %xmm5,%xmm3
    40fe:	f3 0f 59 d5          	mulss  %xmm5,%xmm2
    4102:	0f 2e da             	ucomiss %xmm2,%xmm3
    4105:	77 09                	ja     4110 <_Z11path_tracerjR7MeshBVHR11StartupData+0x12c0>
    4107:	0f 28 c2             	movaps %xmm2,%xmm0
    410a:	0f 28 d3             	movaps %xmm3,%xmm2
    410d:	0f 28 d8             	movaps %xmm0,%xmm3
    4110:	f3 0f 10 74 24 0c    	movss  0xc(%rsp),%xmm6
    4116:	f3 0f 10 46 04       	movss  0x4(%rsi),%xmm0
    411b:	f3 0f 10 4e 10       	movss  0x10(%rsi),%xmm1
    4120:	f3 0f 5c c6          	subss  %xmm6,%xmm0
    4124:	f3 0f 5c ce          	subss  %xmm6,%xmm1
    4128:	f3 0f 10 7c 24 48    	movss  0x48(%rsp),%xmm7
    412e:	f3 0f 59 c7          	mulss  %xmm7,%xmm0
    4132:	f3 0f 59 cf          	mulss  %xmm7,%xmm1
    4136:	0f 2e c1             	ucomiss %xmm1,%xmm0
    4139:	77 09                	ja     4144 <_Z11path_tracerjR7MeshBVHR11StartupData+0x12f4>
    413b:	0f 28 e1             	movaps %xmm1,%xmm4
    413e:	0f 28 c8             	movaps %xmm0,%xmm1
    4141:	0f 28 c4             	movaps %xmm4,%xmm0
    4144:	0f 2e d0             	ucomiss %xmm0,%xmm2
    4147:	f3 0f 10 2d f1 5e 00 	movss  0x5ef1(%rip),%xmm5        # a040 <_ZTSNSt6thread11_State_implINS_8_InvokerISt5tupleIJPFv11StartupData7MeshBVHES3_S4_EEEEEE+0x60>
    414e:	00 
    414f:	77 7f                	ja     41d0 <_Z11path_tracerjR7MeshBVHR11StartupData+0x1380>
    4151:	0f 2e cb             	ucomiss %xmm3,%xmm1
    4154:	77 7a                	ja     41d0 <_Z11path_tracerjR7MeshBVHR11StartupData+0x1380>
    4156:	f3 0f 10 74 24 14    	movss  0x14(%rsp),%xmm6
    415c:	f3 0f 5f ca          	maxss  %xmm2,%xmm1
    4160:	f3 0f 10 6e 14       	movss  0x14(%rsi),%xmm5
    4165:	f3 0f 5d c3          	minss  %xmm3,%xmm0
    4169:	f3 0f 10 56 08       	movss  0x8(%rsi),%xmm2
    416e:	f3 0f 5c ee          	subss  %xmm6,%xmm5
    4172:	f3 0f 5c d6          	subss  %xmm6,%xmm2
    4176:	f3 0f 10 7c 24 78    	movss  0x78(%rsp),%xmm7
    417c:	f3 0f 59 ef          	mulss  %xmm7,%xmm5
    4180:	f3 0f 59 d7          	mulss  %xmm7,%xmm2
    4184:	0f 2e d5             	ucomiss %xmm5,%xmm2
    4187:	77 09                	ja     4192 <_Z11path_tracerjR7MeshBVHR11StartupData+0x1342>
    4189:	0f 28 dd             	movaps %xmm5,%xmm3
    418c:	0f 28 ea             	movaps %xmm2,%xmm5
    418f:	0f 28 d3             	movaps %xmm3,%xmm2
    4192:	0f 2e ca             	ucomiss %xmm2,%xmm1
    4195:	0f 87 bd 05 00 00    	ja     4758 <_Z11path_tracerjR7MeshBVHR11StartupData+0x1908>
    419b:	0f 2e e8             	ucomiss %xmm0,%xmm5
    419e:	0f 87 b4 05 00 00    	ja     4758 <_Z11path_tracerjR7MeshBVHR11StartupData+0x1908>
    41a4:	f3 0f 5d d0          	minss  %xmm0,%xmm2
    41a8:	f3 0f 10 35 90 5e 00 	movss  0x5e90(%rip),%xmm6        # a040 <_ZTSNSt6thread11_State_implINS_8_InvokerISt5tupleIJPFv11StartupData7MeshBVHES3_S4_EEEEEE+0x60>
    41af:	00 
    41b0:	f3 0f 5f e9          	maxss  %xmm1,%xmm5
    41b4:	f3 0f c2 15 8b 5e 00 	cmpnltss 0x5e8b(%rip),%xmm2        # a048 <_ZTSNSt6thread11_State_implINS_8_InvokerISt5tupleIJPFv11StartupData7MeshBVHES3_S4_EEEEEE+0x68>
    41bb:	00 05 
    41bd:	0f 54 ea             	andps  %xmm2,%xmm5
    41c0:	0f 55 d6             	andnps %xmm6,%xmm2
    41c3:	0f 56 ea             	orps   %xmm2,%xmm5
    41c6:	66 2e 0f 1f 84 00 00 	nopw   %cs:0x0(%rax,%rax,1)
    41cd:	00 00 00 
    41d0:	44 89 d6             	mov    %r10d,%esi
    41d3:	f3 0f 10 74 24 08    	movss  0x8(%rsp),%xmm6
    41d9:	48 c1 e6 05          	shl    $0x5,%rsi
    41dd:	f3 0f 10 7c 24 5c    	movss  0x5c(%rsp),%xmm7
    41e3:	48 01 f0             	add    %rsi,%rax
    41e6:	f3 0f 10 18          	movss  (%rax),%xmm3
    41ea:	f3 0f 10 50 0c       	movss  0xc(%rax),%xmm2
    41ef:	f3 0f 5c de          	subss  %xmm6,%xmm3
    41f3:	f3 0f 5c d6          	subss  %xmm6,%xmm2
    41f7:	f3 0f 59 df          	mulss  %xmm7,%xmm3
    41fb:	f3 0f 59 d7          	mulss  %xmm7,%xmm2
    41ff:	0f 2e da             	ucomiss %xmm2,%xmm3
    4202:	77 09                	ja     420d <_Z11path_tracerjR7MeshBVHR11StartupData+0x13bd>
    4204:	0f 28 c2             	movaps %xmm2,%xmm0
    4207:	0f 28 d3             	movaps %xmm3,%xmm2
    420a:	0f 28 d8             	movaps %xmm0,%xmm3
    420d:	f3 0f 10 74 24 0c    	movss  0xc(%rsp),%xmm6
    4213:	f3 0f 10 40 04       	movss  0x4(%rax),%xmm0
    4218:	f3 0f 10 48 10       	movss  0x10(%rax),%xmm1
    421d:	f3 0f 5c c6          	subss  %xmm6,%xmm0
    4221:	f3 0f 5c ce          	subss  %xmm6,%xmm1
    4225:	f3 0f 10 7c 24 48    	movss  0x48(%rsp),%xmm7
    422b:	f3 0f 59 c7          	mulss  %xmm7,%xmm0
    422f:	f3 0f 59 cf          	mulss  %xmm7,%xmm1
    4233:	0f 2e c1             	ucomiss %xmm1,%xmm0
    4236:	77 09                	ja     4241 <_Z11path_tracerjR7MeshBVHR11StartupData+0x13f1>
    4238:	0f 28 e1             	movaps %xmm1,%xmm4
    423b:	0f 28 c8             	movaps %xmm0,%xmm1
    423e:	0f 28 c4             	movaps %xmm4,%xmm0
    4241:	0f 2e d0             	ucomiss %xmm0,%xmm2
    4244:	f3 0f 10 25 f4 5d 00 	movss  0x5df4(%rip),%xmm4        # a040 <_ZTSNSt6thread11_State_implINS_8_InvokerISt5tupleIJPFv11StartupData7MeshBVHES3_S4_EEEEEE+0x60>
    424b:	00 
    424c:	77 7a                	ja     42c8 <_Z11path_tracerjR7MeshBVHR11StartupData+0x1478>
    424e:	0f 2e cb             	ucomiss %xmm3,%xmm1
    4251:	77 75                	ja     42c8 <_Z11path_tracerjR7MeshBVHR11StartupData+0x1478>
    4253:	f3 0f 10 74 24 14    	movss  0x14(%rsp),%xmm6
    4259:	f3 0f 5f ca          	maxss  %xmm2,%xmm1
    425d:	f3 0f 10 60 14       	movss  0x14(%rax),%xmm4
    4262:	f3 0f 5d c3          	minss  %xmm3,%xmm0
    4266:	f3 0f 10 50 08       	movss  0x8(%rax),%xmm2
    426b:	f3 0f 5c e6          	subss  %xmm6,%xmm4
    426f:	f3 0f 5c d6          	subss  %xmm6,%xmm2
    4273:	f3 0f 10 7c 24 78    	movss  0x78(%rsp),%xmm7
    4279:	f3 0f 59 e7          	mulss  %xmm7,%xmm4
    427d:	f3 0f 59 d7          	mulss  %xmm7,%xmm2
    4281:	0f 2e d4             	ucomiss %xmm4,%xmm2
    4284:	77 09                	ja     428f <_Z11path_tracerjR7MeshBVHR11StartupData+0x143f>
    4286:	0f 28 dc             	movaps %xmm4,%xmm3
    4289:	0f 28 e2             	movaps %xmm2,%xmm4
    428c:	0f 28 d3             	movaps %xmm3,%xmm2
    428f:	0f 2e ca             	ucomiss %xmm2,%xmm1
    4292:	0f 87 d0 04 00 00    	ja     4768 <_Z11path_tracerjR7MeshBVHR11StartupData+0x1918>
    4298:	0f 2e e0             	ucomiss %xmm0,%xmm4
    429b:	0f 87 c7 04 00 00    	ja     4768 <_Z11path_tracerjR7MeshBVHR11StartupData+0x1918>
    42a1:	f3 0f 5d d0          	minss  %xmm0,%xmm2
    42a5:	f3 0f 10 3d 93 5d 00 	movss  0x5d93(%rip),%xmm7        # a040 <_ZTSNSt6thread11_State_implINS_8_InvokerISt5tupleIJPFv11StartupData7MeshBVHES3_S4_EEEEEE+0x60>
    42ac:	00 
    42ad:	f3 0f 5f e1          	maxss  %xmm1,%xmm4
    42b1:	f3 0f c2 15 8e 5d 00 	cmpnltss 0x5d8e(%rip),%xmm2        # a048 <_ZTSNSt6thread11_State_implINS_8_InvokerISt5tupleIJPFv11StartupData7MeshBVHES3_S4_EEEEEE+0x68>
    42b8:	00 05 
    42ba:	0f 54 e2             	andps  %xmm2,%xmm4
    42bd:	0f 55 d7             	andnps %xmm7,%xmm2
    42c0:	0f 56 e2             	orps   %xmm2,%xmm4
    42c3:	0f 1f 44 00 00       	nopl   0x0(%rax,%rax,1)
    42c8:	0f 2e e5             	ucomiss %xmm5,%xmm4
    42cb:	45 8d 61 01          	lea    0x1(%r9),%r12d
    42cf:	0f 86 bb 01 00 00    	jbe    4490 <_Z11path_tracerjR7MeshBVHR11StartupData+0x1640>
    42d5:	44 89 e0             	mov    %r12d,%eax
    42d8:	f3 42 0f 11 a4 cc a0 	movss  %xmm4,0xa0(%rsp,%r9,8)
    42df:	00 00 00 
    42e2:	46 89 94 cc a4 00 00 	mov    %r10d,0xa4(%rsp,%r9,8)
    42e9:	00 
    42ea:	f3 0f 11 ac c4 a0 00 	movss  %xmm5,0xa0(%rsp,%rax,8)
    42f1:	00 00 
    42f3:	89 94 c4 a4 00 00 00 	mov    %edx,0xa4(%rsp,%rax,8)
    42fa:	41 83 fc ff          	cmp    $0xffffffff,%r12d
    42fe:	74 20                	je     4320 <_Z11path_tracerjR7MeshBVHR11StartupData+0x14d0>
    4300:	44 89 e0             	mov    %r12d,%eax
    4303:	45 89 e1             	mov    %r12d,%r9d
    4306:	48 8d 04 c1          	lea    (%rcx,%rax,8),%rax
    430a:	f3 0f 10 10          	movss  (%rax),%xmm2
    430e:	8b 58 04             	mov    0x4(%rax),%ebx
    4311:	e9 cd f9 ff ff       	jmpq   3ce3 <_Z11path_tracerjR7MeshBVHR11StartupData+0xe93>
    4316:	66 2e 0f 1f 84 00 00 	nopw   %cs:0x0(%rax,%rax,1)
    431d:	00 00 00 
    4320:	f3 44 0f 10 74 24 10 	movss  0x10(%rsp),%xmm14
    4327:	44 0f 2e 35 11 5d 00 	ucomiss 0x5d11(%rip),%xmm14        # a040 <_ZTSNSt6thread11_State_implINS_8_InvokerISt5tupleIJPFv11StartupData7MeshBVHES3_S4_EEEEEE+0x60>
    432e:	00 
    432f:	0f 83 8b 01 00 00    	jae    44c0 <_Z11path_tracerjR7MeshBVHR11StartupData+0x1670>
    4335:	83 c7 01             	add    $0x1,%edi
    4338:	41 39 7f 1c          	cmp    %edi,0x1c(%r15)
    433c:	0f 87 26 ed ff ff    	ja     3068 <_Z11path_tracerjR7MeshBVHR11StartupData+0x218>
    4342:	f3 0f 10 ac 24 84 00 	movss  0x84(%rsp),%xmm5
    4349:	00 00 
    434b:	41 8b 47 18          	mov    0x18(%r15),%eax
    434f:	f3 0f 58 6c 24 74    	addss  0x74(%rsp),%xmm5
    4355:	41 83 c0 01          	add    $0x1,%r8d
    4359:	44 39 c0             	cmp    %r8d,%eax
    435c:	f3 0f 11 ac 24 84 00 	movss  %xmm5,0x84(%rsp)
    4363:	00 00 
    4365:	f3 0f 10 6c 24 7c    	movss  0x7c(%rsp),%xmm5
    436b:	f3 0f 58 6c 24 6c    	addss  0x6c(%rsp),%xmm5
    4371:	f3 0f 11 6c 24 7c    	movss  %xmm5,0x7c(%rsp)
    4377:	f3 0f 10 ac 24 80 00 	movss  0x80(%rsp),%xmm5
    437e:	00 00 
    4380:	f3 0f 58 6c 24 70    	addss  0x70(%rsp),%xmm5
    4386:	f3 0f 11 ac 24 80 00 	movss  %xmm5,0x80(%rsp)
    438d:	00 00 
    438f:	0f 87 ab eb ff ff    	ja     2f40 <_Z11path_tracerjR7MeshBVHR11StartupData+0xf0>
    4395:	66 0f ef c0          	pxor   %xmm0,%xmm0
    4399:	f3 0f 10 8c 24 84 00 	movss  0x84(%rsp),%xmm1
    43a0:	00 00 
    43a2:	f3 48 0f 2a c0       	cvtsi2ss %rax,%xmm0
    43a7:	48 8b 84 24 a8 01 00 	mov    0x1a8(%rsp),%rax
    43ae:	00 
    43af:	64 48 33 04 25 28 00 	xor    %fs:0x28,%rax
    43b6:	00 00 
    43b8:	f3 0f 5e c8          	divss  %xmm0,%xmm1
    43bc:	f3 0f 5e e8          	divss  %xmm0,%xmm5
    43c0:	f3 0f 11 8c 24 a0 00 	movss  %xmm1,0xa0(%rsp)
    43c7:	00 00 
    43c9:	f3 0f 10 4c 24 7c    	movss  0x7c(%rsp),%xmm1
    43cf:	f3 0f 5e c8          	divss  %xmm0,%xmm1
    43d3:	f3 0f 11 ac 24 a8 00 	movss  %xmm5,0xa8(%rsp)
    43da:	00 00 
    43dc:	f3 0f 11 8c 24 a4 00 	movss  %xmm1,0xa4(%rsp)
    43e3:	00 00 
    43e5:	66 0f 6e 8c 24 a8 00 	movd   0xa8(%rsp),%xmm1
    43ec:	00 00 
    43ee:	f3 0f 7e 84 24 a0 00 	movq   0xa0(%rsp),%xmm0
    43f5:	00 00 
    43f7:	0f 85 1b 07 00 00    	jne    4b18 <_Z11path_tracerjR7MeshBVHR11StartupData+0x1cc8>
    43fd:	48 81 c4 b8 01 00 00 	add    $0x1b8,%rsp
    4404:	5b                   	pop    %rbx
    4405:	5d                   	pop    %rbp
    4406:	41 5c                	pop    %r12
    4408:	41 5d                	pop    %r13
    440a:	41 5e                	pop    %r14
    440c:	41 5f                	pop    %r15
    440e:	c3                   	retq   
    440f:	90                   	nop
    4410:	f3 0f 10 2d 28 5c 00 	movss  0x5c28(%rip),%xmm5        # a040 <_ZTSNSt6thread11_State_implINS_8_InvokerISt5tupleIJPFv11StartupData7MeshBVHES3_S4_EEEEEE+0x60>
    4417:	00 
    4418:	e9 f3 f1 ff ff       	jmpq   3610 <_Z11path_tracerjR7MeshBVHR11StartupData+0x7c0>
    441d:	0f 1f 00             	nopl   (%rax)
    4420:	f3 0f 10 25 18 5c 00 	movss  0x5c18(%rip),%xmm4        # a040 <_ZTSNSt6thread11_State_implINS_8_InvokerISt5tupleIJPFv11StartupData7MeshBVHES3_S4_EEEEEE+0x60>
    4427:	00 
    4428:	e9 db f2 ff ff       	jmpq   3708 <_Z11path_tracerjR7MeshBVHR11StartupData+0x8b8>
    442d:	0f 1f 00             	nopl   (%rax)
    4430:	f3 0f 59 fc          	mulss  %xmm4,%xmm7
    4434:	66 0f ef ed          	pxor   %xmm5,%xmm5
    4438:	f3 0f 59 e4          	mulss  %xmm4,%xmm4
    443c:	66 45 0f ef d2       	pxor   %xmm10,%xmm10
    4441:	f3 0f 5c ef          	subss  %xmm7,%xmm5
    4445:	f3 0f 10 3d eb 5b 00 	movss  0x5beb(%rip),%xmm7        # a038 <_ZTSNSt6thread11_State_implINS_8_InvokerISt5tupleIJPFv11StartupData7MeshBVHES3_S4_EEEEEE+0x58>
    444c:	00 
    444d:	f3 0f 5c fc          	subss  %xmm4,%xmm7
    4451:	0f 28 e7             	movaps %xmm7,%xmm4
    4454:	f3 0f 59 ff          	mulss  %xmm7,%xmm7
    4458:	f3 0f 58 c7          	addss  %xmm7,%xmm0
    445c:	0f 28 fd             	movaps %xmm5,%xmm7
    445f:	f3 0f 59 fd          	mulss  %xmm5,%xmm7
    4463:	f3 0f 58 c7          	addss  %xmm7,%xmm0
    4467:	44 0f 2e d0          	ucomiss %xmm0,%xmm10
    446b:	f3 0f 51 f8          	sqrtss %xmm0,%xmm7
    446f:	0f 87 95 05 00 00    	ja     4a0a <_Z11path_tracerjR7MeshBVHR11StartupData+0x1bba>
    4475:	f3 0f 5e ef          	divss  %xmm7,%xmm5
    4479:	f3 0f 5e f7          	divss  %xmm7,%xmm6
    447d:	0f 28 c5             	movaps %xmm5,%xmm0
    4480:	0f 28 ee             	movaps %xmm6,%xmm5
    4483:	0f 28 f4             	movaps %xmm4,%xmm6
    4486:	f3 0f 5e f7          	divss  %xmm7,%xmm6
    448a:	e9 df f5 ff ff       	jmpq   3a6e <_Z11path_tracerjR7MeshBVHR11StartupData+0xc1e>
    448f:	90                   	nop
    4490:	44 89 e0             	mov    %r12d,%eax
    4493:	f3 42 0f 11 ac cc a0 	movss  %xmm5,0xa0(%rsp,%r9,8)
    449a:	00 00 00 
    449d:	42 89 94 cc a4 00 00 	mov    %edx,0xa4(%rsp,%r9,8)
    44a4:	00 
    44a5:	f3 0f 11 a4 c4 a0 00 	movss  %xmm4,0xa0(%rsp,%rax,8)
    44ac:	00 00 
    44ae:	44 89 94 c4 a4 00 00 	mov    %r10d,0xa4(%rsp,%rax,8)
    44b5:	00 
    44b6:	e9 3f fe ff ff       	jmpq   42fa <_Z11path_tracerjR7MeshBVHR11StartupData+0x14aa>
    44bb:	0f 1f 44 00 00       	nopl   0x0(%rax,%rax,1)
    44c0:	f3 0f 10 6c 24 2c    	movss  0x2c(%rsp),%xmm5
    44c6:	0f 28 cd             	movaps %xmm5,%xmm1
    44c9:	f3 0f 10 74 24 28    	movss  0x28(%rsp),%xmm6
    44cf:	f3 0f 59 cd          	mulss  %xmm5,%xmm1
    44d3:	f3 0f 10 6c 24 24    	movss  0x24(%rsp),%xmm5
    44d9:	0f 28 c5             	movaps %xmm5,%xmm0
    44dc:	f3 0f 59 c5          	mulss  %xmm5,%xmm0
    44e0:	66 0f ef ed          	pxor   %xmm5,%xmm5
    44e4:	f3 0f 58 c1          	addss  %xmm1,%xmm0
    44e8:	0f 28 ce             	movaps %xmm6,%xmm1
    44eb:	f3 0f 59 ce          	mulss  %xmm6,%xmm1
    44ef:	f3 0f 58 c1          	addss  %xmm1,%xmm0
    44f3:	0f 2e e8             	ucomiss %xmm0,%xmm5
    44f6:	f3 0f 51 c8          	sqrtss %xmm0,%xmm1
    44fa:	0f 87 ac 05 00 00    	ja     4aac <_Z11path_tracerjR7MeshBVHR11StartupData+0x1c5c>
    4500:	f3 0f 10 44 24 24    	movss  0x24(%rsp),%xmm0
    4506:	f3 0f 10 54 24 2c    	movss  0x2c(%rsp),%xmm2
    450c:	f3 0f 5e c1          	divss  %xmm1,%xmm0
    4510:	f3 0f 10 6c 24 28    	movss  0x28(%rsp),%xmm5
    4516:	f3 0f 5e d1          	divss  %xmm1,%xmm2
    451a:	f3 0f 5e e9          	divss  %xmm1,%xmm5
    451e:	f3 0f 10 4c 24 50    	movss  0x50(%rsp),%xmm1
    4524:	f3 0f 59 44 24 4c    	mulss  0x4c(%rsp),%xmm0
    452a:	f3 0f 59 54 24 58    	mulss  0x58(%rsp),%xmm2
    4530:	f3 0f 59 cd          	mulss  %xmm5,%xmm1
    4534:	66 0f ef ed          	pxor   %xmm5,%xmm5
    4538:	f3 0f 58 c2          	addss  %xmm2,%xmm0
    453c:	f3 0f 58 c1          	addss  %xmm1,%xmm0
    4540:	f3 0f 10 0d 24 5b 00 	movss  0x5b24(%rip),%xmm1        # a06c <_ZTSNSt6thread11_State_implINS_8_InvokerISt5tupleIJPFv11StartupData7MeshBVHES3_S4_EEEEEE+0x8c>
    4547:	00 
    4548:	f3 0f 5f c5          	maxss  %xmm5,%xmm0
    454c:	f3 0f 10 6c 24 68    	movss  0x68(%rsp),%xmm5
    4552:	f3 0f 59 cd          	mulss  %xmm5,%xmm1
    4556:	f3 0f 59 c8          	mulss  %xmm0,%xmm1
    455a:	f3 0f 58 4c 24 74    	addss  0x74(%rsp),%xmm1
    4560:	f3 0f 11 4c 24 74    	movss  %xmm1,0x74(%rsp)
    4566:	f3 0f 10 0d 02 5b 00 	movss  0x5b02(%rip),%xmm1        # a070 <_ZTSNSt6thread11_State_implINS_8_InvokerISt5tupleIJPFv11StartupData7MeshBVHES3_S4_EEEEEE+0x90>
    456d:	00 
    456e:	f3 0f 59 cd          	mulss  %xmm5,%xmm1
    4572:	f3 0f 59 2d fa 5a 00 	mulss  0x5afa(%rip),%xmm5        # a074 <_ZTSNSt6thread11_State_implINS_8_InvokerISt5tupleIJPFv11StartupData7MeshBVHES3_S4_EEEEEE+0x94>
    4579:	00 
    457a:	f3 0f 59 c8          	mulss  %xmm0,%xmm1
    457e:	f3 0f 59 c5          	mulss  %xmm5,%xmm0
    4582:	f3 0f 58 4c 24 6c    	addss  0x6c(%rsp),%xmm1
    4588:	f3 0f 58 44 24 70    	addss  0x70(%rsp),%xmm0
    458e:	f3 0f 11 4c 24 6c    	movss  %xmm1,0x6c(%rsp)
    4594:	f3 0f 11 44 24 70    	movss  %xmm0,0x70(%rsp)
    459a:	e9 96 fd ff ff       	jmpq   4335 <_Z11path_tracerjR7MeshBVHR11StartupData+0x14e5>
    459f:	90                   	nop
    45a0:	f3 0f 59 c9          	mulss  %xmm1,%xmm1
    45a4:	f3 0f 59 d2          	mulss  %xmm2,%xmm2
    45a8:	f3 0f 59 c0          	mulss  %xmm0,%xmm0
    45ac:	f3 0f 58 d1          	addss  %xmm1,%xmm2
    45b0:	f3 0f 58 c2          	addss  %xmm2,%xmm0
    45b4:	0f 2e e8             	ucomiss %xmm0,%xmm5
    45b7:	0f 87 bd 04 00 00    	ja     4a7a <_Z11path_tracerjR7MeshBVHR11StartupData+0x1c2a>
    45bd:	f3 0f 11 64 24 10    	movss  %xmm4,0x10(%rsp)
    45c3:	e9 00 f8 ff ff       	jmpq   3dc8 <_Z11path_tracerjR7MeshBVHR11StartupData+0xf78>
    45c8:	0f 1f 84 00 00 00 00 	nopl   0x0(%rax,%rax,1)
    45cf:	00 
    45d0:	f3 0f 10 3d b8 5a 00 	movss  0x5ab8(%rip),%xmm7        # a090 <_ZTSNSt6thread11_State_implINS_8_InvokerISt5tupleIJPFv11StartupData7MeshBVHES3_S4_EEEEEE+0xb0>
    45d7:	00 
    45d8:	66 0f ef c0          	pxor   %xmm0,%xmm0
    45dc:	66 0f ef d2          	pxor   %xmm2,%xmm2
    45e0:	0f 29 7c 24 30       	movaps %xmm7,0x30(%rsp)
    45e5:	e9 e0 f2 ff ff       	jmpq   38ca <_Z11path_tracerjR7MeshBVHR11StartupData+0xa7a>
    45ea:	66 0f 1f 44 00 00    	nopw   0x0(%rax,%rax,1)
    45f0:	f3 0f 5c 05 6c 5a 00 	subss  0x5a6c(%rip),%xmm0        # a064 <_ZTSNSt6thread11_State_implINS_8_InvokerISt5tupleIJPFv11StartupData7MeshBVHES3_S4_EEEEEE+0x84>
    45f7:	00 
    45f8:	f3 0f 10 3d 90 5a 00 	movss  0x5a90(%rip),%xmm7        # a090 <_ZTSNSt6thread11_State_implINS_8_InvokerISt5tupleIJPFv11StartupData7MeshBVHES3_S4_EEEEEE+0xb0>
    45ff:	00 
    4600:	0f 29 7c 24 30       	movaps %xmm7,0x30(%rsp)
    4605:	0f 28 c8             	movaps %xmm0,%xmm1
    4608:	f3 0f 59 c8          	mulss  %xmm0,%xmm1
    460c:	f3 0f 10 05 44 5a 00 	movss  0x5a44(%rip),%xmm0        # a058 <_ZTSNSt6thread11_State_implINS_8_InvokerISt5tupleIJPFv11StartupData7MeshBVHES3_S4_EEEEEE+0x78>
    4613:	00 
    4614:	f3 0f 59 c1          	mulss  %xmm1,%xmm0
    4618:	f3 0f 5c 05 3c 5a 00 	subss  0x5a3c(%rip),%xmm0        # a05c <_ZTSNSt6thread11_State_implINS_8_InvokerISt5tupleIJPFv11StartupData7MeshBVHES3_S4_EEEEEE+0x7c>
    461f:	00 
    4620:	f3 0f 59 c1          	mulss  %xmm1,%xmm0
    4624:	f3 0f 58 05 34 5a 00 	addss  0x5a34(%rip),%xmm0        # a060 <_ZTSNSt6thread11_State_implINS_8_InvokerISt5tupleIJPFv11StartupData7MeshBVHES3_S4_EEEEEE+0x80>
    462b:	00 
    462c:	0f 57 f8             	xorps  %xmm0,%xmm7
    462f:	f3 0f 59 c0          	mulss  %xmm0,%xmm0
    4633:	0f 28 d7             	movaps %xmm7,%xmm2
    4636:	e9 8f f2 ff ff       	jmpq   38ca <_Z11path_tracerjR7MeshBVHR11StartupData+0xa7a>
    463b:	0f 1f 44 00 00       	nopl   0x0(%rax,%rax,1)
    4640:	f3 0f 59 d2          	mulss  %xmm2,%xmm2
    4644:	f3 0f 10 05 0c 5a 00 	movss  0x5a0c(%rip),%xmm0        # a058 <_ZTSNSt6thread11_State_implINS_8_InvokerISt5tupleIJPFv11StartupData7MeshBVHES3_S4_EEEEEE+0x78>
    464b:	00 
    464c:	f3 0f 59 c2          	mulss  %xmm2,%xmm0
    4650:	f3 0f 5c 05 04 5a 00 	subss  0x5a04(%rip),%xmm0        # a05c <_ZTSNSt6thread11_State_implINS_8_InvokerISt5tupleIJPFv11StartupData7MeshBVHES3_S4_EEEEEE+0x7c>
    4657:	00 
    4658:	e9 4d f2 ff ff       	jmpq   38aa <_Z11path_tracerjR7MeshBVHR11StartupData+0xa5a>
    465d:	0f 1f 00             	nopl   (%rax)
    4660:	f3 0f 10 0d fc 59 00 	movss  0x59fc(%rip),%xmm1        # a064 <_ZTSNSt6thread11_State_implINS_8_InvokerISt5tupleIJPFv11StartupData7MeshBVHES3_S4_EEEEEE+0x84>
    4667:	00 
    4668:	f3 0f 10 3d 20 5a 00 	movss  0x5a20(%rip),%xmm7        # a090 <_ZTSNSt6thread11_State_implINS_8_InvokerISt5tupleIJPFv11StartupData7MeshBVHES3_S4_EEEEEE+0xb0>
    466f:	00 
    4670:	f3 0f 5c c8          	subss  %xmm0,%xmm1
    4674:	f3 0f 10 05 dc 59 00 	movss  0x59dc(%rip),%xmm0        # a058 <_ZTSNSt6thread11_State_implINS_8_InvokerISt5tupleIJPFv11StartupData7MeshBVHES3_S4_EEEEEE+0x78>
    467b:	00 
    467c:	0f 29 7c 24 30       	movaps %xmm7,0x30(%rsp)
    4681:	f3 0f 59 c9          	mulss  %xmm1,%xmm1
    4685:	f3 0f 59 c1          	mulss  %xmm1,%xmm0
    4689:	f3 0f 5c 05 cb 59 00 	subss  0x59cb(%rip),%xmm0        # a05c <_ZTSNSt6thread11_State_implINS_8_InvokerISt5tupleIJPFv11StartupData7MeshBVHES3_S4_EEEEEE+0x7c>
    4690:	00 
    4691:	f3 0f 59 c1          	mulss  %xmm1,%xmm0
    4695:	f3 0f 58 05 c3 59 00 	addss  0x59c3(%rip),%xmm0        # a060 <_ZTSNSt6thread11_State_implINS_8_InvokerISt5tupleIJPFv11StartupData7MeshBVHES3_S4_EEEEEE+0x80>
    469c:	00 
    469d:	0f 28 d0             	movaps %xmm0,%xmm2
    46a0:	f3 0f 59 c0          	mulss  %xmm0,%xmm0
    46a4:	0f 57 d7             	xorps  %xmm7,%xmm2
    46a7:	e9 1e f2 ff ff       	jmpq   38ca <_Z11path_tracerjR7MeshBVHR11StartupData+0xa7a>
    46ac:	0f 1f 40 00          	nopl   0x0(%rax)
    46b0:	66 0f ef db          	pxor   %xmm3,%xmm3
    46b4:	66 0f ef c9          	pxor   %xmm1,%xmm1
    46b8:	e9 70 f2 ff ff       	jmpq   392d <_Z11path_tracerjR7MeshBVHR11StartupData+0xadd>
    46bd:	0f 1f 00             	nopl   (%rax)
    46c0:	f3 0f 5c 0d 9c 59 00 	subss  0x599c(%rip),%xmm1        # a064 <_ZTSNSt6thread11_State_implINS_8_InvokerISt5tupleIJPFv11StartupData7MeshBVHES3_S4_EEEEEE+0x84>
    46c7:	00 
    46c8:	0f 28 d9             	movaps %xmm1,%xmm3
    46cb:	f3 0f 59 cb          	mulss  %xmm3,%xmm1
    46cf:	f3 0f 10 1d 81 59 00 	movss  0x5981(%rip),%xmm3        # a058 <_ZTSNSt6thread11_State_implINS_8_InvokerISt5tupleIJPFv11StartupData7MeshBVHES3_S4_EEEEEE+0x78>
    46d6:	00 
    46d7:	0f 28 74 24 30       	movaps 0x30(%rsp),%xmm6
    46dc:	f3 0f 59 d9          	mulss  %xmm1,%xmm3
    46e0:	f3 0f 5c 1d 74 59 00 	subss  0x5974(%rip),%xmm3        # a05c <_ZTSNSt6thread11_State_implINS_8_InvokerISt5tupleIJPFv11StartupData7MeshBVHES3_S4_EEEEEE+0x7c>
    46e7:	00 
    46e8:	f3 0f 59 d9          	mulss  %xmm1,%xmm3
    46ec:	f3 0f 58 1d 6c 59 00 	addss  0x596c(%rip),%xmm3        # a060 <_ZTSNSt6thread11_State_implINS_8_InvokerISt5tupleIJPFv11StartupData7MeshBVHES3_S4_EEEEEE+0x80>
    46f3:	00 
    46f4:	0f 57 f3             	xorps  %xmm3,%xmm6
    46f7:	f3 0f 59 db          	mulss  %xmm3,%xmm3
    46fb:	0f 28 ce             	movaps %xmm6,%xmm1
    46fe:	e9 2a f2 ff ff       	jmpq   392d <_Z11path_tracerjR7MeshBVHR11StartupData+0xadd>
    4703:	0f 1f 44 00 00       	nopl   0x0(%rax,%rax,1)
    4708:	f3 0f 59 e4          	mulss  %xmm4,%xmm4
    470c:	f3 0f 10 0d 44 59 00 	movss  0x5944(%rip),%xmm1        # a058 <_ZTSNSt6thread11_State_implINS_8_InvokerISt5tupleIJPFv11StartupData7MeshBVHES3_S4_EEEEEE+0x78>
    4713:	00 
    4714:	f3 0f 59 cc          	mulss  %xmm4,%xmm1
    4718:	f3 0f 5c 0d 3c 59 00 	subss  0x593c(%rip),%xmm1        # a05c <_ZTSNSt6thread11_State_implINS_8_InvokerISt5tupleIJPFv11StartupData7MeshBVHES3_S4_EEEEEE+0x7c>
    471f:	00 
    4720:	f3 0f 59 e1          	mulss  %xmm1,%xmm4
    4724:	f3 0f 10 0d 34 59 00 	movss  0x5934(%rip),%xmm1        # a060 <_ZTSNSt6thread11_State_implINS_8_InvokerISt5tupleIJPFv11StartupData7MeshBVHES3_S4_EEEEEE+0x80>
    472b:	00 
    472c:	f3 0f 58 cc          	addss  %xmm4,%xmm1
    4730:	0f 28 d9             	movaps %xmm1,%xmm3
    4733:	f3 0f 59 d9          	mulss  %xmm1,%xmm3
    4737:	e9 f1 f1 ff ff       	jmpq   392d <_Z11path_tracerjR7MeshBVHR11StartupData+0xadd>
    473c:	0f 1f 40 00          	nopl   0x0(%rax)
    4740:	f3 0f 10 1d 1c 59 00 	movss  0x591c(%rip),%xmm3        # a064 <_ZTSNSt6thread11_State_implINS_8_InvokerISt5tupleIJPFv11StartupData7MeshBVHES3_S4_EEEEEE+0x84>
    4747:	00 
    4748:	f3 0f 5c d9          	subss  %xmm1,%xmm3
    474c:	0f 28 cb             	movaps %xmm3,%xmm1
    474f:	e9 77 ff ff ff       	jmpq   46cb <_Z11path_tracerjR7MeshBVHR11StartupData+0x187b>
    4754:	0f 1f 40 00          	nopl   0x0(%rax)
    4758:	f3 0f 10 2d e0 58 00 	movss  0x58e0(%rip),%xmm5        # a040 <_ZTSNSt6thread11_State_implINS_8_InvokerISt5tupleIJPFv11StartupData7MeshBVHES3_S4_EEEEEE+0x60>
    475f:	00 
    4760:	e9 6b fa ff ff       	jmpq   41d0 <_Z11path_tracerjR7MeshBVHR11StartupData+0x1380>
    4765:	0f 1f 00             	nopl   (%rax)
    4768:	f3 0f 10 25 d0 58 00 	movss  0x58d0(%rip),%xmm4        # a040 <_ZTSNSt6thread11_State_implINS_8_InvokerISt5tupleIJPFv11StartupData7MeshBVHES3_S4_EEEEEE+0x60>
    476f:	00 
    4770:	e9 53 fb ff ff       	jmpq   42c8 <_Z11path_tracerjR7MeshBVHR11StartupData+0x1478>
    4775:	0f 1f 00             	nopl   (%rax)
    4778:	f3 0f 10 6c 24 68    	movss  0x68(%rsp),%xmm5
    477e:	f3 0f 10 05 f2 58 00 	movss  0x58f2(%rip),%xmm0        # a078 <_ZTSNSt6thread11_State_implINS_8_InvokerISt5tupleIJPFv11StartupData7MeshBVHES3_S4_EEEEEE+0x98>
    4785:	00 
    4786:	f3 0f 59 c5          	mulss  %xmm5,%xmm0
    478a:	f3 0f 10 7c 24 70    	movss  0x70(%rsp),%xmm7
    4790:	f3 0f 58 fd          	addss  %xmm5,%xmm7
    4794:	f3 0f 58 44 24 74    	addss  0x74(%rsp),%xmm0
    479a:	f3 0f 11 7c 24 70    	movss  %xmm7,0x70(%rsp)
    47a0:	f3 0f 11 44 24 74    	movss  %xmm0,0x74(%rsp)
    47a6:	f3 0f 10 05 be 58 00 	movss  0x58be(%rip),%xmm0        # a06c <_ZTSNSt6thread11_State_implINS_8_InvokerISt5tupleIJPFv11StartupData7MeshBVHES3_S4_EEEEEE+0x8c>
    47ad:	00 
    47ae:	f3 0f 59 c5          	mulss  %xmm5,%xmm0
    47b2:	f3 0f 58 44 24 6c    	addss  0x6c(%rsp),%xmm0
    47b8:	f3 0f 11 44 24 6c    	movss  %xmm0,0x6c(%rsp)
    47be:	e9 7f fb ff ff       	jmpq   4342 <_Z11path_tracerjR7MeshBVHR11StartupData+0x14f2>
    47c3:	f3 0f 11 6c 24 1c    	movss  %xmm5,0x1c(%rsp)
    47c9:	44 89 44 24 18       	mov    %r8d,0x18(%rsp)
    47ce:	89 7c 24 10          	mov    %edi,0x10(%rsp)
    47d2:	e8 e9 d8 ff ff       	callq  20c0 <sqrtf@plt>
    47d7:	f3 0f 10 6c 24 1c    	movss  0x1c(%rsp),%xmm5
    47dd:	44 8b 44 24 18       	mov    0x18(%rsp),%r8d
    47e2:	8b 7c 24 10          	mov    0x10(%rsp),%edi
    47e6:	e9 09 f0 ff ff       	jmpq   37f4 <_Z11path_tracerjR7MeshBVHR11StartupData+0x9a4>
    47eb:	f3 0f 11 4c 24 28    	movss  %xmm1,0x28(%rsp)
    47f1:	44 89 44 24 18       	mov    %r8d,0x18(%rsp)
    47f6:	89 7c 24 10          	mov    %edi,0x10(%rsp)
    47fa:	f3 0f 11 5c 24 24    	movss  %xmm3,0x24(%rsp)
    4800:	f3 0f 11 7c 24 20    	movss  %xmm7,0x20(%rsp)
    4806:	f3 44 0f 11 44 24 1c 	movss  %xmm8,0x1c(%rsp)
    480d:	e8 ae d8 ff ff       	callq  20c0 <sqrtf@plt>
    4812:	f3 0f 10 4c 24 28    	movss  0x28(%rsp),%xmm1
    4818:	f3 0f 10 5c 24 24    	movss  0x24(%rsp),%xmm3
    481e:	44 8b 44 24 18       	mov    0x18(%rsp),%r8d
    4823:	f3 0f 10 7c 24 20    	movss  0x20(%rsp),%xmm7
    4829:	8b 7c 24 10          	mov    0x10(%rsp),%edi
    482d:	f3 44 0f 10 44 24 1c 	movss  0x1c(%rsp),%xmm8
    4834:	e9 04 f3 ff ff       	jmpq   3b3d <_Z11path_tracerjR7MeshBVHR11StartupData+0xced>
    4839:	f3 0f 11 64 24 28    	movss  %xmm4,0x28(%rsp)
    483f:	44 89 44 24 18       	mov    %r8d,0x18(%rsp)
    4844:	89 7c 24 10          	mov    %edi,0x10(%rsp)
    4848:	f3 0f 11 4c 24 24    	movss  %xmm1,0x24(%rsp)
    484e:	f3 0f 11 54 24 20    	movss  %xmm2,0x20(%rsp)
    4854:	f3 0f 11 5c 24 1c    	movss  %xmm3,0x1c(%rsp)
    485a:	e8 61 d8 ff ff       	callq  20c0 <sqrtf@plt>
    485f:	f3 0f 10 64 24 28    	movss  0x28(%rsp),%xmm4
    4865:	f3 0f 10 4c 24 24    	movss  0x24(%rsp),%xmm1
    486b:	44 8b 44 24 18       	mov    0x18(%rsp),%r8d
    4870:	f3 0f 10 54 24 20    	movss  0x20(%rsp),%xmm2
    4876:	8b 7c 24 10          	mov    0x10(%rsp),%edi
    487a:	f3 0f 10 5c 24 1c    	movss  0x1c(%rsp),%xmm3
    4880:	e9 3f f1 ff ff       	jmpq   39c4 <_Z11path_tracerjR7MeshBVHR11StartupData+0xb74>
    4885:	f3 0f 11 4c 24 24    	movss  %xmm1,0x24(%rsp)
    488b:	44 89 44 24 18       	mov    %r8d,0x18(%rsp)
    4890:	89 7c 24 10          	mov    %edi,0x10(%rsp)
    4894:	f3 0f 11 54 24 20    	movss  %xmm2,0x20(%rsp)
    489a:	f3 0f 11 5c 24 1c    	movss  %xmm3,0x1c(%rsp)
    48a0:	e8 1b d8 ff ff       	callq  20c0 <sqrtf@plt>
    48a5:	f3 0f 10 4c 24 24    	movss  0x24(%rsp),%xmm1
    48ab:	f3 0f 10 54 24 20    	movss  0x20(%rsp),%xmm2
    48b1:	44 8b 44 24 18       	mov    0x18(%rsp),%r8d
    48b6:	f3 0f 10 5c 24 1c    	movss  0x1c(%rsp),%xmm3
    48bc:	8b 7c 24 10          	mov    0x10(%rsp),%edi
    48c0:	e9 bf f0 ff ff       	jmpq   3984 <_Z11path_tracerjR7MeshBVHR11StartupData+0xb34>
    48c5:	f3 0f 11 54 24 28    	movss  %xmm2,0x28(%rsp)
    48cb:	44 89 44 24 18       	mov    %r8d,0x18(%rsp)
    48d0:	89 7c 24 10          	mov    %edi,0x10(%rsp)
    48d4:	f3 0f 11 4c 24 24    	movss  %xmm1,0x24(%rsp)
    48da:	f3 0f 11 64 24 20    	movss  %xmm4,0x20(%rsp)
    48e0:	f3 0f 11 6c 24 1c    	movss  %xmm5,0x1c(%rsp)
    48e6:	e8 d5 d7 ff ff       	callq  20c0 <sqrtf@plt>
    48eb:	f3 0f 10 54 24 28    	movss  0x28(%rsp),%xmm2
    48f1:	f3 0f 10 4c 24 24    	movss  0x24(%rsp),%xmm1
    48f7:	44 8b 44 24 18       	mov    0x18(%rsp),%r8d
    48fc:	f3 0f 10 64 24 20    	movss  0x20(%rsp),%xmm4
    4902:	8b 7c 24 10          	mov    0x10(%rsp),%edi
    4906:	f3 0f 10 6c 24 1c    	movss  0x1c(%rsp),%xmm5
    490c:	e9 31 f0 ff ff       	jmpq   3942 <_Z11path_tracerjR7MeshBVHR11StartupData+0xaf2>
    4911:	48 89 74 24 50       	mov    %rsi,0x50(%rsp)
    4916:	f3 0f 11 6c 24 58    	movss  %xmm5,0x58(%rsp)
    491c:	44 89 44 24 28       	mov    %r8d,0x28(%rsp)
    4921:	f3 0f 11 5c 24 4c    	movss  %xmm3,0x4c(%rsp)
    4927:	89 7c 24 24          	mov    %edi,0x24(%rsp)
    492b:	f3 0f 11 4c 24 44    	movss  %xmm1,0x44(%rsp)
    4931:	f3 0f 11 64 24 30    	movss  %xmm4,0x30(%rsp)
    4937:	f3 0f 11 54 24 2c    	movss  %xmm2,0x2c(%rsp)
    493d:	e8 7e d7 ff ff       	callq  20c0 <sqrtf@plt>
    4942:	48 8b 74 24 50       	mov    0x50(%rsp),%rsi
    4947:	f3 0f 10 6c 24 58    	movss  0x58(%rsp),%xmm5
    494d:	44 8b 44 24 28       	mov    0x28(%rsp),%r8d
    4952:	f3 0f 10 5c 24 4c    	movss  0x4c(%rsp),%xmm3
    4958:	8b 7c 24 24          	mov    0x24(%rsp),%edi
    495c:	f3 0f 10 4c 24 44    	movss  0x44(%rsp),%xmm1
    4962:	f3 0f 10 64 24 30    	movss  0x30(%rsp),%xmm4
    4968:	f3 0f 10 54 24 2c    	movss  0x2c(%rsp),%xmm2
    496e:	e9 f7 f6 ff ff       	jmpq   406a <_Z11path_tracerjR7MeshBVHR11StartupData+0x121a>
    4973:	f3 0f 11 74 24 44    	movss  %xmm6,0x44(%rsp)
    4979:	44 89 44 24 18       	mov    %r8d,0x18(%rsp)
    497e:	89 7c 24 10          	mov    %edi,0x10(%rsp)
    4982:	f3 0f 11 7c 24 40    	movss  %xmm7,0x40(%rsp)
    4988:	f3 0f 11 4c 24 2c    	movss  %xmm1,0x2c(%rsp)
    498e:	f3 0f 11 54 24 28    	movss  %xmm2,0x28(%rsp)
    4994:	f3 0f 11 5c 24 24    	movss  %xmm3,0x24(%rsp)
    499a:	f3 0f 11 6c 24 20    	movss  %xmm5,0x20(%rsp)
    49a0:	f3 0f 11 64 24 1c    	movss  %xmm4,0x1c(%rsp)
    49a6:	e8 15 d7 ff ff       	callq  20c0 <sqrtf@plt>
    49ab:	f3 0f 10 74 24 44    	movss  0x44(%rsp),%xmm6
    49b1:	f3 0f 10 7c 24 40    	movss  0x40(%rsp),%xmm7
    49b7:	44 8b 44 24 18       	mov    0x18(%rsp),%r8d
    49bc:	f3 0f 10 4c 24 2c    	movss  0x2c(%rsp),%xmm1
    49c2:	8b 7c 24 10          	mov    0x10(%rsp),%edi
    49c6:	f3 0f 10 54 24 28    	movss  0x28(%rsp),%xmm2
    49cc:	f3 0f 10 5c 24 24    	movss  0x24(%rsp),%xmm3
    49d2:	f3 0f 10 6c 24 20    	movss  0x20(%rsp),%xmm5
    49d8:	f3 0f 10 64 24 1c    	movss  0x1c(%rsp),%xmm4
    49de:	e9 7c f0 ff ff       	jmpq   3a5f <_Z11path_tracerjR7MeshBVHR11StartupData+0xc0f>
    49e3:	66 0f ef c0          	pxor   %xmm0,%xmm0
    49e7:	f3 0f 11 84 24 80 00 	movss  %xmm0,0x80(%rsp)
    49ee:	00 00 
    49f0:	0f 28 c8             	movaps %xmm0,%xmm1
    49f3:	f3 0f 11 44 24 7c    	movss  %xmm0,0x7c(%rsp)
    49f9:	0f 28 e8             	movaps %xmm0,%xmm5
    49fc:	f3 0f 11 84 24 84 00 	movss  %xmm0,0x84(%rsp)
    4a03:	00 00 
    4a05:	e9 9d f9 ff ff       	jmpq   43a7 <_Z11path_tracerjR7MeshBVHR11StartupData+0x1557>
    4a0a:	f3 0f 11 74 24 44    	movss  %xmm6,0x44(%rsp)
    4a10:	44 89 44 24 18       	mov    %r8d,0x18(%rsp)
    4a15:	89 7c 24 10          	mov    %edi,0x10(%rsp)
    4a19:	f3 0f 11 7c 24 40    	movss  %xmm7,0x40(%rsp)
    4a1f:	f3 0f 11 4c 24 2c    	movss  %xmm1,0x2c(%rsp)
    4a25:	f3 0f 11 54 24 28    	movss  %xmm2,0x28(%rsp)
    4a2b:	f3 0f 11 5c 24 24    	movss  %xmm3,0x24(%rsp)
    4a31:	f3 0f 11 64 24 20    	movss  %xmm4,0x20(%rsp)
    4a37:	f3 0f 11 6c 24 1c    	movss  %xmm5,0x1c(%rsp)
    4a3d:	e8 7e d6 ff ff       	callq  20c0 <sqrtf@plt>
    4a42:	f3 0f 10 74 24 44    	movss  0x44(%rsp),%xmm6
    4a48:	f3 0f 10 7c 24 40    	movss  0x40(%rsp),%xmm7
    4a4e:	44 8b 44 24 18       	mov    0x18(%rsp),%r8d
    4a53:	f3 0f 10 4c 24 2c    	movss  0x2c(%rsp),%xmm1
    4a59:	8b 7c 24 10          	mov    0x10(%rsp),%edi
    4a5d:	f3 0f 10 54 24 28    	movss  0x28(%rsp),%xmm2
    4a63:	f3 0f 10 5c 24 24    	movss  0x24(%rsp),%xmm3
    4a69:	f3 0f 10 64 24 20    	movss  0x20(%rsp),%xmm4
    4a6f:	f3 0f 10 6c 24 1c    	movss  0x1c(%rsp),%xmm5
    4a75:	e9 fb f9 ff ff       	jmpq   4475 <_Z11path_tracerjR7MeshBVHR11StartupData+0x1625>
    4a7a:	48 89 4c 24 60       	mov    %rcx,0x60(%rsp)
    4a7f:	f3 0f 11 64 24 44    	movss  %xmm4,0x44(%rsp)
    4a85:	44 89 44 24 40       	mov    %r8d,0x40(%rsp)
    4a8a:	89 7c 24 10          	mov    %edi,0x10(%rsp)
    4a8e:	e8 2d d6 ff ff       	callq  20c0 <sqrtf@plt>
    4a93:	48 8b 4c 24 60       	mov    0x60(%rsp),%rcx
    4a98:	f3 0f 10 64 24 44    	movss  0x44(%rsp),%xmm4
    4a9e:	44 8b 44 24 40       	mov    0x40(%rsp),%r8d
    4aa3:	8b 7c 24 10          	mov    0x10(%rsp),%edi
    4aa7:	e9 11 fb ff ff       	jmpq   45bd <_Z11path_tracerjR7MeshBVHR11StartupData+0x176d>
    4aac:	f3 0f 11 4c 24 40    	movss  %xmm1,0x40(%rsp)
    4ab2:	44 89 44 24 30       	mov    %r8d,0x30(%rsp)
    4ab7:	89 7c 24 10          	mov    %edi,0x10(%rsp)
    4abb:	e8 00 d6 ff ff       	callq  20c0 <sqrtf@plt>
    4ac0:	f3 0f 10 4c 24 40    	movss  0x40(%rsp),%xmm1
    4ac6:	44 8b 44 24 30       	mov    0x30(%rsp),%r8d
    4acb:	8b 7c 24 10          	mov    0x10(%rsp),%edi
    4acf:	e9 2c fa ff ff       	jmpq   4500 <_Z11path_tracerjR7MeshBVHR11StartupData+0x16b0>
    4ad4:	f3 0f 11 64 24 24    	movss  %xmm4,0x24(%rsp)
    4ada:	44 89 44 24 10       	mov    %r8d,0x10(%rsp)
    4adf:	f3 0f 11 4c 24 20    	movss  %xmm1,0x20(%rsp)
    4ae5:	f3 0f 11 54 24 1c    	movss  %xmm2,0x1c(%rsp)
    4aeb:	f3 0f 11 5c 24 18    	movss  %xmm3,0x18(%rsp)
    4af1:	e8 ca d5 ff ff       	callq  20c0 <sqrtf@plt>
    4af6:	f3 0f 10 64 24 24    	movss  0x24(%rsp),%xmm4
    4afc:	f3 0f 10 4c 24 20    	movss  0x20(%rsp),%xmm1
    4b02:	44 8b 44 24 10       	mov    0x10(%rsp),%r8d
    4b07:	f3 0f 10 54 24 1c    	movss  0x1c(%rsp),%xmm2
    4b0d:	f3 0f 10 5c 24 18    	movss  0x18(%rsp),%xmm3
    4b13:	e9 fe e4 ff ff       	jmpq   3016 <_Z11path_tracerjR7MeshBVHR11StartupData+0x1c6>
    4b18:	e8 63 d4 ff ff       	callq  1f80 <__stack_chk_fail@plt>
    4b1d:	0f 1f 00             	nopl   (%rax)

0000000000004b20 <_ZN4MeshD1Ev>:
    4b20:	53                   	push   %rbx
    4b21:	48 89 fb             	mov    %rdi,%rbx
    4b24:	48 8b 7f 78          	mov    0x78(%rdi),%rdi
    4b28:	48 85 ff             	test   %rdi,%rdi
    4b2b:	74 05                	je     4b32 <_ZN4MeshD1Ev+0x12>
    4b2d:	e8 de d3 ff ff       	callq  1f10 <_ZdlPv@plt>
    4b32:	48 8b 7b 60          	mov    0x60(%rbx),%rdi
    4b36:	48 85 ff             	test   %rdi,%rdi
    4b39:	74 05                	je     4b40 <_ZN4MeshD1Ev+0x20>
    4b3b:	e8 d0 d3 ff ff       	callq  1f10 <_ZdlPv@plt>
    4b40:	48 8b 7b 48          	mov    0x48(%rbx),%rdi
    4b44:	48 85 ff             	test   %rdi,%rdi
    4b47:	74 05                	je     4b4e <_ZN4MeshD1Ev+0x2e>
    4b49:	e8 c2 d3 ff ff       	callq  1f10 <_ZdlPv@plt>
    4b4e:	48 8b 7b 30          	mov    0x30(%rbx),%rdi
    4b52:	48 85 ff             	test   %rdi,%rdi
    4b55:	74 05                	je     4b5c <_ZN4MeshD1Ev+0x3c>
    4b57:	e8 b4 d3 ff ff       	callq  1f10 <_ZdlPv@plt>
    4b5c:	48 8b 7b 18          	mov    0x18(%rbx),%rdi
    4b60:	48 85 ff             	test   %rdi,%rdi
    4b63:	74 05                	je     4b6a <_ZN4MeshD1Ev+0x4a>
    4b65:	e8 a6 d3 ff ff       	callq  1f10 <_ZdlPv@plt>
    4b6a:	48 8b 3b             	mov    (%rbx),%rdi
    4b6d:	48 85 ff             	test   %rdi,%rdi
    4b70:	74 0e                	je     4b80 <_ZN4MeshD1Ev+0x60>
    4b72:	5b                   	pop    %rbx
    4b73:	e9 98 d3 ff ff       	jmpq   1f10 <_ZdlPv@plt>
    4b78:	0f 1f 84 00 00 00 00 	nopl   0x0(%rax,%rax,1)
    4b7f:	00 
    4b80:	5b                   	pop    %rbx
    4b81:	c3                   	retq   
    4b82:	66 2e 0f 1f 84 00 00 	nopw   %cs:0x0(%rax,%rax,1)
    4b89:	00 00 00 
    4b8c:	0f 1f 40 00          	nopl   0x0(%rax)

0000000000004b90 <_ZN7MeshBVHD1Ev>:
    4b90:	53                   	push   %rbx
    4b91:	48 89 fb             	mov    %rdi,%rbx
    4b94:	48 8b 7f 20          	mov    0x20(%rdi),%rdi
    4b98:	48 85 ff             	test   %rdi,%rdi
    4b9b:	74 05                	je     4ba2 <_ZN7MeshBVHD1Ev+0x12>
    4b9d:	e8 6e d3 ff ff       	callq  1f10 <_ZdlPv@plt>
    4ba2:	48 8b 7b 08          	mov    0x8(%rbx),%rdi
    4ba6:	48 85 ff             	test   %rdi,%rdi
    4ba9:	74 0d                	je     4bb8 <_ZN7MeshBVHD1Ev+0x28>
    4bab:	5b                   	pop    %rbx
    4bac:	e9 5f d3 ff ff       	jmpq   1f10 <_ZdlPv@plt>
    4bb1:	0f 1f 80 00 00 00 00 	nopl   0x0(%rax)
    4bb8:	5b                   	pop    %rbx
    4bb9:	c3                   	retq   
    4bba:	66 0f 1f 44 00 00    	nopw   0x0(%rax,%rax,1)

0000000000004bc0 <_ZNSt6thread11_State_implINS_8_InvokerISt5tupleIJPFv11StartupData7MeshBVHES3_S4_EEEEE6_M_runEv>:
    4bc0:	55                   	push   %rbp
    4bc1:	48 89 e5             	mov    %rsp,%rbp
    4bc4:	41 56                	push   %r14
    4bc6:	53                   	push   %rbx
    4bc7:	48 8d 5d b0          	lea    -0x50(%rbp),%rbx
    4bcb:	48 83 ec 40          	sub    $0x40,%rsp
    4bcf:	48 8b 57 08          	mov    0x8(%rdi),%rdx
    4bd3:	64 48 8b 04 25 28 00 	mov    %fs:0x28,%rax
    4bda:	00 00 
    4bdc:	48 89 45 e8          	mov    %rax,-0x18(%rbp)
    4be0:	31 c0                	xor    %eax,%eax
    4be2:	48 8b 87 e0 00 00 00 	mov    0xe0(%rdi),%rax
    4be9:	48 89 55 b0          	mov    %rdx,-0x50(%rbp)
    4bed:	48 8b 57 10          	mov    0x10(%rdi),%rdx
    4bf1:	48 c7 47 10 00 00 00 	movq   $0x0,0x10(%rdi)
    4bf8:	00 
    4bf9:	48 89 55 b8          	mov    %rdx,-0x48(%rbp)
    4bfd:	48 8b 57 18          	mov    0x18(%rdi),%rdx
    4c01:	48 c7 47 18 00 00 00 	movq   $0x0,0x18(%rdi)
    4c08:	00 
    4c09:	48 89 55 c0          	mov    %rdx,-0x40(%rbp)
    4c0d:	48 8b 57 20          	mov    0x20(%rdi),%rdx
    4c11:	48 c7 47 20 00 00 00 	movq   $0x0,0x20(%rdi)
    4c18:	00 
    4c19:	48 89 55 c8          	mov    %rdx,-0x38(%rbp)
    4c1d:	48 8b 57 28          	mov    0x28(%rdi),%rdx
    4c21:	48 c7 47 28 00 00 00 	movq   $0x0,0x28(%rdi)
    4c28:	00 
    4c29:	48 89 55 d0          	mov    %rdx,-0x30(%rbp)
    4c2d:	48 8b 57 30          	mov    0x30(%rdi),%rdx
    4c31:	48 c7 47 30 00 00 00 	movq   $0x0,0x30(%rdi)
    4c38:	00 
    4c39:	48 89 55 d8          	mov    %rdx,-0x28(%rbp)
    4c3d:	48 8b 57 38          	mov    0x38(%rdi),%rdx
    4c41:	48 c7 47 38 00 00 00 	movq   $0x0,0x38(%rdi)
    4c48:	00 
    4c49:	ff b7 d8 00 00 00    	pushq  0xd8(%rdi)
    4c4f:	ff b7 d0 00 00 00    	pushq  0xd0(%rdi)
    4c55:	ff b7 c8 00 00 00    	pushq  0xc8(%rdi)
    4c5b:	48 89 55 e0          	mov    %rdx,-0x20(%rbp)
    4c5f:	ff b7 c0 00 00 00    	pushq  0xc0(%rdi)
    4c65:	ff b7 b8 00 00 00    	pushq  0xb8(%rdi)
    4c6b:	ff b7 b0 00 00 00    	pushq  0xb0(%rdi)
    4c71:	ff b7 a8 00 00 00    	pushq  0xa8(%rdi)
    4c77:	ff b7 a0 00 00 00    	pushq  0xa0(%rdi)
    4c7d:	ff b7 98 00 00 00    	pushq  0x98(%rdi)
    4c83:	ff b7 90 00 00 00    	pushq  0x90(%rdi)
    4c89:	ff b7 88 00 00 00    	pushq  0x88(%rdi)
    4c8f:	ff b7 80 00 00 00    	pushq  0x80(%rdi)
    4c95:	ff 77 78             	pushq  0x78(%rdi)
    4c98:	ff 77 70             	pushq  0x70(%rdi)
    4c9b:	ff 77 68             	pushq  0x68(%rdi)
    4c9e:	ff 77 60             	pushq  0x60(%rdi)
    4ca1:	ff 77 58             	pushq  0x58(%rdi)
    4ca4:	ff 77 50             	pushq  0x50(%rdi)
    4ca7:	ff 77 48             	pushq  0x48(%rdi)
    4caa:	ff 77 40             	pushq  0x40(%rdi)
    4cad:	48 89 df             	mov    %rbx,%rdi
    4cb0:	ff d0                	callq  *%rax
    4cb2:	48 8b 7d d0          	mov    -0x30(%rbp),%rdi
    4cb6:	48 81 c4 a0 00 00 00 	add    $0xa0,%rsp
    4cbd:	48 85 ff             	test   %rdi,%rdi
    4cc0:	74 05                	je     4cc7 <_ZNSt6thread11_State_implINS_8_InvokerISt5tupleIJPFv11StartupData7MeshBVHES3_S4_EEEEE6_M_runEv+0x107>
    4cc2:	e8 49 d2 ff ff       	callq  1f10 <_ZdlPv@plt>
    4cc7:	48 8b 7d b8          	mov    -0x48(%rbp),%rdi
    4ccb:	48 85 ff             	test   %rdi,%rdi
    4cce:	74 05                	je     4cd5 <_ZNSt6thread11_State_implINS_8_InvokerISt5tupleIJPFv11StartupData7MeshBVHES3_S4_EEEEE6_M_runEv+0x115>
    4cd0:	e8 3b d2 ff ff       	callq  1f10 <_ZdlPv@plt>
    4cd5:	48 8b 45 e8          	mov    -0x18(%rbp),%rax
    4cd9:	64 48 33 04 25 28 00 	xor    %fs:0x28,%rax
    4ce0:	00 00 
    4ce2:	75 09                	jne    4ced <_ZNSt6thread11_State_implINS_8_InvokerISt5tupleIJPFv11StartupData7MeshBVHES3_S4_EEEEE6_M_runEv+0x12d>
    4ce4:	48 8d 65 f0          	lea    -0x10(%rbp),%rsp
    4ce8:	5b                   	pop    %rbx
    4ce9:	41 5e                	pop    %r14
    4ceb:	5d                   	pop    %rbp
    4cec:	c3                   	retq   
    4ced:	e8 8e d2 ff ff       	callq  1f80 <__stack_chk_fail@plt>
    4cf2:	49 89 c6             	mov    %rax,%r14
    4cf5:	48 89 df             	mov    %rbx,%rdi
    4cf8:	e8 93 fe ff ff       	callq  4b90 <_ZN7MeshBVHD1Ev>
    4cfd:	4c 89 f7             	mov    %r14,%rdi
    4d00:	e8 9b d3 ff ff       	callq  20a0 <_Unwind_Resume@plt>
    4d05:	66 2e 0f 1f 84 00 00 	nopw   %cs:0x0(%rax,%rax,1)
    4d0c:	00 00 00 
    4d0f:	90                   	nop

0000000000004d10 <_ZNSt6vectorIN3rtm4vec3ESaIS1_EE12emplace_backIJS1_EEEvDpOT_>:
    4d10:	48 8b 57 08          	mov    0x8(%rdi),%rdx
    4d14:	48 3b 57 10          	cmp    0x10(%rdi),%rdx
    4d18:	74 1e                	je     4d38 <_ZNSt6vectorIN3rtm4vec3ESaIS1_EE12emplace_backIJS1_EEEvDpOT_+0x28>
    4d1a:	48 85 d2             	test   %rdx,%rdx
    4d1d:	74 0c                	je     4d2b <_ZNSt6vectorIN3rtm4vec3ESaIS1_EE12emplace_backIJS1_EEEvDpOT_+0x1b>
    4d1f:	48 8b 06             	mov    (%rsi),%rax
    4d22:	48 89 02             	mov    %rax,(%rdx)
    4d25:	8b 46 08             	mov    0x8(%rsi),%eax
    4d28:	89 42 08             	mov    %eax,0x8(%rdx)
    4d2b:	48 83 c2 0c          	add    $0xc,%rdx
    4d2f:	48 89 57 08          	mov    %rdx,0x8(%rdi)
    4d33:	c3                   	retq   
    4d34:	0f 1f 40 00          	nopl   0x0(%rax)
    4d38:	41 57                	push   %r15
    4d3a:	41 56                	push   %r14
    4d3c:	49 89 d7             	mov    %rdx,%r15
    4d3f:	41 55                	push   %r13
    4d41:	41 54                	push   %r12
    4d43:	48 b9 ab aa aa aa aa 	movabs $0xaaaaaaaaaaaaaaab,%rcx
    4d4a:	aa aa aa 
    4d4d:	55                   	push   %rbp
    4d4e:	53                   	push   %rbx
    4d4f:	49 89 f4             	mov    %rsi,%r12
    4d52:	48 89 d3             	mov    %rdx,%rbx
    4d55:	48 89 fd             	mov    %rdi,%rbp
    4d58:	48 83 ec 08          	sub    $0x8,%rsp
    4d5c:	4c 2b 3f             	sub    (%rdi),%r15
    4d5f:	4c 89 f8             	mov    %r15,%rax
    4d62:	48 c1 f8 02          	sar    $0x2,%rax
    4d66:	48 0f af c1          	imul   %rcx,%rax
    4d6a:	48 85 c0             	test   %rax,%rax
    4d6d:	0f 84 25 01 00 00    	je     4e98 <_ZNSt6vectorIN3rtm4vec3ESaIS1_EE12emplace_backIJS1_EEEvDpOT_+0x188>
    4d73:	4c 8d 2c 00          	lea    (%rax,%rax,1),%r13
    4d77:	4c 39 e8             	cmp    %r13,%rax
    4d7a:	0f 86 28 01 00 00    	jbe    4ea8 <_ZNSt6vectorIN3rtm4vec3ESaIS1_EE12emplace_backIJS1_EEEvDpOT_+0x198>
    4d80:	49 c7 c5 fc ff ff ff 	mov    $0xfffffffffffffffc,%r13
    4d87:	4c 89 ef             	mov    %r13,%rdi
    4d8a:	e8 c1 d1 ff ff       	callq  1f50 <_Znwm@plt>
    4d8f:	48 8b 55 08          	mov    0x8(%rbp),%rdx
    4d93:	49 89 c6             	mov    %rax,%r14
    4d96:	4d 01 f7             	add    %r14,%r15
    4d99:	74 10                	je     4dab <_ZNSt6vectorIN3rtm4vec3ESaIS1_EE12emplace_backIJS1_EEEvDpOT_+0x9b>
    4d9b:	49 8b 04 24          	mov    (%r12),%rax
    4d9f:	49 89 07             	mov    %rax,(%r15)
    4da2:	41 8b 44 24 08       	mov    0x8(%r12),%eax
    4da7:	41 89 47 08          	mov    %eax,0x8(%r15)
    4dab:	48 8b 7d 00          	mov    0x0(%rbp),%rdi
    4daf:	48 39 fb             	cmp    %rdi,%rbx
    4db2:	0f 84 18 01 00 00    	je     4ed0 <_ZNSt6vectorIN3rtm4vec3ESaIS1_EE12emplace_backIJS1_EEEvDpOT_+0x1c0>
    4db8:	48 8d 47 0c          	lea    0xc(%rdi),%rax
    4dbc:	48 89 d9             	mov    %rbx,%rcx
    4dbf:	48 89 fe             	mov    %rdi,%rsi
    4dc2:	48 29 c1             	sub    %rax,%rcx
    4dc5:	48 89 c8             	mov    %rcx,%rax
    4dc8:	4c 89 f1             	mov    %r14,%rcx
    4dcb:	48 c1 e8 02          	shr    $0x2,%rax
    4dcf:	49 8d 44 86 0c       	lea    0xc(%r14,%rax,4),%rax
    4dd4:	0f 1f 40 00          	nopl   0x0(%rax)
    4dd8:	48 85 c9             	test   %rcx,%rcx
    4ddb:	0f 84 0f 01 00 00    	je     4ef0 <_ZNSt6vectorIN3rtm4vec3ESaIS1_EE12emplace_backIJS1_EEEvDpOT_+0x1e0>
    4de1:	4c 8b 06             	mov    (%rsi),%r8
    4de4:	48 83 c1 0c          	add    $0xc,%rcx
    4de8:	48 83 c6 0c          	add    $0xc,%rsi
    4dec:	4c 89 41 f4          	mov    %r8,-0xc(%rcx)
    4df0:	44 8b 46 fc          	mov    -0x4(%rsi),%r8d
    4df4:	44 89 41 fc          	mov    %r8d,-0x4(%rcx)
    4df8:	48 39 c8             	cmp    %rcx,%rax
    4dfb:	75 db                	jne    4dd8 <_ZNSt6vectorIN3rtm4vec3ESaIS1_EE12emplace_backIJS1_EEEvDpOT_+0xc8>
    4dfd:	48 39 d3             	cmp    %rdx,%rbx
    4e00:	4c 8d 60 0c          	lea    0xc(%rax),%r12
    4e04:	74 66                	je     4e6c <_ZNSt6vectorIN3rtm4vec3ESaIS1_EE12emplace_backIJS1_EEEvDpOT_+0x15c>
    4e06:	48 8d 4b 0c          	lea    0xc(%rbx),%rcx
    4e0a:	48 89 de             	mov    %rbx,%rsi
    4e0d:	48 29 ca             	sub    %rcx,%rdx
    4e10:	48 b9 ab aa aa aa aa 	movabs $0x2aaaaaaaaaaaaaab,%rcx
    4e17:	aa aa 2a 
    4e1a:	48 c1 ea 02          	shr    $0x2,%rdx
    4e1e:	48 0f af d1          	imul   %rcx,%rdx
    4e22:	48 b9 ff ff ff ff ff 	movabs $0x3fffffffffffffff,%rcx
    4e29:	ff ff 3f 
    4e2c:	48 21 ca             	and    %rcx,%rdx
    4e2f:	48 8d 0c 52          	lea    (%rdx,%rdx,2),%rcx
    4e33:	4c 8d 44 88 18       	lea    0x18(%rax,%rcx,4),%r8
    4e38:	4c 89 e1             	mov    %r12,%rcx
    4e3b:	0f 1f 44 00 00       	nopl   0x0(%rax,%rax,1)
    4e40:	48 85 c9             	test   %rcx,%rcx
    4e43:	0f 84 8f 00 00 00    	je     4ed8 <_ZNSt6vectorIN3rtm4vec3ESaIS1_EE12emplace_backIJS1_EEEvDpOT_+0x1c8>
    4e49:	48 8b 06             	mov    (%rsi),%rax
    4e4c:	48 83 c1 0c          	add    $0xc,%rcx
    4e50:	48 83 c6 0c          	add    $0xc,%rsi
    4e54:	48 89 41 f4          	mov    %rax,-0xc(%rcx)
    4e58:	8b 46 fc             	mov    -0x4(%rsi),%eax
    4e5b:	89 41 fc             	mov    %eax,-0x4(%rcx)
    4e5e:	4c 39 c1             	cmp    %r8,%rcx
    4e61:	75 dd                	jne    4e40 <_ZNSt6vectorIN3rtm4vec3ESaIS1_EE12emplace_backIJS1_EEEvDpOT_+0x130>
    4e63:	48 8d 44 52 03       	lea    0x3(%rdx,%rdx,2),%rax
    4e68:	4d 8d 24 84          	lea    (%r12,%rax,4),%r12
    4e6c:	48 85 ff             	test   %rdi,%rdi
    4e6f:	74 05                	je     4e76 <_ZNSt6vectorIN3rtm4vec3ESaIS1_EE12emplace_backIJS1_EEEvDpOT_+0x166>
    4e71:	e8 9a d0 ff ff       	callq  1f10 <_ZdlPv@plt>
    4e76:	4d 01 f5             	add    %r14,%r13
    4e79:	4c 89 75 00          	mov    %r14,0x0(%rbp)
    4e7d:	4c 89 65 08          	mov    %r12,0x8(%rbp)
    4e81:	4c 89 6d 10          	mov    %r13,0x10(%rbp)
    4e85:	48 83 c4 08          	add    $0x8,%rsp
    4e89:	5b                   	pop    %rbx
    4e8a:	5d                   	pop    %rbp
    4e8b:	41 5c                	pop    %r12
    4e8d:	41 5d                	pop    %r13
    4e8f:	41 5e                	pop    %r14
    4e91:	41 5f                	pop    %r15
    4e93:	c3                   	retq   
    4e94:	0f 1f 40 00          	nopl   0x0(%rax)
    4e98:	41 bd 0c 00 00 00    	mov    $0xc,%r13d
    4e9e:	e9 e4 fe ff ff       	jmpq   4d87 <_ZNSt6vectorIN3rtm4vec3ESaIS1_EE12emplace_backIJS1_EEEvDpOT_+0x77>
    4ea3:	0f 1f 44 00 00       	nopl   0x0(%rax,%rax,1)
    4ea8:	48 b8 55 55 55 55 55 	movabs $0x1555555555555555,%rax
    4eaf:	55 55 15 
    4eb2:	49 39 c5             	cmp    %rax,%r13
    4eb5:	0f 87 c5 fe ff ff    	ja     4d80 <_ZNSt6vectorIN3rtm4vec3ESaIS1_EE12emplace_backIJS1_EEEvDpOT_+0x70>
    4ebb:	45 31 f6             	xor    %r14d,%r14d
    4ebe:	4d 85 ed             	test   %r13,%r13
    4ec1:	0f 84 cf fe ff ff    	je     4d96 <_ZNSt6vectorIN3rtm4vec3ESaIS1_EE12emplace_backIJS1_EEEvDpOT_+0x86>
    4ec7:	4d 6b ed 0c          	imul   $0xc,%r13,%r13
    4ecb:	e9 b7 fe ff ff       	jmpq   4d87 <_ZNSt6vectorIN3rtm4vec3ESaIS1_EE12emplace_backIJS1_EEEvDpOT_+0x77>
    4ed0:	4c 89 f0             	mov    %r14,%rax
    4ed3:	e9 25 ff ff ff       	jmpq   4dfd <_ZNSt6vectorIN3rtm4vec3ESaIS1_EE12emplace_backIJS1_EEEvDpOT_+0xed>
    4ed8:	48 83 c6 0c          	add    $0xc,%rsi
    4edc:	49 83 f8 0c          	cmp    $0xc,%r8
    4ee0:	0f 84 7d ff ff ff    	je     4e63 <_ZNSt6vectorIN3rtm4vec3ESaIS1_EE12emplace_backIJS1_EEEvDpOT_+0x153>
    4ee6:	b9 0c 00 00 00       	mov    $0xc,%ecx
    4eeb:	e9 59 ff ff ff       	jmpq   4e49 <_ZNSt6vectorIN3rtm4vec3ESaIS1_EE12emplace_backIJS1_EEEvDpOT_+0x139>
    4ef0:	48 83 c6 0c          	add    $0xc,%rsi
    4ef4:	48 83 f8 0c          	cmp    $0xc,%rax
    4ef8:	0f 84 ff fe ff ff    	je     4dfd <_ZNSt6vectorIN3rtm4vec3ESaIS1_EE12emplace_backIJS1_EEEvDpOT_+0xed>
    4efe:	b9 0c 00 00 00       	mov    $0xc,%ecx
    4f03:	e9 d9 fe ff ff       	jmpq   4de1 <_ZNSt6vectorIN3rtm4vec3ESaIS1_EE12emplace_backIJS1_EEEvDpOT_+0xd1>
    4f08:	0f 1f 84 00 00 00 00 	nopl   0x0(%rax,%rax,1)
    4f0f:	00 

0000000000004f10 <_ZNSt6vectorIN3rtm4vec2ESaIS1_EE12emplace_backIJS1_EEEvDpOT_>:
    4f10:	48 8b 57 08          	mov    0x8(%rdi),%rdx
    4f14:	48 3b 57 10          	cmp    0x10(%rdi),%rdx
    4f18:	74 16                	je     4f30 <_ZNSt6vectorIN3rtm4vec2ESaIS1_EE12emplace_backIJS1_EEEvDpOT_+0x20>
    4f1a:	48 85 d2             	test   %rdx,%rdx
    4f1d:	74 06                	je     4f25 <_ZNSt6vectorIN3rtm4vec2ESaIS1_EE12emplace_backIJS1_EEEvDpOT_+0x15>
    4f1f:	48 8b 06             	mov    (%rsi),%rax
    4f22:	48 89 02             	mov    %rax,(%rdx)
    4f25:	48 83 c2 08          	add    $0x8,%rdx
    4f29:	48 89 57 08          	mov    %rdx,0x8(%rdi)
    4f2d:	c3                   	retq   
    4f2e:	66 90                	xchg   %ax,%ax
    4f30:	41 57                	push   %r15
    4f32:	41 56                	push   %r14
    4f34:	49 89 d7             	mov    %rdx,%r15
    4f37:	41 55                	push   %r13
    4f39:	41 54                	push   %r12
    4f3b:	49 89 f4             	mov    %rsi,%r12
    4f3e:	55                   	push   %rbp
    4f3f:	53                   	push   %rbx
    4f40:	48 89 d5             	mov    %rdx,%rbp
    4f43:	48 89 fb             	mov    %rdi,%rbx
    4f46:	48 83 ec 08          	sub    $0x8,%rsp
    4f4a:	4c 2b 3f             	sub    (%rdi),%r15
    4f4d:	4c 89 f8             	mov    %r15,%rax
    4f50:	48 c1 f8 03          	sar    $0x3,%rax
    4f54:	48 85 c0             	test   %rax,%rax
    4f57:	0f 84 e3 00 00 00    	je     5040 <_ZNSt6vectorIN3rtm4vec2ESaIS1_EE12emplace_backIJS1_EEEvDpOT_+0x130>
    4f5d:	4c 8d 2c 00          	lea    (%rax,%rax,1),%r13
    4f61:	4c 39 e8             	cmp    %r13,%rax
    4f64:	0f 86 e6 00 00 00    	jbe    5050 <_ZNSt6vectorIN3rtm4vec2ESaIS1_EE12emplace_backIJS1_EEEvDpOT_+0x140>
    4f6a:	49 c7 c5 f8 ff ff ff 	mov    $0xfffffffffffffff8,%r13
    4f71:	4c 89 ef             	mov    %r13,%rdi
    4f74:	e8 d7 cf ff ff       	callq  1f50 <_Znwm@plt>
    4f79:	48 8b 53 08          	mov    0x8(%rbx),%rdx
    4f7d:	49 89 c6             	mov    %rax,%r14
    4f80:	4d 01 f7             	add    %r14,%r15
    4f83:	74 07                	je     4f8c <_ZNSt6vectorIN3rtm4vec2ESaIS1_EE12emplace_backIJS1_EEEvDpOT_+0x7c>
    4f85:	49 8b 04 24          	mov    (%r12),%rax
    4f89:	49 89 07             	mov    %rax,(%r15)
    4f8c:	48 8b 3b             	mov    (%rbx),%rdi
    4f8f:	48 39 fd             	cmp    %rdi,%rbp
    4f92:	0f 84 e8 00 00 00    	je     5080 <_ZNSt6vectorIN3rtm4vec2ESaIS1_EE12emplace_backIJS1_EEEvDpOT_+0x170>
    4f98:	4c 89 f6             	mov    %r14,%rsi
    4f9b:	48 89 f9             	mov    %rdi,%rcx
    4f9e:	66 90                	xchg   %ax,%ax
    4fa0:	48 85 f6             	test   %rsi,%rsi
    4fa3:	0f 84 f6 00 00 00    	je     509f <_ZNSt6vectorIN3rtm4vec2ESaIS1_EE12emplace_backIJS1_EEEvDpOT_+0x18f>
    4fa9:	48 8b 01             	mov    (%rcx),%rax
    4fac:	48 83 c1 08          	add    $0x8,%rcx
    4fb0:	48 83 c6 08          	add    $0x8,%rsi
    4fb4:	48 89 46 f8          	mov    %rax,-0x8(%rsi)
    4fb8:	48 39 cd             	cmp    %rcx,%rbp
    4fbb:	75 e3                	jne    4fa0 <_ZNSt6vectorIN3rtm4vec2ESaIS1_EE12emplace_backIJS1_EEEvDpOT_+0x90>
    4fbd:	48 8d 47 08          	lea    0x8(%rdi),%rax
    4fc1:	48 89 e9             	mov    %rbp,%rcx
    4fc4:	48 29 c1             	sub    %rax,%rcx
    4fc7:	48 89 c8             	mov    %rcx,%rax
    4fca:	48 c1 e8 03          	shr    $0x3,%rax
    4fce:	4d 8d 64 c6 08       	lea    0x8(%r14,%rax,8),%r12
    4fd3:	49 83 c4 08          	add    $0x8,%r12
    4fd7:	48 39 d5             	cmp    %rdx,%rbp
    4fda:	74 39                	je     5015 <_ZNSt6vectorIN3rtm4vec2ESaIS1_EE12emplace_backIJS1_EEEvDpOT_+0x105>
    4fdc:	4c 89 e6             	mov    %r12,%rsi
    4fdf:	48 89 e9             	mov    %rbp,%rcx
    4fe2:	66 0f 1f 44 00 00    	nopw   0x0(%rax,%rax,1)
    4fe8:	48 85 f6             	test   %rsi,%rsi
    4feb:	0f 84 97 00 00 00    	je     5088 <_ZNSt6vectorIN3rtm4vec2ESaIS1_EE12emplace_backIJS1_EEEvDpOT_+0x178>
    4ff1:	4c 8b 01             	mov    (%rcx),%r8
    4ff4:	48 83 c1 08          	add    $0x8,%rcx
    4ff8:	48 83 c6 08          	add    $0x8,%rsi
    4ffc:	4c 89 46 f8          	mov    %r8,-0x8(%rsi)
    5000:	48 39 ca             	cmp    %rcx,%rdx
    5003:	75 e3                	jne    4fe8 <_ZNSt6vectorIN3rtm4vec2ESaIS1_EE12emplace_backIJS1_EEEvDpOT_+0xd8>
    5005:	48 83 c5 08          	add    $0x8,%rbp
    5009:	48 29 ea             	sub    %rbp,%rdx
    500c:	48 c1 ea 03          	shr    $0x3,%rdx
    5010:	4d 8d 64 d4 08       	lea    0x8(%r12,%rdx,8),%r12
    5015:	48 85 ff             	test   %rdi,%rdi
    5018:	74 05                	je     501f <_ZNSt6vectorIN3rtm4vec2ESaIS1_EE12emplace_backIJS1_EEEvDpOT_+0x10f>
    501a:	e8 f1 ce ff ff       	callq  1f10 <_ZdlPv@plt>
    501f:	4d 01 f5             	add    %r14,%r13
    5022:	4c 89 33             	mov    %r14,(%rbx)
    5025:	4c 89 63 08          	mov    %r12,0x8(%rbx)
    5029:	4c 89 6b 10          	mov    %r13,0x10(%rbx)
    502d:	48 83 c4 08          	add    $0x8,%rsp
    5031:	5b                   	pop    %rbx
    5032:	5d                   	pop    %rbp
    5033:	41 5c                	pop    %r12
    5035:	41 5d                	pop    %r13
    5037:	41 5e                	pop    %r14
    5039:	41 5f                	pop    %r15
    503b:	c3                   	retq   
    503c:	0f 1f 40 00          	nopl   0x0(%rax)
    5040:	41 bd 08 00 00 00    	mov    $0x8,%r13d
    5046:	e9 26 ff ff ff       	jmpq   4f71 <_ZNSt6vectorIN3rtm4vec2ESaIS1_EE12emplace_backIJS1_EEEvDpOT_+0x61>
    504b:	0f 1f 44 00 00       	nopl   0x0(%rax,%rax,1)
    5050:	48 b9 ff ff ff ff ff 	movabs $0x1fffffffffffffff,%rcx
    5057:	ff ff 1f 
    505a:	49 39 cd             	cmp    %rcx,%r13
    505d:	0f 87 07 ff ff ff    	ja     4f6a <_ZNSt6vectorIN3rtm4vec2ESaIS1_EE12emplace_backIJS1_EEEvDpOT_+0x5a>
    5063:	45 31 f6             	xor    %r14d,%r14d
    5066:	4d 85 ed             	test   %r13,%r13
    5069:	0f 84 11 ff ff ff    	je     4f80 <_ZNSt6vectorIN3rtm4vec2ESaIS1_EE12emplace_backIJS1_EEEvDpOT_+0x70>
    506f:	48 c1 e0 04          	shl    $0x4,%rax
    5073:	49 89 c5             	mov    %rax,%r13
    5076:	e9 f6 fe ff ff       	jmpq   4f71 <_ZNSt6vectorIN3rtm4vec2ESaIS1_EE12emplace_backIJS1_EEEvDpOT_+0x61>
    507b:	0f 1f 44 00 00       	nopl   0x0(%rax,%rax,1)
    5080:	4d 89 f4             	mov    %r14,%r12
    5083:	e9 4b ff ff ff       	jmpq   4fd3 <_ZNSt6vectorIN3rtm4vec2ESaIS1_EE12emplace_backIJS1_EEEvDpOT_+0xc3>
    5088:	48 83 c1 08          	add    $0x8,%rcx
    508c:	48 39 ca             	cmp    %rcx,%rdx
    508f:	0f 84 70 ff ff ff    	je     5005 <_ZNSt6vectorIN3rtm4vec2ESaIS1_EE12emplace_backIJS1_EEEvDpOT_+0xf5>
    5095:	be 08 00 00 00       	mov    $0x8,%esi
    509a:	e9 52 ff ff ff       	jmpq   4ff1 <_ZNSt6vectorIN3rtm4vec2ESaIS1_EE12emplace_backIJS1_EEEvDpOT_+0xe1>
    509f:	48 83 c1 08          	add    $0x8,%rcx
    50a3:	48 39 cd             	cmp    %rcx,%rbp
    50a6:	0f 84 11 ff ff ff    	je     4fbd <_ZNSt6vectorIN3rtm4vec2ESaIS1_EE12emplace_backIJS1_EEEvDpOT_+0xad>
    50ac:	be 08 00 00 00       	mov    $0x8,%esi
    50b1:	e9 f3 fe ff ff       	jmpq   4fa9 <_ZNSt6vectorIN3rtm4vec2ESaIS1_EE12emplace_backIJS1_EEEvDpOT_+0x99>
    50b6:	66 2e 0f 1f 84 00 00 	nopw   %cs:0x0(%rax,%rax,1)
    50bd:	00 00 00 

00000000000050c0 <_ZNSt6vectorIN3rtm5uvec3ESaIS1_EE12emplace_backIJS1_EEEvDpOT_>:
    50c0:	48 8b 57 08          	mov    0x8(%rdi),%rdx
    50c4:	48 3b 57 10          	cmp    0x10(%rdi),%rdx
    50c8:	74 1e                	je     50e8 <_ZNSt6vectorIN3rtm5uvec3ESaIS1_EE12emplace_backIJS1_EEEvDpOT_+0x28>
    50ca:	48 85 d2             	test   %rdx,%rdx
    50cd:	74 0c                	je     50db <_ZNSt6vectorIN3rtm5uvec3ESaIS1_EE12emplace_backIJS1_EEEvDpOT_+0x1b>
    50cf:	48 8b 06             	mov    (%rsi),%rax
    50d2:	48 89 02             	mov    %rax,(%rdx)
    50d5:	8b 46 08             	mov    0x8(%rsi),%eax
    50d8:	89 42 08             	mov    %eax,0x8(%rdx)
    50db:	48 83 c2 0c          	add    $0xc,%rdx
    50df:	48 89 57 08          	mov    %rdx,0x8(%rdi)
    50e3:	c3                   	retq   
    50e4:	0f 1f 40 00          	nopl   0x0(%rax)
    50e8:	41 57                	push   %r15
    50ea:	41 56                	push   %r14
    50ec:	49 89 d7             	mov    %rdx,%r15
    50ef:	41 55                	push   %r13
    50f1:	41 54                	push   %r12
    50f3:	48 b9 ab aa aa aa aa 	movabs $0xaaaaaaaaaaaaaaab,%rcx
    50fa:	aa aa aa 
    50fd:	55                   	push   %rbp
    50fe:	53                   	push   %rbx
    50ff:	49 89 f4             	mov    %rsi,%r12
    5102:	48 89 d3             	mov    %rdx,%rbx
    5105:	48 89 fd             	mov    %rdi,%rbp
    5108:	48 83 ec 08          	sub    $0x8,%rsp
    510c:	4c 2b 3f             	sub    (%rdi),%r15
    510f:	4c 89 f8             	mov    %r15,%rax
    5112:	48 c1 f8 02          	sar    $0x2,%rax
    5116:	48 0f af c1          	imul   %rcx,%rax
    511a:	48 85 c0             	test   %rax,%rax
    511d:	0f 84 25 01 00 00    	je     5248 <_ZNSt6vectorIN3rtm5uvec3ESaIS1_EE12emplace_backIJS1_EEEvDpOT_+0x188>
    5123:	4c 8d 2c 00          	lea    (%rax,%rax,1),%r13
    5127:	4c 39 e8             	cmp    %r13,%rax
    512a:	0f 86 28 01 00 00    	jbe    5258 <_ZNSt6vectorIN3rtm5uvec3ESaIS1_EE12emplace_backIJS1_EEEvDpOT_+0x198>
    5130:	49 c7 c5 fc ff ff ff 	mov    $0xfffffffffffffffc,%r13
    5137:	4c 89 ef             	mov    %r13,%rdi
    513a:	e8 11 ce ff ff       	callq  1f50 <_Znwm@plt>
    513f:	48 8b 55 08          	mov    0x8(%rbp),%rdx
    5143:	49 89 c6             	mov    %rax,%r14
    5146:	4d 01 f7             	add    %r14,%r15
    5149:	74 10                	je     515b <_ZNSt6vectorIN3rtm5uvec3ESaIS1_EE12emplace_backIJS1_EEEvDpOT_+0x9b>
    514b:	49 8b 04 24          	mov    (%r12),%rax
    514f:	49 89 07             	mov    %rax,(%r15)
    5152:	41 8b 44 24 08       	mov    0x8(%r12),%eax
    5157:	41 89 47 08          	mov    %eax,0x8(%r15)
    515b:	48 8b 7d 00          	mov    0x0(%rbp),%rdi
    515f:	48 39 fb             	cmp    %rdi,%rbx
    5162:	0f 84 18 01 00 00    	je     5280 <_ZNSt6vectorIN3rtm5uvec3ESaIS1_EE12emplace_backIJS1_EEEvDpOT_+0x1c0>
    5168:	48 8d 47 0c          	lea    0xc(%rdi),%rax
    516c:	48 89 d9             	mov    %rbx,%rcx
    516f:	48 89 fe             	mov    %rdi,%rsi
    5172:	48 29 c1             	sub    %rax,%rcx
    5175:	48 89 c8             	mov    %rcx,%rax
    5178:	4c 89 f1             	mov    %r14,%rcx
    517b:	48 c1 e8 02          	shr    $0x2,%rax
    517f:	49 8d 44 86 0c       	lea    0xc(%r14,%rax,4),%rax
    5184:	0f 1f 40 00          	nopl   0x0(%rax)
    5188:	48 85 c9             	test   %rcx,%rcx
    518b:	0f 84 0f 01 00 00    	je     52a0 <_ZNSt6vectorIN3rtm5uvec3ESaIS1_EE12emplace_backIJS1_EEEvDpOT_+0x1e0>
    5191:	4c 8b 06             	mov    (%rsi),%r8
    5194:	48 83 c1 0c          	add    $0xc,%rcx
    5198:	48 83 c6 0c          	add    $0xc,%rsi
    519c:	4c 89 41 f4          	mov    %r8,-0xc(%rcx)
    51a0:	44 8b 46 fc          	mov    -0x4(%rsi),%r8d
    51a4:	44 89 41 fc          	mov    %r8d,-0x4(%rcx)
    51a8:	48 39 c8             	cmp    %rcx,%rax
    51ab:	75 db                	jne    5188 <_ZNSt6vectorIN3rtm5uvec3ESaIS1_EE12emplace_backIJS1_EEEvDpOT_+0xc8>
    51ad:	48 39 d3             	cmp    %rdx,%rbx
    51b0:	4c 8d 60 0c          	lea    0xc(%rax),%r12
    51b4:	74 66                	je     521c <_ZNSt6vectorIN3rtm5uvec3ESaIS1_EE12emplace_backIJS1_EEEvDpOT_+0x15c>
    51b6:	48 8d 4b 0c          	lea    0xc(%rbx),%rcx
    51ba:	48 89 de             	mov    %rbx,%rsi
    51bd:	48 29 ca             	sub    %rcx,%rdx
    51c0:	48 b9 ab aa aa aa aa 	movabs $0x2aaaaaaaaaaaaaab,%rcx
    51c7:	aa aa 2a 
    51ca:	48 c1 ea 02          	shr    $0x2,%rdx
    51ce:	48 0f af d1          	imul   %rcx,%rdx
    51d2:	48 b9 ff ff ff ff ff 	movabs $0x3fffffffffffffff,%rcx
    51d9:	ff ff 3f 
    51dc:	48 21 ca             	and    %rcx,%rdx
    51df:	48 8d 0c 52          	lea    (%rdx,%rdx,2),%rcx
    51e3:	4c 8d 44 88 18       	lea    0x18(%rax,%rcx,4),%r8
    51e8:	4c 89 e1             	mov    %r12,%rcx
    51eb:	0f 1f 44 00 00       	nopl   0x0(%rax,%rax,1)
    51f0:	48 85 c9             	test   %rcx,%rcx
    51f3:	0f 84 8f 00 00 00    	je     5288 <_ZNSt6vectorIN3rtm5uvec3ESaIS1_EE12emplace_backIJS1_EEEvDpOT_+0x1c8>
    51f9:	48 8b 06             	mov    (%rsi),%rax
    51fc:	48 83 c1 0c          	add    $0xc,%rcx
    5200:	48 83 c6 0c          	add    $0xc,%rsi
    5204:	48 89 41 f4          	mov    %rax,-0xc(%rcx)
    5208:	8b 46 fc             	mov    -0x4(%rsi),%eax
    520b:	89 41 fc             	mov    %eax,-0x4(%rcx)
    520e:	4c 39 c1             	cmp    %r8,%rcx
    5211:	75 dd                	jne    51f0 <_ZNSt6vectorIN3rtm5uvec3ESaIS1_EE12emplace_backIJS1_EEEvDpOT_+0x130>
    5213:	48 8d 44 52 03       	lea    0x3(%rdx,%rdx,2),%rax
    5218:	4d 8d 24 84          	lea    (%r12,%rax,4),%r12
    521c:	48 85 ff             	test   %rdi,%rdi
    521f:	74 05                	je     5226 <_ZNSt6vectorIN3rtm5uvec3ESaIS1_EE12emplace_backIJS1_EEEvDpOT_+0x166>
    5221:	e8 ea cc ff ff       	callq  1f10 <_ZdlPv@plt>
    5226:	4d 01 f5             	add    %r14,%r13
    5229:	4c 89 75 00          	mov    %r14,0x0(%rbp)
    522d:	4c 89 65 08          	mov    %r12,0x8(%rbp)
    5231:	4c 89 6d 10          	mov    %r13,0x10(%rbp)
    5235:	48 83 c4 08          	add    $0x8,%rsp
    5239:	5b                   	pop    %rbx
    523a:	5d                   	pop    %rbp
    523b:	41 5c                	pop    %r12
    523d:	41 5d                	pop    %r13
    523f:	41 5e                	pop    %r14
    5241:	41 5f                	pop    %r15
    5243:	c3                   	retq   
    5244:	0f 1f 40 00          	nopl   0x0(%rax)
    5248:	41 bd 0c 00 00 00    	mov    $0xc,%r13d
    524e:	e9 e4 fe ff ff       	jmpq   5137 <_ZNSt6vectorIN3rtm5uvec3ESaIS1_EE12emplace_backIJS1_EEEvDpOT_+0x77>
    5253:	0f 1f 44 00 00       	nopl   0x0(%rax,%rax,1)
    5258:	48 b8 55 55 55 55 55 	movabs $0x1555555555555555,%rax
    525f:	55 55 15 
    5262:	49 39 c5             	cmp    %rax,%r13
    5265:	0f 87 c5 fe ff ff    	ja     5130 <_ZNSt6vectorIN3rtm5uvec3ESaIS1_EE12emplace_backIJS1_EEEvDpOT_+0x70>
    526b:	45 31 f6             	xor    %r14d,%r14d
    526e:	4d 85 ed             	test   %r13,%r13
    5271:	0f 84 cf fe ff ff    	je     5146 <_ZNSt6vectorIN3rtm5uvec3ESaIS1_EE12emplace_backIJS1_EEEvDpOT_+0x86>
    5277:	4d 6b ed 0c          	imul   $0xc,%r13,%r13
    527b:	e9 b7 fe ff ff       	jmpq   5137 <_ZNSt6vectorIN3rtm5uvec3ESaIS1_EE12emplace_backIJS1_EEEvDpOT_+0x77>
    5280:	4c 89 f0             	mov    %r14,%rax
    5283:	e9 25 ff ff ff       	jmpq   51ad <_ZNSt6vectorIN3rtm5uvec3ESaIS1_EE12emplace_backIJS1_EEEvDpOT_+0xed>
    5288:	48 83 c6 0c          	add    $0xc,%rsi
    528c:	49 83 f8 0c          	cmp    $0xc,%r8
    5290:	0f 84 7d ff ff ff    	je     5213 <_ZNSt6vectorIN3rtm5uvec3ESaIS1_EE12emplace_backIJS1_EEEvDpOT_+0x153>
    5296:	b9 0c 00 00 00       	mov    $0xc,%ecx
    529b:	e9 59 ff ff ff       	jmpq   51f9 <_ZNSt6vectorIN3rtm5uvec3ESaIS1_EE12emplace_backIJS1_EEEvDpOT_+0x139>
    52a0:	48 83 c6 0c          	add    $0xc,%rsi
    52a4:	48 83 f8 0c          	cmp    $0xc,%rax
    52a8:	0f 84 ff fe ff ff    	je     51ad <_ZNSt6vectorIN3rtm5uvec3ESaIS1_EE12emplace_backIJS1_EEEvDpOT_+0xed>
    52ae:	b9 0c 00 00 00       	mov    $0xc,%ecx
    52b3:	e9 d9 fe ff ff       	jmpq   5191 <_ZNSt6vectorIN3rtm5uvec3ESaIS1_EE12emplace_backIJS1_EEEvDpOT_+0xd1>
    52b8:	0f 1f 84 00 00 00 00 	nopl   0x0(%rax,%rax,1)
    52bf:	00 

00000000000052c0 <_ZNSt6vectorIN3rtm5uvec3ESaIS1_EE17_M_realloc_insertIJRKS1_EEEvN9__gnu_cxx17__normal_iteratorIPS1_S3_EEDpOT_>:
    52c0:	41 57                	push   %r15
    52c2:	41 56                	push   %r14
    52c4:	49 89 d7             	mov    %rdx,%r15
    52c7:	41 55                	push   %r13
    52c9:	41 54                	push   %r12
    52cb:	48 ba ab aa aa aa aa 	movabs $0xaaaaaaaaaaaaaaab,%rdx
    52d2:	aa aa aa 
    52d5:	55                   	push   %rbp
    52d6:	53                   	push   %rbx
    52d7:	48 89 fb             	mov    %rdi,%rbx
    52da:	49 89 f5             	mov    %rsi,%r13
    52dd:	49 89 f6             	mov    %rsi,%r14
    52e0:	48 83 ec 08          	sub    $0x8,%rsp
    52e4:	48 8b 43 08          	mov    0x8(%rbx),%rax
    52e8:	48 8b 3f             	mov    (%rdi),%rdi
    52eb:	48 89 c1             	mov    %rax,%rcx
    52ee:	49 29 fd             	sub    %rdi,%r13
    52f1:	48 29 f9             	sub    %rdi,%rcx
    52f4:	48 c1 f9 02          	sar    $0x2,%rcx
    52f8:	48 0f af ca          	imul   %rdx,%rcx
    52fc:	48 85 c9             	test   %rcx,%rcx
    52ff:	0f 84 0b 01 00 00    	je     5410 <_ZNSt6vectorIN3rtm5uvec3ESaIS1_EE17_M_realloc_insertIJRKS1_EEEvN9__gnu_cxx17__normal_iteratorIPS1_S3_EEDpOT_+0x150>
    5305:	48 8d 14 09          	lea    (%rcx,%rcx,1),%rdx
    5309:	49 c7 c4 fc ff ff ff 	mov    $0xfffffffffffffffc,%r12
    5310:	48 39 d1             	cmp    %rdx,%rcx
    5313:	0f 86 0f 01 00 00    	jbe    5428 <_ZNSt6vectorIN3rtm5uvec3ESaIS1_EE17_M_realloc_insertIJRKS1_EEEvN9__gnu_cxx17__normal_iteratorIPS1_S3_EEDpOT_+0x168>
    5319:	4c 89 e7             	mov    %r12,%rdi
    531c:	e8 2f cc ff ff       	callq  1f50 <_Znwm@plt>
    5321:	48 8b 3b             	mov    (%rbx),%rdi
    5324:	48 89 c5             	mov    %rax,%rbp
    5327:	48 8b 43 08          	mov    0x8(%rbx),%rax
    532b:	48 8d 4d 0c          	lea    0xc(%rbp),%rcx
    532f:	49 01 ec             	add    %rbp,%r12
    5332:	49 01 ed             	add    %rbp,%r13
    5335:	74 0f                	je     5346 <_ZNSt6vectorIN3rtm5uvec3ESaIS1_EE17_M_realloc_insertIJRKS1_EEEvN9__gnu_cxx17__normal_iteratorIPS1_S3_EEDpOT_+0x86>
    5337:	49 8b 17             	mov    (%r15),%rdx
    533a:	49 89 55 00          	mov    %rdx,0x0(%r13)
    533e:	41 8b 57 08          	mov    0x8(%r15),%edx
    5342:	41 89 55 08          	mov    %edx,0x8(%r13)
    5346:	49 39 fe             	cmp    %rdi,%r14
    5349:	74 4e                	je     5399 <_ZNSt6vectorIN3rtm5uvec3ESaIS1_EE17_M_realloc_insertIJRKS1_EEEvN9__gnu_cxx17__normal_iteratorIPS1_S3_EEDpOT_+0xd9>
    534b:	48 8d 57 0c          	lea    0xc(%rdi),%rdx
    534f:	4c 89 f6             	mov    %r14,%rsi
    5352:	49 89 f8             	mov    %rdi,%r8
    5355:	48 29 d6             	sub    %rdx,%rsi
    5358:	48 89 f2             	mov    %rsi,%rdx
    535b:	48 c1 ea 02          	shr    $0x2,%rdx
    535f:	48 8d 4c 95 0c       	lea    0xc(%rbp,%rdx,4),%rcx
    5364:	48 89 ea             	mov    %rbp,%rdx
    5367:	66 0f 1f 84 00 00 00 	nopw   0x0(%rax,%rax,1)
    536e:	00 00 
    5370:	48 85 d2             	test   %rdx,%rdx
    5373:	0f 84 dc 00 00 00    	je     5455 <_ZNSt6vectorIN3rtm5uvec3ESaIS1_EE17_M_realloc_insertIJRKS1_EEEvN9__gnu_cxx17__normal_iteratorIPS1_S3_EEDpOT_+0x195>
    5379:	4d 8b 08             	mov    (%r8),%r9
    537c:	48 83 c2 0c          	add    $0xc,%rdx
    5380:	49 83 c0 0c          	add    $0xc,%r8
    5384:	4c 89 4a f4          	mov    %r9,-0xc(%rdx)
    5388:	45 8b 48 fc          	mov    -0x4(%r8),%r9d
    538c:	44 89 4a fc          	mov    %r9d,-0x4(%rdx)
    5390:	48 39 d1             	cmp    %rdx,%rcx
    5393:	75 db                	jne    5370 <_ZNSt6vectorIN3rtm5uvec3ESaIS1_EE17_M_realloc_insertIJRKS1_EEEvN9__gnu_cxx17__normal_iteratorIPS1_S3_EEDpOT_+0xb0>
    5395:	48 83 c1 0c          	add    $0xc,%rcx
    5399:	49 39 c6             	cmp    %rax,%r14
    539c:	0f 84 ae 00 00 00    	je     5450 <_ZNSt6vectorIN3rtm5uvec3ESaIS1_EE17_M_realloc_insertIJRKS1_EEEvN9__gnu_cxx17__normal_iteratorIPS1_S3_EEDpOT_+0x190>
    53a2:	49 8d 56 0c          	lea    0xc(%r14),%rdx
    53a6:	4c 89 f6             	mov    %r14,%rsi
    53a9:	48 29 d0             	sub    %rdx,%rax
    53ac:	48 89 c2             	mov    %rax,%rdx
    53af:	48 c1 ea 02          	shr    $0x2,%rdx
    53b3:	4c 8d 6c 91 0c       	lea    0xc(%rcx,%rdx,4),%r13
    53b8:	0f 1f 84 00 00 00 00 	nopl   0x0(%rax,%rax,1)
    53bf:	00 
    53c0:	48 85 c9             	test   %rcx,%rcx
    53c3:	0f 84 a4 00 00 00    	je     546d <_ZNSt6vectorIN3rtm5uvec3ESaIS1_EE17_M_realloc_insertIJRKS1_EEEvN9__gnu_cxx17__normal_iteratorIPS1_S3_EEDpOT_+0x1ad>
    53c9:	48 8b 16             	mov    (%rsi),%rdx
    53cc:	48 83 c1 0c          	add    $0xc,%rcx
    53d0:	48 83 c6 0c          	add    $0xc,%rsi
    53d4:	48 89 51 f4          	mov    %rdx,-0xc(%rcx)
    53d8:	8b 56 fc             	mov    -0x4(%rsi),%edx
    53db:	89 51 fc             	mov    %edx,-0x4(%rcx)
    53de:	4c 39 e9             	cmp    %r13,%rcx
    53e1:	75 dd                	jne    53c0 <_ZNSt6vectorIN3rtm5uvec3ESaIS1_EE17_M_realloc_insertIJRKS1_EEEvN9__gnu_cxx17__normal_iteratorIPS1_S3_EEDpOT_+0x100>
    53e3:	48 85 ff             	test   %rdi,%rdi
    53e6:	74 05                	je     53ed <_ZNSt6vectorIN3rtm5uvec3ESaIS1_EE17_M_realloc_insertIJRKS1_EEEvN9__gnu_cxx17__normal_iteratorIPS1_S3_EEDpOT_+0x12d>
    53e8:	e8 23 cb ff ff       	callq  1f10 <_ZdlPv@plt>
    53ed:	48 89 2b             	mov    %rbp,(%rbx)
    53f0:	4c 89 6b 08          	mov    %r13,0x8(%rbx)
    53f4:	4c 89 63 10          	mov    %r12,0x10(%rbx)
    53f8:	48 83 c4 08          	add    $0x8,%rsp
    53fc:	5b                   	pop    %rbx
    53fd:	5d                   	pop    %rbp
    53fe:	41 5c                	pop    %r12
    5400:	41 5d                	pop    %r13
    5402:	41 5e                	pop    %r14
    5404:	41 5f                	pop    %r15
    5406:	c3                   	retq   
    5407:	66 0f 1f 84 00 00 00 	nopw   0x0(%rax,%rax,1)
    540e:	00 00 
    5410:	ba 01 00 00 00       	mov    $0x1,%edx
    5415:	4c 8d 24 52          	lea    (%rdx,%rdx,2),%r12
    5419:	49 c1 e4 02          	shl    $0x2,%r12
    541d:	e9 f7 fe ff ff       	jmpq   5319 <_ZNSt6vectorIN3rtm5uvec3ESaIS1_EE17_M_realloc_insertIJRKS1_EEEvN9__gnu_cxx17__normal_iteratorIPS1_S3_EEDpOT_+0x59>
    5422:	66 0f 1f 44 00 00    	nopw   0x0(%rax,%rax,1)
    5428:	48 b9 55 55 55 55 55 	movabs $0x1555555555555555,%rcx
    542f:	55 55 15 
    5432:	48 39 ca             	cmp    %rcx,%rdx
    5435:	0f 87 de fe ff ff    	ja     5319 <_ZNSt6vectorIN3rtm5uvec3ESaIS1_EE17_M_realloc_insertIJRKS1_EEEvN9__gnu_cxx17__normal_iteratorIPS1_S3_EEDpOT_+0x59>
    543b:	48 85 d2             	test   %rdx,%rdx
    543e:	75 d5                	jne    5415 <_ZNSt6vectorIN3rtm5uvec3ESaIS1_EE17_M_realloc_insertIJRKS1_EEEvN9__gnu_cxx17__normal_iteratorIPS1_S3_EEDpOT_+0x155>
    5440:	b9 0c 00 00 00       	mov    $0xc,%ecx
    5445:	45 31 e4             	xor    %r12d,%r12d
    5448:	31 ed                	xor    %ebp,%ebp
    544a:	e9 e3 fe ff ff       	jmpq   5332 <_ZNSt6vectorIN3rtm5uvec3ESaIS1_EE17_M_realloc_insertIJRKS1_EEEvN9__gnu_cxx17__normal_iteratorIPS1_S3_EEDpOT_+0x72>
    544f:	90                   	nop
    5450:	49 89 cd             	mov    %rcx,%r13
    5453:	eb 8e                	jmp    53e3 <_ZNSt6vectorIN3rtm5uvec3ESaIS1_EE17_M_realloc_insertIJRKS1_EEEvN9__gnu_cxx17__normal_iteratorIPS1_S3_EEDpOT_+0x123>
    5455:	49 83 c0 0c          	add    $0xc,%r8
    5459:	48 83 f9 0c          	cmp    $0xc,%rcx
    545d:	0f 84 32 ff ff ff    	je     5395 <_ZNSt6vectorIN3rtm5uvec3ESaIS1_EE17_M_realloc_insertIJRKS1_EEEvN9__gnu_cxx17__normal_iteratorIPS1_S3_EEDpOT_+0xd5>
    5463:	ba 0c 00 00 00       	mov    $0xc,%edx
    5468:	e9 0c ff ff ff       	jmpq   5379 <_ZNSt6vectorIN3rtm5uvec3ESaIS1_EE17_M_realloc_insertIJRKS1_EEEvN9__gnu_cxx17__normal_iteratorIPS1_S3_EEDpOT_+0xb9>
    546d:	48 83 c6 0c          	add    $0xc,%rsi
    5471:	49 83 fd 0c          	cmp    $0xc,%r13
    5475:	0f 84 68 ff ff ff    	je     53e3 <_ZNSt6vectorIN3rtm5uvec3ESaIS1_EE17_M_realloc_insertIJRKS1_EEEvN9__gnu_cxx17__normal_iteratorIPS1_S3_EEDpOT_+0x123>
    547b:	b9 0c 00 00 00       	mov    $0xc,%ecx
    5480:	e9 44 ff ff ff       	jmpq   53c9 <_ZNSt6vectorIN3rtm5uvec3ESaIS1_EE17_M_realloc_insertIJRKS1_EEEvN9__gnu_cxx17__normal_iteratorIPS1_S3_EEDpOT_+0x109>
    5485:	66 2e 0f 1f 84 00 00 	nopw   %cs:0x0(%rax,%rax,1)
    548c:	00 00 00 
    548f:	90                   	nop

0000000000005490 <_ZN4Mesh8load_objEPKc>:
    5490:	41 57                	push   %r15
    5492:	41 56                	push   %r14
    5494:	41 55                	push   %r13
    5496:	41 54                	push   %r12
    5498:	55                   	push   %rbp
    5499:	53                   	push   %rbx
    549a:	48 89 fd             	mov    %rdi,%rbp
    549d:	48 89 f3             	mov    %rsi,%rbx
    54a0:	48 81 ec 38 04 00 00 	sub    $0x438,%rsp
    54a7:	4c 8d bc 24 20 02 00 	lea    0x220(%rsp),%r15
    54ae:	00 
    54af:	48 89 74 24 18       	mov    %rsi,0x18(%rsp)
    54b4:	64 48 8b 04 25 28 00 	mov    %fs:0x28,%rax
    54bb:	00 00 
    54bd:	48 89 84 24 28 04 00 	mov    %rax,0x428(%rsp)
    54c4:	00 
    54c5:	31 c0                	xor    %eax,%eax
    54c7:	49 8d bf 00 01 00 00 	lea    0x100(%r15),%rdi
    54ce:	e8 6d c9 ff ff       	callq  1e40 <_ZNSt8ios_baseC2Ev@plt>
    54d3:	48 8d 05 7e 64 20 00 	lea    0x20647e(%rip),%rax        # 20b958 <_ZTVSt9basic_iosIcSt11char_traitsIcEE@@GLIBCXX_3.4+0x10>
    54da:	c6 84 24 00 04 00 00 	movb   $0x0,0x400(%rsp)
    54e1:	00 
    54e2:	48 8b 0d 4f 66 20 00 	mov    0x20664f(%rip),%rcx        # 20bb38 <_ZTTSt14basic_ifstreamIcSt11char_traitsIcEE@@GLIBCXX_3.4+0x10>
    54e9:	48 c7 84 24 f8 03 00 	movq   $0x0,0x3f8(%rsp)
    54f0:	00 00 00 00 00 
    54f5:	c6 84 24 01 04 00 00 	movb   $0x0,0x401(%rsp)
    54fc:	00 
    54fd:	31 f6                	xor    %esi,%esi
    54ff:	48 89 84 24 20 03 00 	mov    %rax,0x320(%rsp)
    5506:	00 
    5507:	48 8b 05 22 66 20 00 	mov    0x206622(%rip),%rax        # 20bb30 <_ZTTSt14basic_ifstreamIcSt11char_traitsIcEE@@GLIBCXX_3.4+0x8>
    550e:	48 c7 84 24 08 04 00 	movq   $0x0,0x408(%rsp)
    5515:	00 00 00 00 00 
    551a:	48 c7 84 24 10 04 00 	movq   $0x0,0x410(%rsp)
    5521:	00 00 00 00 00 
    5526:	48 c7 84 24 18 04 00 	movq   $0x0,0x418(%rsp)
    552d:	00 00 00 00 00 
    5532:	48 c7 84 24 20 04 00 	movq   $0x0,0x420(%rsp)
    5539:	00 00 00 00 00 
    553e:	48 89 84 24 20 02 00 	mov    %rax,0x220(%rsp)
    5545:	00 
    5546:	48 8b 40 e8          	mov    -0x18(%rax),%rax
    554a:	48 89 8c 04 20 02 00 	mov    %rcx,0x220(%rsp,%rax,1)
    5551:	00 
    5552:	48 8b 05 d7 65 20 00 	mov    0x2065d7(%rip),%rax        # 20bb30 <_ZTTSt14basic_ifstreamIcSt11char_traitsIcEE@@GLIBCXX_3.4+0x8>
    5559:	48 c7 84 24 28 02 00 	movq   $0x0,0x228(%rsp)
    5560:	00 00 00 00 00 
    5565:	48 8b 78 e8          	mov    -0x18(%rax),%rdi
    5569:	4c 01 ff             	add    %r15,%rdi
    556c:	e8 8f ca ff ff       	callq  2000 <_ZNSt9basic_iosIcSt11char_traitsIcEE4initEPSt15basic_streambufIcS1_E@plt>
    5571:	48 8d 05 f8 64 20 00 	lea    0x2064f8(%rip),%rax        # 20ba70 <_ZTVSt14basic_ifstreamIcSt11char_traitsIcEE@@GLIBCXX_3.4+0x18>
    5578:	49 8d 7f 10          	lea    0x10(%r15),%rdi
    557c:	48 89 84 24 20 02 00 	mov    %rax,0x220(%rsp)
    5583:	00 
    5584:	48 83 c0 28          	add    $0x28,%rax
    5588:	48 89 84 24 20 03 00 	mov    %rax,0x320(%rsp)
    558f:	00 
    5590:	e8 db c9 ff ff       	callq  1f70 <_ZNSt13basic_filebufIcSt11char_traitsIcEEC1Ev@plt>
    5595:	49 8d 77 10          	lea    0x10(%r15),%rsi
    5599:	49 8d bf 00 01 00 00 	lea    0x100(%r15),%rdi
    55a0:	e8 5b ca ff ff       	callq  2000 <_ZNSt9basic_iosIcSt11char_traitsIcEE4initEPSt15basic_streambufIcS1_E@plt>
    55a5:	49 8d 7f 10          	lea    0x10(%r15),%rdi
    55a9:	ba 08 00 00 00       	mov    $0x8,%edx
    55ae:	48 89 de             	mov    %rbx,%rsi
    55b1:	e8 3a c9 ff ff       	callq  1ef0 <_ZNSt13basic_filebufIcSt11char_traitsIcEE4openEPKcSt13_Ios_Openmode@plt>
    55b6:	48 8b 94 24 20 02 00 	mov    0x220(%rsp),%rdx
    55bd:	00 
    55be:	48 8b 7a e8          	mov    -0x18(%rdx),%rdi
    55c2:	4c 01 ff             	add    %r15,%rdi
    55c5:	48 85 c0             	test   %rax,%rax
    55c8:	0f 84 9a 0b 00 00    	je     6168 <_ZN4Mesh8load_objEPKc+0xcd8>
    55ce:	31 f6                	xor    %esi,%esi
    55d0:	e8 9b ca ff ff       	callq  2070 <_ZNSt9basic_iosIcSt11char_traitsIcEE5clearESt12_Ios_Iostate@plt>
    55d5:	49 8d 7f 78          	lea    0x78(%r15),%rdi
    55d9:	e8 22 c8 ff ff       	callq  1e00 <_ZNKSt12__basic_fileIcE7is_openEv@plt>
    55de:	84 c0                	test   %al,%al
    55e0:	88 44 24 14          	mov    %al,0x14(%rsp)
    55e4:	0f 84 bc 05 00 00    	je     5ba6 <_ZN4Mesh8load_objEPKc+0x716>
    55ea:	48 8d 44 24 60       	lea    0x60(%rsp),%rax
    55ef:	48 c7 44 24 68 00 00 	movq   $0x0,0x68(%rsp)
    55f6:	00 00 
    55f8:	c6 44 24 70 00       	movb   $0x0,0x70(%rsp)
    55fd:	48 89 44 24 08       	mov    %rax,0x8(%rsp)
    5602:	48 8d 44 24 70       	lea    0x70(%rsp),%rax
    5607:	48 89 44 24 60       	mov    %rax,0x60(%rsp)
    560c:	48 8b 84 24 20 02 00 	mov    0x220(%rsp),%rax
    5613:	00 
    5614:	48 8b 40 e8          	mov    -0x18(%rax),%rax
    5618:	4c 8b a4 04 10 03 00 	mov    0x310(%rsp,%rax,1),%r12
    561f:	00 
    5620:	4d 85 e4             	test   %r12,%r12
    5623:	0f 84 26 0e 00 00    	je     644f <_ZN4Mesh8load_objEPKc+0xfbf>
    5629:	48 8d 9c 24 a0 00 00 	lea    0xa0(%rsp),%rbx
    5630:	00 
    5631:	c6 44 24 17 00       	movb   $0x0,0x17(%rsp)
    5636:	c6 44 24 16 00       	movb   $0x0,0x16(%rsp)
    563b:	c6 44 24 15 00       	movb   $0x0,0x15(%rsp)
    5640:	4c 8b 2d f9 63 20 00 	mov    0x2063f9(%rip),%r13        # 20ba40 <_ZTTNSt7__cxx1119basic_istringstreamIcSt11char_traitsIcESaIcEEE@@GLIBCXX_3.4.21+0x8>
    5647:	48 8d 43 78          	lea    0x78(%rbx),%rax
    564b:	48 89 04 24          	mov    %rax,(%rsp)
    564f:	e9 33 01 00 00       	jmpq   5787 <_ZN4Mesh8load_objEPKc+0x2f7>
    5654:	0f 1f 40 00          	nopl   0x0(%rax)
    5658:	48 8d 74 24 40       	lea    0x40(%rsp),%rsi
    565d:	48 89 df             	mov    %rbx,%rdi
    5660:	e8 9b ca ff ff       	callq  2100 <_ZNSi10_M_extractIfEERSiRT_@plt>
    5665:	48 8d 74 24 44       	lea    0x44(%rsp),%rsi
    566a:	48 89 c7             	mov    %rax,%rdi
    566d:	e8 8e ca ff ff       	callq  2100 <_ZNSi10_M_extractIfEERSiRT_@plt>
    5672:	48 8d 4c 24 48       	lea    0x48(%rsp),%rcx
    5677:	48 89 c7             	mov    %rax,%rdi
    567a:	48 89 ce             	mov    %rcx,%rsi
    567d:	e8 7e ca ff ff       	callq  2100 <_ZNSi10_M_extractIfEERSiRT_@plt>
    5682:	f3 0f 10 44 24 40    	movss  0x40(%rsp),%xmm0
    5688:	48 8d 74 24 54       	lea    0x54(%rsp),%rsi
    568d:	f3 0f 11 44 24 54    	movss  %xmm0,0x54(%rsp)
    5693:	48 8d 7d 48          	lea    0x48(%rbp),%rdi
    5697:	f3 0f 10 44 24 44    	movss  0x44(%rsp),%xmm0
    569d:	f3 0f 11 44 24 58    	movss  %xmm0,0x58(%rsp)
    56a3:	f3 0f 10 44 24 48    	movss  0x48(%rsp),%xmm0
    56a9:	f3 0f 11 44 24 5c    	movss  %xmm0,0x5c(%rsp)
    56af:	e8 5c f6 ff ff       	callq  4d10 <_ZNSt6vectorIN3rtm4vec3ESaIS1_EE12emplace_backIJS1_EEEvDpOT_>
    56b4:	0f b6 44 24 14       	movzbl 0x14(%rsp),%eax
    56b9:	88 44 24 15          	mov    %al,0x15(%rsp)
    56bd:	48 8b bc 24 80 00 00 	mov    0x80(%rsp),%rdi
    56c4:	00 
    56c5:	49 83 c4 10          	add    $0x10,%r12
    56c9:	4c 39 e7             	cmp    %r12,%rdi
    56cc:	74 05                	je     56d3 <_ZN4Mesh8load_objEPKc+0x243>
    56ce:	e8 3d c8 ff ff       	callq  1f10 <_ZdlPv@plt>
    56d3:	48 8d 05 a6 62 20 00 	lea    0x2062a6(%rip),%rax        # 20b980 <_ZTVNSt7__cxx1119basic_istringstreamIcSt11char_traitsIcESaIcEEE@@GLIBCXX_3.4.21+0x18>
    56da:	48 8b bc 24 f8 00 00 	mov    0xf8(%rsp),%rdi
    56e1:	00 
    56e2:	48 89 84 24 a0 00 00 	mov    %rax,0xa0(%rsp)
    56e9:	00 
    56ea:	48 83 c0 28          	add    $0x28,%rax
    56ee:	48 89 84 24 18 01 00 	mov    %rax,0x118(%rsp)
    56f5:	00 
    56f6:	48 8d 05 5b 64 20 00 	lea    0x20645b(%rip),%rax        # 20bb58 <_ZTVNSt7__cxx1115basic_stringbufIcSt11char_traitsIcESaIcEEE@@GLIBCXX_3.4.21+0x10>
    56fd:	48 89 84 24 b0 00 00 	mov    %rax,0xb0(%rsp)
    5704:	00 
    5705:	48 8d 43 68          	lea    0x68(%rbx),%rax
    5709:	48 39 c7             	cmp    %rax,%rdi
    570c:	74 05                	je     5713 <_ZN4Mesh8load_objEPKc+0x283>
    570e:	e8 fd c7 ff ff       	callq  1f10 <_ZdlPv@plt>
    5713:	48 8d 05 ae 62 20 00 	lea    0x2062ae(%rip),%rax        # 20b9c8 <_ZTVSt15basic_streambufIcSt11char_traitsIcEE@@GLIBCXX_3.4+0x10>
    571a:	48 8d 7b 48          	lea    0x48(%rbx),%rdi
    571e:	48 89 84 24 b0 00 00 	mov    %rax,0xb0(%rsp)
    5725:	00 
    5726:	e8 f5 c8 ff ff       	callq  2020 <_ZNSt6localeD1Ev@plt>
    572b:	49 8b 45 e8          	mov    -0x18(%r13),%rax
    572f:	48 8b 0d 12 63 20 00 	mov    0x206312(%rip),%rcx        # 20ba48 <_ZTTNSt7__cxx1119basic_istringstreamIcSt11char_traitsIcESaIcEEE@@GLIBCXX_3.4.21+0x10>
    5736:	48 8b 3c 24          	mov    (%rsp),%rdi
    573a:	4c 89 ac 24 a0 00 00 	mov    %r13,0xa0(%rsp)
    5741:	00 
    5742:	48 89 8c 04 a0 00 00 	mov    %rcx,0xa0(%rsp,%rax,1)
    5749:	00 
    574a:	48 8d 05 07 62 20 00 	lea    0x206207(%rip),%rax        # 20b958 <_ZTVSt9basic_iosIcSt11char_traitsIcEE@@GLIBCXX_3.4+0x10>
    5751:	48 c7 84 24 a8 00 00 	movq   $0x0,0xa8(%rsp)
    5758:	00 00 00 00 00 
    575d:	48 89 84 24 18 01 00 	mov    %rax,0x118(%rsp)
    5764:	00 
    5765:	e8 e6 c6 ff ff       	callq  1e50 <_ZNSt8ios_baseD2Ev@plt>
    576a:	48 8b 84 24 20 02 00 	mov    0x220(%rsp),%rax
    5771:	00 
    5772:	48 8b 40 e8          	mov    -0x18(%rax),%rax
    5776:	4c 8b a4 04 10 03 00 	mov    0x310(%rsp,%rax,1),%r12
    577d:	00 
    577e:	4d 85 e4             	test   %r12,%r12
    5781:	0f 84 c8 0c 00 00    	je     644f <_ZN4Mesh8load_objEPKc+0xfbf>
    5787:	41 80 7c 24 38 00    	cmpb   $0x0,0x38(%r12)
    578d:	0f 84 8d 02 00 00    	je     5a20 <_ZN4Mesh8load_objEPKc+0x590>
    5793:	41 0f be 54 24 43    	movsbl 0x43(%r12),%edx
    5799:	48 8b 74 24 08       	mov    0x8(%rsp),%rsi
    579e:	4c 89 ff             	mov    %r15,%rdi
    57a1:	e8 2a c9 ff ff       	callq  20d0 <_ZSt7getlineIcSt11char_traitsIcESaIcEERSt13basic_istreamIT_T0_ES7_RNSt7__cxx1112basic_stringIS4_S5_T1_EES4_@plt>
    57a6:	48 8b 10             	mov    (%rax),%rdx
    57a9:	48 8b 52 e8          	mov    -0x18(%rdx),%rdx
    57ad:	f6 44 10 20 05       	testb  $0x5,0x20(%rax,%rdx,1)
    57b2:	0f 85 f8 02 00 00    	jne    5ab0 <_ZN4Mesh8load_objEPKc+0x620>
    57b8:	48 8b 3c 24          	mov    (%rsp),%rdi
    57bc:	e8 7f c6 ff ff       	callq  1e40 <_ZNSt8ios_baseC2Ev@plt>
    57c1:	66 0f ef c0          	pxor   %xmm0,%xmm0
    57c5:	48 8d 05 8c 61 20 00 	lea    0x20618c(%rip),%rax        # 20b958 <_ZTVSt9basic_iosIcSt11char_traitsIcEE@@GLIBCXX_3.4+0x10>
    57cc:	c6 84 24 f8 01 00 00 	movb   $0x0,0x1f8(%rsp)
    57d3:	00 
    57d4:	48 8b 0d 6d 62 20 00 	mov    0x20626d(%rip),%rcx        # 20ba48 <_ZTTNSt7__cxx1119basic_istringstreamIcSt11char_traitsIcESaIcEEE@@GLIBCXX_3.4.21+0x10>
    57db:	31 f6                	xor    %esi,%esi
    57dd:	48 89 84 24 18 01 00 	mov    %rax,0x118(%rsp)
    57e4:	00 
    57e5:	48 c7 84 24 f0 01 00 	movq   $0x0,0x1f0(%rsp)
    57ec:	00 00 00 00 00 
    57f1:	0f 29 84 24 00 02 00 	movaps %xmm0,0x200(%rsp)
    57f8:	00 
    57f9:	c6 84 24 f9 01 00 00 	movb   $0x0,0x1f9(%rsp)
    5800:	00 
    5801:	4c 89 ac 24 a0 00 00 	mov    %r13,0xa0(%rsp)
    5808:	00 
    5809:	0f 29 84 24 10 02 00 	movaps %xmm0,0x210(%rsp)
    5810:	00 
    5811:	49 8b 45 e8          	mov    -0x18(%r13),%rax
    5815:	48 89 8c 04 a0 00 00 	mov    %rcx,0xa0(%rsp,%rax,1)
    581c:	00 
    581d:	48 c7 84 24 a8 00 00 	movq   $0x0,0xa8(%rsp)
    5824:	00 00 00 00 00 
    5829:	49 8b 7d e8          	mov    -0x18(%r13),%rdi
    582d:	48 01 df             	add    %rbx,%rdi
    5830:	e8 cb c7 ff ff       	callq  2000 <_ZNSt9basic_iosIcSt11char_traitsIcEE4initEPSt15basic_streambufIcS1_E@plt>
    5835:	48 8d 05 44 61 20 00 	lea    0x206144(%rip),%rax        # 20b980 <_ZTVNSt7__cxx1119basic_istringstreamIcSt11char_traitsIcESaIcEEE@@GLIBCXX_3.4.21+0x18>
    583c:	48 8d 7b 48          	lea    0x48(%rbx),%rdi
    5840:	48 c7 84 24 b8 00 00 	movq   $0x0,0xb8(%rsp)
    5847:	00 00 00 00 00 
    584c:	48 c7 84 24 c0 00 00 	movq   $0x0,0xc0(%rsp)
    5853:	00 00 00 00 00 
    5858:	48 c7 84 24 c8 00 00 	movq   $0x0,0xc8(%rsp)
    585f:	00 00 00 00 00 
    5864:	48 89 84 24 a0 00 00 	mov    %rax,0xa0(%rsp)
    586b:	00 
    586c:	48 83 c0 28          	add    $0x28,%rax
    5870:	48 c7 84 24 d0 00 00 	movq   $0x0,0xd0(%rsp)
    5877:	00 00 00 00 00 
    587c:	48 89 84 24 18 01 00 	mov    %rax,0x118(%rsp)
    5883:	00 
    5884:	48 8d 05 3d 61 20 00 	lea    0x20613d(%rip),%rax        # 20b9c8 <_ZTVSt15basic_streambufIcSt11char_traitsIcEE@@GLIBCXX_3.4+0x10>
    588b:	48 c7 84 24 d8 00 00 	movq   $0x0,0xd8(%rsp)
    5892:	00 00 00 00 00 
    5897:	48 c7 84 24 e0 00 00 	movq   $0x0,0xe0(%rsp)
    589e:	00 00 00 00 00 
    58a3:	48 89 84 24 b0 00 00 	mov    %rax,0xb0(%rsp)
    58aa:	00 
    58ab:	e8 60 c8 ff ff       	callq  2110 <_ZNSt6localeC1Ev@plt>
    58b0:	48 8d 05 a1 62 20 00 	lea    0x2062a1(%rip),%rax        # 20bb58 <_ZTVNSt7__cxx1115basic_stringbufIcSt11char_traitsIcESaIcEEE@@GLIBCXX_3.4.21+0x10>
    58b7:	4c 8b 74 24 60       	mov    0x60(%rsp),%r14
    58bc:	4c 8b 64 24 68       	mov    0x68(%rsp),%r12
    58c1:	c7 84 24 f0 00 00 00 	movl   $0x0,0xf0(%rsp)
    58c8:	00 00 00 00 
    58cc:	48 89 84 24 b0 00 00 	mov    %rax,0xb0(%rsp)
    58d3:	00 
    58d4:	48 8d 43 68          	lea    0x68(%rbx),%rax
    58d8:	48 89 84 24 f8 00 00 	mov    %rax,0xf8(%rsp)
    58df:	00 
    58e0:	4c 89 f0             	mov    %r14,%rax
    58e3:	4c 01 e0             	add    %r12,%rax
    58e6:	74 09                	je     58f1 <_ZN4Mesh8load_objEPKc+0x461>
    58e8:	4d 85 f6             	test   %r14,%r14
    58eb:	0f 84 b7 0c 00 00    	je     65a8 <_ZN4Mesh8load_objEPKc+0x1118>
    58f1:	49 83 fc 0f          	cmp    $0xf,%r12
    58f5:	4c 89 64 24 48       	mov    %r12,0x48(%rsp)
    58fa:	0f 87 60 01 00 00    	ja     5a60 <_ZN4Mesh8load_objEPKc+0x5d0>
    5900:	49 83 fc 01          	cmp    $0x1,%r12
    5904:	0f 85 d6 03 00 00    	jne    5ce0 <_ZN4Mesh8load_objEPKc+0x850>
    590a:	41 0f b6 06          	movzbl (%r14),%eax
    590e:	88 84 24 08 01 00 00 	mov    %al,0x108(%rsp)
    5915:	48 8d 43 68          	lea    0x68(%rbx),%rax
    5919:	4c 89 a4 24 00 01 00 	mov    %r12,0x100(%rsp)
    5920:	00 
    5921:	42 c6 04 20 00       	movb   $0x0,(%rax,%r12,1)
    5926:	48 8d 7b 10          	lea    0x10(%rbx),%rdi
    592a:	48 8b b4 24 f8 00 00 	mov    0xf8(%rsp),%rsi
    5931:	00 
    5932:	31 c9                	xor    %ecx,%ecx
    5934:	31 d2                	xor    %edx,%edx
    5936:	c7 84 24 f0 00 00 00 	movl   $0x8,0xf0(%rsp)
    593d:	08 00 00 00 
    5941:	e8 9a c6 ff ff       	callq  1fe0 <_ZNSt7__cxx1115basic_stringbufIcSt11char_traitsIcESaIcEE7_M_syncEPcmm@plt>
    5946:	48 8b 3c 24          	mov    (%rsp),%rdi
    594a:	48 8d 73 10          	lea    0x10(%rbx),%rsi
    594e:	e8 ad c6 ff ff       	callq  2000 <_ZNSt9basic_iosIcSt11char_traitsIcEE4initEPSt15basic_streambufIcS1_E@plt>
    5953:	4c 8d a4 24 80 00 00 	lea    0x80(%rsp),%r12
    595a:	00 
    595b:	48 89 df             	mov    %rbx,%rdi
    595e:	48 c7 84 24 88 00 00 	movq   $0x0,0x88(%rsp)
    5965:	00 00 00 00 00 
    596a:	c6 84 24 90 00 00 00 	movb   $0x0,0x90(%rsp)
    5971:	00 
    5972:	49 8d 44 24 10       	lea    0x10(%r12),%rax
    5977:	4c 89 e6             	mov    %r12,%rsi
    597a:	48 89 84 24 80 00 00 	mov    %rax,0x80(%rsp)
    5981:	00 
    5982:	e8 49 c6 ff ff       	callq  1fd0 <_ZStrsIcSt11char_traitsIcESaIcEERSt13basic_istreamIT_T0_ES7_RNSt7__cxx1112basic_stringIS4_S5_T1_EE@plt>
    5987:	48 8d 35 02 45 00 00 	lea    0x4502(%rip),%rsi        # 9e90 <_IO_stdin_used+0x70>
    598e:	4c 89 e7             	mov    %r12,%rdi
    5991:	e8 9a c4 ff ff       	callq  1e30 <_ZNKSt7__cxx1112basic_stringIcSt11char_traitsIcESaIcEE7compareEPKc@plt>
    5996:	85 c0                	test   %eax,%eax
    5998:	0f 84 ba fc ff ff    	je     5658 <_ZN4Mesh8load_objEPKc+0x1c8>
    599e:	48 8d 35 ed 44 00 00 	lea    0x44ed(%rip),%rsi        # 9e92 <_IO_stdin_used+0x72>
    59a5:	4c 89 e7             	mov    %r12,%rdi
    59a8:	e8 83 c4 ff ff       	callq  1e30 <_ZNKSt7__cxx1112basic_stringIcSt11char_traitsIcESaIcEE7compareEPKc@plt>
    59ad:	85 c0                	test   %eax,%eax
    59af:	0f 85 c3 02 00 00    	jne    5c78 <_ZN4Mesh8load_objEPKc+0x7e8>
    59b5:	48 8d 74 24 40       	lea    0x40(%rsp),%rsi
    59ba:	48 89 df             	mov    %rbx,%rdi
    59bd:	e8 3e c7 ff ff       	callq  2100 <_ZNSi10_M_extractIfEERSiRT_@plt>
    59c2:	48 8d 74 24 44       	lea    0x44(%rsp),%rsi
    59c7:	48 89 c7             	mov    %rax,%rdi
    59ca:	e8 31 c7 ff ff       	callq  2100 <_ZNSi10_M_extractIfEERSiRT_@plt>
    59cf:	48 8d 4c 24 48       	lea    0x48(%rsp),%rcx
    59d4:	48 89 c7             	mov    %rax,%rdi
    59d7:	48 89 ce             	mov    %rcx,%rsi
    59da:	e8 21 c7 ff ff       	callq  2100 <_ZNSi10_M_extractIfEERSiRT_@plt>
    59df:	f3 0f 10 44 24 40    	movss  0x40(%rsp),%xmm0
    59e5:	48 8d 74 24 54       	lea    0x54(%rsp),%rsi
    59ea:	f3 0f 11 44 24 54    	movss  %xmm0,0x54(%rsp)
    59f0:	48 8d 7d 60          	lea    0x60(%rbp),%rdi
    59f4:	f3 0f 10 44 24 44    	movss  0x44(%rsp),%xmm0
    59fa:	f3 0f 11 44 24 58    	movss  %xmm0,0x58(%rsp)
    5a00:	f3 0f 10 44 24 48    	movss  0x48(%rsp),%xmm0
    5a06:	f3 0f 11 44 24 5c    	movss  %xmm0,0x5c(%rsp)
    5a0c:	e8 ff f2 ff ff       	callq  4d10 <_ZNSt6vectorIN3rtm4vec3ESaIS1_EE12emplace_backIJS1_EEEvDpOT_>
    5a11:	0f b6 44 24 14       	movzbl 0x14(%rsp),%eax
    5a16:	88 44 24 16          	mov    %al,0x16(%rsp)
    5a1a:	e9 9e fc ff ff       	jmpq   56bd <_ZN4Mesh8load_objEPKc+0x22d>
    5a1f:	90                   	nop
    5a20:	4c 89 e7             	mov    %r12,%rdi
    5a23:	e8 78 c5 ff ff       	callq  1fa0 <_ZNKSt5ctypeIcE13_M_widen_initEv@plt>
    5a28:	49 8b 04 24          	mov    (%r12),%rax
    5a2c:	48 8d 0d 8d d3 ff ff 	lea    -0x2c73(%rip),%rcx        # 2dc0 <_ZNKSt5ctypeIcE8do_widenEc>
    5a33:	ba 0a 00 00 00       	mov    $0xa,%edx
    5a38:	48 8b 40 30          	mov    0x30(%rax),%rax
    5a3c:	48 39 c8             	cmp    %rcx,%rax
    5a3f:	0f 84 54 fd ff ff    	je     5799 <_ZN4Mesh8load_objEPKc+0x309>
    5a45:	be 0a 00 00 00       	mov    $0xa,%esi
    5a4a:	4c 89 e7             	mov    %r12,%rdi
    5a4d:	ff d0                	callq  *%rax
    5a4f:	0f be d0             	movsbl %al,%edx
    5a52:	e9 42 fd ff ff       	jmpq   5799 <_ZN4Mesh8load_objEPKc+0x309>
    5a57:	66 0f 1f 84 00 00 00 	nopw   0x0(%rax,%rax,1)
    5a5e:	00 00 
    5a60:	48 8d 44 24 48       	lea    0x48(%rsp),%rax
    5a65:	48 8d 7b 58          	lea    0x58(%rbx),%rdi
    5a69:	31 d2                	xor    %edx,%edx
    5a6b:	48 89 c6             	mov    %rax,%rsi
    5a6e:	e8 3d c6 ff ff       	callq  20b0 <_ZNSt7__cxx1112basic_stringIcSt11char_traitsIcESaIcEE9_M_createERmm@plt>
    5a73:	48 8b 54 24 48       	mov    0x48(%rsp),%rdx
    5a78:	48 89 84 24 f8 00 00 	mov    %rax,0xf8(%rsp)
    5a7f:	00 
    5a80:	48 89 94 24 08 01 00 	mov    %rdx,0x108(%rsp)
    5a87:	00 
    5a88:	4c 89 e2             	mov    %r12,%rdx
    5a8b:	4c 89 f6             	mov    %r14,%rsi
    5a8e:	48 89 c7             	mov    %rax,%rdi
    5a91:	e8 3a c4 ff ff       	callq  1ed0 <memcpy@plt>
    5a96:	4c 8b 64 24 48       	mov    0x48(%rsp),%r12
    5a9b:	48 8b 84 24 f8 00 00 	mov    0xf8(%rsp),%rax
    5aa2:	00 
    5aa3:	e9 71 fe ff ff       	jmpq   5919 <_ZN4Mesh8load_objEPKc+0x489>
    5aa8:	0f 1f 84 00 00 00 00 	nopl   0x0(%rax,%rax,1)
    5aaf:	00 
    5ab0:	48 8b 44 24 08       	mov    0x8(%rsp),%rax
    5ab5:	48 8b 7c 24 60       	mov    0x60(%rsp),%rdi
    5aba:	48 83 c0 10          	add    $0x10,%rax
    5abe:	48 39 c7             	cmp    %rax,%rdi
    5ac1:	74 05                	je     5ac8 <_ZN4Mesh8load_objEPKc+0x638>
    5ac3:	e8 48 c4 ff ff       	callq  1f10 <_ZdlPv@plt>
    5ac8:	80 7c 24 17 00       	cmpb   $0x0,0x17(%rsp)
    5acd:	0f 84 a5 03 00 00    	je     5e78 <_ZN4Mesh8load_objEPKc+0x9e8>
    5ad3:	80 7c 24 16 00       	cmpb   $0x0,0x16(%rsp)
    5ad8:	0f 84 a2 02 00 00    	je     5d80 <_ZN4Mesh8load_objEPKc+0x8f0>
    5ade:	48 8d 35 b5 43 00 00 	lea    0x43b5(%rip),%rsi        # 9e9a <_IO_stdin_used+0x7a>
    5ae5:	48 8d 3d 34 65 20 00 	lea    0x206534(%rip),%rdi        # 20c020 <_ZSt4cout@@GLIBCXX_3.4>
    5aec:	ba 08 00 00 00       	mov    $0x8,%edx
    5af1:	e8 9a c4 ff ff       	callq  1f90 <_ZSt16__ostream_insertIcSt11char_traitsIcEERSt13basic_ostreamIT_T0_ES6_PKS3_l@plt>
    5af6:	48 83 7c 24 18 00    	cmpq   $0x0,0x18(%rsp)
    5afc:	0f 84 7e 06 00 00    	je     6180 <_ZN4Mesh8load_objEPKc+0xcf0>
    5b02:	48 8b 5c 24 18       	mov    0x18(%rsp),%rbx
    5b07:	48 89 df             	mov    %rbx,%rdi
    5b0a:	e8 61 c3 ff ff       	callq  1e70 <strlen@plt>
    5b0f:	48 8d 3d 0a 65 20 00 	lea    0x20650a(%rip),%rdi        # 20c020 <_ZSt4cout@@GLIBCXX_3.4>
    5b16:	48 89 c2             	mov    %rax,%rdx
    5b19:	48 89 de             	mov    %rbx,%rsi
    5b1c:	e8 6f c4 ff ff       	callq  1f90 <_ZSt16__ostream_insertIcSt11char_traitsIcEERSt13basic_ostreamIT_T0_ES6_PKS3_l@plt>
    5b21:	48 8d 35 7b 43 00 00 	lea    0x437b(%rip),%rsi        # 9ea3 <_IO_stdin_used+0x83>
    5b28:	48 8d 3d f1 64 20 00 	lea    0x2064f1(%rip),%rdi        # 20c020 <_ZSt4cout@@GLIBCXX_3.4>
    5b2f:	ba 02 00 00 00       	mov    $0x2,%edx
    5b34:	e8 57 c4 ff ff       	callq  1f90 <_ZSt16__ostream_insertIcSt11char_traitsIcEERSt13basic_ostreamIT_T0_ES6_PKS3_l@plt>
    5b39:	0f b6 74 24 15       	movzbl 0x15(%rsp),%esi
    5b3e:	48 8d 3d db 64 20 00 	lea    0x2064db(%rip),%rdi        # 20c020 <_ZSt4cout@@GLIBCXX_3.4>
    5b45:	e8 06 c5 ff ff       	callq  2050 <_ZNSo9_M_insertIbEERSoT_@plt>
    5b4a:	48 8d 35 52 43 00 00 	lea    0x4352(%rip),%rsi        # 9ea3 <_IO_stdin_used+0x83>
    5b51:	ba 02 00 00 00       	mov    $0x2,%edx
    5b56:	48 89 c7             	mov    %rax,%rdi
    5b59:	48 89 c3             	mov    %rax,%rbx
    5b5c:	e8 2f c4 ff ff       	callq  1f90 <_ZSt16__ostream_insertIcSt11char_traitsIcEERSt13basic_ostreamIT_T0_ES6_PKS3_l@plt>
    5b61:	0f b6 74 24 17       	movzbl 0x17(%rsp),%esi
    5b66:	48 89 df             	mov    %rbx,%rdi
    5b69:	e8 e2 c4 ff ff       	callq  2050 <_ZNSo9_M_insertIbEERSoT_@plt>
    5b6e:	48 8d 35 2e 43 00 00 	lea    0x432e(%rip),%rsi        # 9ea3 <_IO_stdin_used+0x83>
    5b75:	ba 02 00 00 00       	mov    $0x2,%edx
    5b7a:	48 89 c7             	mov    %rax,%rdi
    5b7d:	48 89 c3             	mov    %rax,%rbx
    5b80:	e8 0b c4 ff ff       	callq  1f90 <_ZSt16__ostream_insertIcSt11char_traitsIcEERSt13basic_ostreamIT_T0_ES6_PKS3_l@plt>
    5b85:	0f b6 74 24 16       	movzbl 0x16(%rsp),%esi
    5b8a:	48 89 df             	mov    %rbx,%rdi
    5b8d:	e8 be c4 ff ff       	callq  2050 <_ZNSo9_M_insertIbEERSoT_@plt>
    5b92:	48 8d 35 bb 42 00 00 	lea    0x42bb(%rip),%rsi        # 9e54 <_IO_stdin_used+0x34>
    5b99:	ba 01 00 00 00       	mov    $0x1,%edx
    5b9e:	48 89 c7             	mov    %rax,%rdi
    5ba1:	e8 ea c3 ff ff       	callq  1f90 <_ZSt16__ostream_insertIcSt11char_traitsIcEERSt13basic_ostreamIT_T0_ES6_PKS3_l@plt>
    5ba6:	48 8d 05 c3 5e 20 00 	lea    0x205ec3(%rip),%rax        # 20ba70 <_ZTVSt14basic_ifstreamIcSt11char_traitsIcEE@@GLIBCXX_3.4+0x18>
    5bad:	49 8d 7f 10          	lea    0x10(%r15),%rdi
    5bb1:	48 89 84 24 20 02 00 	mov    %rax,0x220(%rsp)
    5bb8:	00 
    5bb9:	48 83 c0 28          	add    $0x28,%rax
    5bbd:	48 89 84 24 20 03 00 	mov    %rax,0x320(%rsp)
    5bc4:	00 
    5bc5:	48 8d 05 ec 5e 20 00 	lea    0x205eec(%rip),%rax        # 20bab8 <_ZTVSt13basic_filebufIcSt11char_traitsIcEE@@GLIBCXX_3.4+0x10>
    5bcc:	48 89 84 24 30 02 00 	mov    %rax,0x230(%rsp)
    5bd3:	00 
    5bd4:	e8 17 c2 ff ff       	callq  1df0 <_ZNSt13basic_filebufIcSt11char_traitsIcEE5closeEv@plt>
    5bd9:	49 8d 7f 78          	lea    0x78(%r15),%rdi
    5bdd:	e8 fe c4 ff ff       	callq  20e0 <_ZNSt12__basic_fileIcED1Ev@plt>
    5be2:	48 8d 05 df 5d 20 00 	lea    0x205ddf(%rip),%rax        # 20b9c8 <_ZTVSt15basic_streambufIcSt11char_traitsIcEE@@GLIBCXX_3.4+0x10>
    5be9:	49 8d 7f 48          	lea    0x48(%r15),%rdi
    5bed:	48 89 84 24 30 02 00 	mov    %rax,0x230(%rsp)
    5bf4:	00 
    5bf5:	e8 26 c4 ff ff       	callq  2020 <_ZNSt6localeD1Ev@plt>
    5bfa:	48 8b 05 2f 5f 20 00 	mov    0x205f2f(%rip),%rax        # 20bb30 <_ZTTSt14basic_ifstreamIcSt11char_traitsIcEE@@GLIBCXX_3.4+0x8>
    5c01:	48 8b 0d 30 5f 20 00 	mov    0x205f30(%rip),%rcx        # 20bb38 <_ZTTSt14basic_ifstreamIcSt11char_traitsIcEE@@GLIBCXX_3.4+0x10>
    5c08:	49 8d bf 00 01 00 00 	lea    0x100(%r15),%rdi
    5c0f:	48 89 84 24 20 02 00 	mov    %rax,0x220(%rsp)
    5c16:	00 
    5c17:	48 8b 40 e8          	mov    -0x18(%rax),%rax
    5c1b:	48 89 8c 04 20 02 00 	mov    %rcx,0x220(%rsp,%rax,1)
    5c22:	00 
    5c23:	48 8d 05 2e 5d 20 00 	lea    0x205d2e(%rip),%rax        # 20b958 <_ZTVSt9basic_iosIcSt11char_traitsIcEE@@GLIBCXX_3.4+0x10>
    5c2a:	48 c7 84 24 28 02 00 	movq   $0x0,0x228(%rsp)
    5c31:	00 00 00 00 00 
    5c36:	48 89 84 24 20 03 00 	mov    %rax,0x320(%rsp)
    5c3d:	00 
    5c3e:	e8 0d c2 ff ff       	callq  1e50 <_ZNSt8ios_baseD2Ev@plt>
    5c43:	48 8b 8c 24 28 04 00 	mov    0x428(%rsp),%rcx
    5c4a:	00 
    5c4b:	64 48 33 0c 25 28 00 	xor    %fs:0x28,%rcx
    5c52:	00 00 
    5c54:	0f b6 44 24 14       	movzbl 0x14(%rsp),%eax
    5c59:	0f 85 55 09 00 00    	jne    65b4 <_ZN4Mesh8load_objEPKc+0x1124>
    5c5f:	48 81 c4 38 04 00 00 	add    $0x438,%rsp
    5c66:	5b                   	pop    %rbx
    5c67:	5d                   	pop    %rbp
    5c68:	41 5c                	pop    %r12
    5c6a:	41 5d                	pop    %r13
    5c6c:	41 5e                	pop    %r14
    5c6e:	41 5f                	pop    %r15
    5c70:	c3                   	retq   
    5c71:	0f 1f 80 00 00 00 00 	nopl   0x0(%rax)
    5c78:	48 8d 35 16 42 00 00 	lea    0x4216(%rip),%rsi        # 9e95 <_IO_stdin_used+0x75>
    5c7f:	4c 89 e7             	mov    %r12,%rdi
    5c82:	e8 a9 c1 ff ff       	callq  1e30 <_ZNKSt7__cxx1112basic_stringIcSt11char_traitsIcESaIcEE7compareEPKc@plt>
    5c87:	85 c0                	test   %eax,%eax
    5c89:	75 6d                	jne    5cf8 <_ZN4Mesh8load_objEPKc+0x868>
    5c8b:	48 8d 74 24 44       	lea    0x44(%rsp),%rsi
    5c90:	48 89 df             	mov    %rbx,%rdi
    5c93:	e8 68 c4 ff ff       	callq  2100 <_ZNSi10_M_extractIfEERSiRT_@plt>
    5c98:	48 8d 4c 24 48       	lea    0x48(%rsp),%rcx
    5c9d:	48 89 c7             	mov    %rax,%rdi
    5ca0:	48 89 ce             	mov    %rcx,%rsi
    5ca3:	e8 58 c4 ff ff       	callq  2100 <_ZNSi10_M_extractIfEERSiRT_@plt>
    5ca8:	f3 0f 10 44 24 44    	movss  0x44(%rsp),%xmm0
    5cae:	48 8d 74 24 54       	lea    0x54(%rsp),%rsi
    5cb3:	48 8d 7d 78          	lea    0x78(%rbp),%rdi
    5cb7:	f3 0f 11 44 24 54    	movss  %xmm0,0x54(%rsp)
    5cbd:	f3 0f 10 44 24 48    	movss  0x48(%rsp),%xmm0
    5cc3:	f3 0f 11 44 24 58    	movss  %xmm0,0x58(%rsp)
    5cc9:	e8 42 f2 ff ff       	callq  4f10 <_ZNSt6vectorIN3rtm4vec2ESaIS1_EE12emplace_backIJS1_EEEvDpOT_>
    5cce:	0f b6 44 24 14       	movzbl 0x14(%rsp),%eax
    5cd3:	88 44 24 17          	mov    %al,0x17(%rsp)
    5cd7:	e9 e1 f9 ff ff       	jmpq   56bd <_ZN4Mesh8load_objEPKc+0x22d>
    5cdc:	0f 1f 40 00          	nopl   0x0(%rax)
    5ce0:	4d 85 e4             	test   %r12,%r12
    5ce3:	48 8d 43 68          	lea    0x68(%rbx),%rax
    5ce7:	0f 84 2c fc ff ff    	je     5919 <_ZN4Mesh8load_objEPKc+0x489>
    5ced:	e9 96 fd ff ff       	jmpq   5a88 <_ZN4Mesh8load_objEPKc+0x5f8>
    5cf2:	66 0f 1f 44 00 00    	nopw   0x0(%rax,%rax,1)
    5cf8:	48 8d 35 99 41 00 00 	lea    0x4199(%rip),%rsi        # 9e98 <_IO_stdin_used+0x78>
    5cff:	4c 89 e7             	mov    %r12,%rdi
    5d02:	e8 29 c1 ff ff       	callq  1e30 <_ZNKSt7__cxx1112basic_stringIcSt11char_traitsIcESaIcEE7compareEPKc@plt>
    5d07:	85 c0                	test   %eax,%eax
    5d09:	0f 85 ae f9 ff ff    	jne    56bd <_ZN4Mesh8load_objEPKc+0x22d>
    5d0f:	4c 8d 74 24 54       	lea    0x54(%rsp),%r14
    5d14:	48 89 ef             	mov    %rbp,%rdi
    5d17:	4c 89 f6             	mov    %r14,%rsi
    5d1a:	e8 a1 f3 ff ff       	callq  50c0 <_ZNSt6vectorIN3rtm5uvec3ESaIS1_EE12emplace_backIJS1_EEEvDpOT_>
    5d1f:	80 7c 24 17 00       	cmpb   $0x0,0x17(%rsp)
    5d24:	0f 85 c6 05 00 00    	jne    62f0 <_ZN4Mesh8load_objEPKc+0xe60>
    5d2a:	80 7c 24 16 00       	cmpb   $0x0,0x16(%rsp)
    5d2f:	0f 85 8b 04 00 00    	jne    61c0 <_ZN4Mesh8load_objEPKc+0xd30>
    5d35:	80 7c 24 17 00       	cmpb   $0x0,0x17(%rsp)
    5d3a:	0f 85 c1 05 00 00    	jne    6301 <_ZN4Mesh8load_objEPKc+0xe71>
    5d40:	48 8d 44 24 48       	lea    0x48(%rsp),%rax
    5d45:	45 31 f6             	xor    %r14d,%r14d
    5d48:	48 89 44 24 30       	mov    %rax,0x30(%rsp)
    5d4d:	48 8b 74 24 30       	mov    0x30(%rsp),%rsi
    5d52:	48 89 df             	mov    %rbx,%rdi
    5d55:	e8 36 c3 ff ff       	callq  2090 <_ZNSi10_M_extractIjEERSiRT_@plt>
    5d5a:	8b 44 24 48          	mov    0x48(%rsp),%eax
    5d5e:	48 8b 55 08          	mov    0x8(%rbp),%rdx
    5d62:	49 63 ce             	movslq %r14d,%rcx
    5d65:	41 83 c6 01          	add    $0x1,%r14d
    5d69:	83 e8 01             	sub    $0x1,%eax
    5d6c:	41 83 fe 03          	cmp    $0x3,%r14d
    5d70:	89 44 8a f4          	mov    %eax,-0xc(%rdx,%rcx,4)
    5d74:	75 d7                	jne    5d4d <_ZN4Mesh8load_objEPKc+0x8bd>
    5d76:	e9 42 f9 ff ff       	jmpq   56bd <_ZN4Mesh8load_objEPKc+0x22d>
    5d7b:	0f 1f 44 00 00       	nopl   0x0(%rax,%rax,1)
    5d80:	48 8b 45 48          	mov    0x48(%rbp),%rax
    5d84:	48 39 45 50          	cmp    %rax,0x50(%rbp)
    5d88:	0f 84 1a 04 00 00    	je     61a8 <_ZN4Mesh8load_objEPKc+0xd18>
    5d8e:	4c 8d 75 60          	lea    0x60(%rbp),%r14
    5d92:	4c 8d a4 24 a0 00 00 	lea    0xa0(%rsp),%r12
    5d99:	00 
    5d9a:	31 db                	xor    %ebx,%ebx
    5d9c:	49 bd ab aa aa aa aa 	movabs $0xaaaaaaaaaaaaaaab,%r13
    5da3:	aa aa aa 
    5da6:	66 2e 0f 1f 84 00 00 	nopw   %cs:0x0(%rax,%rax,1)
    5dad:	00 00 00 
    5db0:	4c 89 e6             	mov    %r12,%rsi
    5db3:	4c 89 f7             	mov    %r14,%rdi
    5db6:	48 c7 84 24 a0 00 00 	movq   $0x0,0xa0(%rsp)
    5dbd:	00 00 00 00 00 
    5dc2:	c7 84 24 a8 00 00 00 	movl   $0x0,0xa8(%rsp)
    5dc9:	00 00 00 00 
    5dcd:	e8 3e ef ff ff       	callq  4d10 <_ZNSt6vectorIN3rtm4vec3ESaIS1_EE12emplace_backIJS1_EEEvDpOT_>
    5dd2:	48 8b 55 50          	mov    0x50(%rbp),%rdx
    5dd6:	48 8b 4d 48          	mov    0x48(%rbp),%rcx
    5dda:	48 83 c3 01          	add    $0x1,%rbx
    5dde:	48 89 d0             	mov    %rdx,%rax
    5de1:	48 29 c8             	sub    %rcx,%rax
    5de4:	48 c1 f8 02          	sar    $0x2,%rax
    5de8:	49 0f af c5          	imul   %r13,%rax
    5dec:	48 39 c3             	cmp    %rax,%rbx
    5def:	72 bf                	jb     5db0 <_ZN4Mesh8load_objEPKc+0x920>
    5df1:	4c 8b 45 00          	mov    0x0(%rbp),%r8
    5df5:	4c 39 45 08          	cmp    %r8,0x8(%rbp)
    5df9:	0f 84 c5 02 00 00    	je     60c4 <_ZN4Mesh8load_objEPKc+0xc34>
    5dff:	4c 8d 75 18          	lea    0x18(%rbp),%r14
    5e03:	45 31 e4             	xor    %r12d,%r12d
    5e06:	31 db                	xor    %ebx,%ebx
    5e08:	49 bd ab aa aa aa aa 	movabs $0xaaaaaaaaaaaaaaab,%r13
    5e0f:	aa aa aa 
    5e12:	eb 43                	jmp    5e57 <_ZN4Mesh8load_objEPKc+0x9c7>
    5e14:	0f 1f 40 00          	nopl   0x0(%rax)
    5e18:	48 85 f6             	test   %rsi,%rsi
    5e1b:	74 0c                	je     5e29 <_ZN4Mesh8load_objEPKc+0x999>
    5e1d:	48 8b 02             	mov    (%rdx),%rax
    5e20:	48 89 06             	mov    %rax,(%rsi)
    5e23:	8b 42 08             	mov    0x8(%rdx),%eax
    5e26:	89 46 08             	mov    %eax,0x8(%rsi)
    5e29:	48 83 c6 0c          	add    $0xc,%rsi
    5e2d:	48 89 75 20          	mov    %rsi,0x20(%rbp)
    5e31:	48 8b 75 08          	mov    0x8(%rbp),%rsi
    5e35:	48 83 c3 01          	add    $0x1,%rbx
    5e39:	49 83 c4 0c          	add    $0xc,%r12
    5e3d:	4c 89 c7             	mov    %r8,%rdi
    5e40:	48 89 f0             	mov    %rsi,%rax
    5e43:	4c 29 c0             	sub    %r8,%rax
    5e46:	48 c1 f8 02          	sar    $0x2,%rax
    5e4a:	49 0f af c5          	imul   %r13,%rax
    5e4e:	48 39 c3             	cmp    %rax,%rbx
    5e51:	0f 83 b9 00 00 00    	jae    5f10 <_ZN4Mesh8load_objEPKc+0xa80>
    5e57:	48 8b 75 20          	mov    0x20(%rbp),%rsi
    5e5b:	48 3b 75 28          	cmp    0x28(%rbp),%rsi
    5e5f:	4b 8d 14 20          	lea    (%r8,%r12,1),%rdx
    5e63:	75 b3                	jne    5e18 <_ZN4Mesh8load_objEPKc+0x988>
    5e65:	4c 89 f7             	mov    %r14,%rdi
    5e68:	e8 53 f4 ff ff       	callq  52c0 <_ZNSt6vectorIN3rtm5uvec3ESaIS1_EE17_M_realloc_insertIJRKS1_EEEvN9__gnu_cxx17__normal_iteratorIPS1_S3_EEDpOT_>
    5e6d:	4c 8b 45 00          	mov    0x0(%rbp),%r8
    5e71:	eb be                	jmp    5e31 <_ZN4Mesh8load_objEPKc+0x9a1>
    5e73:	0f 1f 44 00 00       	nopl   0x0(%rax,%rax,1)
    5e78:	4c 8d a4 24 a0 00 00 	lea    0xa0(%rsp),%r12
    5e7f:	00 
    5e80:	48 8d 7d 78          	lea    0x78(%rbp),%rdi
    5e84:	48 c7 84 24 a0 00 00 	movq   $0x0,0xa0(%rsp)
    5e8b:	00 00 00 00 00 
    5e90:	4c 89 e6             	mov    %r12,%rsi
    5e93:	e8 78 f0 ff ff       	callq  4f10 <_ZNSt6vectorIN3rtm4vec2ESaIS1_EE12emplace_backIJS1_EEEvDpOT_>
    5e98:	48 8b 45 00          	mov    0x0(%rbp),%rax
    5e9c:	48 39 45 08          	cmp    %rax,0x8(%rbp)
    5ea0:	0f 84 2d fc ff ff    	je     5ad3 <_ZN4Mesh8load_objEPKc+0x643>
    5ea6:	4c 8d 75 30          	lea    0x30(%rbp),%r14
    5eaa:	31 db                	xor    %ebx,%ebx
    5eac:	49 bd ab aa aa aa aa 	movabs $0xaaaaaaaaaaaaaaab,%r13
    5eb3:	aa aa aa 
    5eb6:	66 2e 0f 1f 84 00 00 	nopw   %cs:0x0(%rax,%rax,1)
    5ebd:	00 00 00 
    5ec0:	4c 89 e6             	mov    %r12,%rsi
    5ec3:	4c 89 f7             	mov    %r14,%rdi
    5ec6:	48 c7 84 24 a0 00 00 	movq   $0x0,0xa0(%rsp)
    5ecd:	00 00 00 00 00 
    5ed2:	c7 84 24 a8 00 00 00 	movl   $0x0,0xa8(%rsp)
    5ed9:	00 00 00 00 
    5edd:	e8 de f1 ff ff       	callq  50c0 <_ZNSt6vectorIN3rtm5uvec3ESaIS1_EE12emplace_backIJS1_EEEvDpOT_>
    5ee2:	48 8b 45 08          	mov    0x8(%rbp),%rax
    5ee6:	48 2b 45 00          	sub    0x0(%rbp),%rax
    5eea:	48 83 c3 01          	add    $0x1,%rbx
    5eee:	48 c1 f8 02          	sar    $0x2,%rax
    5ef2:	49 0f af c5          	imul   %r13,%rax
    5ef6:	48 39 c3             	cmp    %rax,%rbx
    5ef9:	72 c5                	jb     5ec0 <_ZN4Mesh8load_objEPKc+0xa30>
    5efb:	80 7c 24 16 00       	cmpb   $0x0,0x16(%rsp)
    5f00:	0f 84 7a fe ff ff    	je     5d80 <_ZN4Mesh8load_objEPKc+0x8f0>
    5f06:	e9 d3 fb ff ff       	jmpq   5ade <_ZN4Mesh8load_objEPKc+0x64e>
    5f0b:	0f 1f 44 00 00       	nopl   0x0(%rax,%rax,1)
    5f10:	4c 39 c6             	cmp    %r8,%rsi
    5f13:	48 8b 4d 48          	mov    0x48(%rbp),%rcx
    5f17:	0f 84 a3 01 00 00    	je     60c0 <_ZN4Mesh8load_objEPKc+0xc30>
    5f1d:	66 0f ef db          	pxor   %xmm3,%xmm3
    5f21:	f3 0f 10 25 67 41 00 	movss  0x4167(%rip),%xmm4        # a090 <_ZTSNSt6thread11_State_implINS_8_InvokerISt5tupleIJPFv11StartupData7MeshBVHES3_S4_EEEEEE+0xb0>
    5f28:	00 
    5f29:	31 db                	xor    %ebx,%ebx
    5f2b:	49 bc ab aa aa aa aa 	movabs $0xaaaaaaaaaaaaaaab,%r12
    5f32:	aa aa aa 
    5f35:	0f 1f 00             	nopl   (%rax)
    5f38:	4c 8d 2c 5b          	lea    (%rbx,%rbx,2),%r13
    5f3c:	49 c1 e5 02          	shl    $0x2,%r13
    5f40:	4a 8d 04 2f          	lea    (%rdi,%r13,1),%rax
    5f44:	8b 10                	mov    (%rax),%edx
    5f46:	48 8d 14 52          	lea    (%rdx,%rdx,2),%rdx
    5f4a:	4c 8d 04 91          	lea    (%rcx,%rdx,4),%r8
    5f4e:	8b 50 04             	mov    0x4(%rax),%edx
    5f51:	f3 45 0f 10 40 08    	movss  0x8(%r8),%xmm8
    5f57:	f3 41 0f 10 78 04    	movss  0x4(%r8),%xmm7
    5f5d:	48 8d 14 52          	lea    (%rdx,%rdx,2),%rdx
    5f61:	f3 41 0f 10 28       	movss  (%r8),%xmm5
    5f66:	48 8d 14 91          	lea    (%rcx,%rdx,4),%rdx
    5f6a:	f3 0f 10 72 08       	movss  0x8(%rdx),%xmm6
    5f6f:	f3 0f 10 4a 04       	movss  0x4(%rdx),%xmm1
    5f74:	f3 41 0f 5c f0       	subss  %xmm8,%xmm6
    5f79:	f3 0f 10 02          	movss  (%rdx),%xmm0
    5f7d:	8b 50 08             	mov    0x8(%rax),%edx
    5f80:	f3 0f 5c cf          	subss  %xmm7,%xmm1
    5f84:	f3 0f 5c c5          	subss  %xmm5,%xmm0
    5f88:	48 8d 14 52          	lea    (%rdx,%rdx,2),%rdx
    5f8c:	48 8d 14 91          	lea    (%rcx,%rdx,4),%rdx
    5f90:	f3 0f 10 52 08       	movss  0x8(%rdx),%xmm2
    5f95:	f3 41 0f 5c d0       	subss  %xmm8,%xmm2
    5f9a:	f3 44 0f 10 42 04    	movss  0x4(%rdx),%xmm8
    5fa0:	f3 44 0f 5c c7       	subss  %xmm7,%xmm8
    5fa5:	f3 0f 10 3a          	movss  (%rdx),%xmm7
    5fa9:	f3 0f 5c fd          	subss  %xmm5,%xmm7
    5fad:	41 0f 28 e8          	movaps %xmm8,%xmm5
    5fb1:	44 0f 28 cf          	movaps %xmm7,%xmm9
    5fb5:	f3 0f 59 fe          	mulss  %xmm6,%xmm7
    5fb9:	f3 0f 59 e8          	mulss  %xmm0,%xmm5
    5fbd:	f3 41 0f 59 f0       	mulss  %xmm8,%xmm6
    5fc2:	f3 0f 59 c2          	mulss  %xmm2,%xmm0
    5fc6:	f3 0f 59 d1          	mulss  %xmm1,%xmm2
    5fca:	f3 44 0f 59 c9       	mulss  %xmm1,%xmm9
    5fcf:	f3 0f 5c c7          	subss  %xmm7,%xmm0
    5fd3:	f3 0f 5c d6          	subss  %xmm6,%xmm2
    5fd7:	f3 41 0f 5c e9       	subss  %xmm9,%xmm5
    5fdc:	0f 28 f8             	movaps %xmm0,%xmm7
    5fdf:	f3 0f 59 c0          	mulss  %xmm0,%xmm0
    5fe3:	0f 28 ca             	movaps %xmm2,%xmm1
    5fe6:	0f 57 fc             	xorps  %xmm4,%xmm7
    5fe9:	f3 0f 59 ca          	mulss  %xmm2,%xmm1
    5fed:	f3 0f 58 c1          	addss  %xmm1,%xmm0
    5ff1:	0f 28 cd             	movaps %xmm5,%xmm1
    5ff4:	f3 0f 59 cd          	mulss  %xmm5,%xmm1
    5ff8:	f3 0f 58 c1          	addss  %xmm1,%xmm0
    5ffc:	0f 2e d8             	ucomiss %xmm0,%xmm3
    5fff:	f3 0f 51 c8          	sqrtss %xmm0,%xmm1
    6003:	0f 87 e8 03 00 00    	ja     63f1 <_ZN4Mesh8load_objEPKc+0xf61>
    6009:	f3 0f 5e d1          	divss  %xmm1,%xmm2
    600d:	8b 10                	mov    (%rax),%edx
    600f:	4c 8b 45 60          	mov    0x60(%rbp),%r8
    6013:	48 83 c3 01          	add    $0x1,%rbx
    6017:	48 8d 14 52          	lea    (%rdx,%rdx,2),%rdx
    601b:	49 8d 14 90          	lea    (%r8,%rdx,4),%rdx
    601f:	f3 0f 10 02          	movss  (%rdx),%xmm0
    6023:	f3 0f 5e f9          	divss  %xmm1,%xmm7
    6027:	f3 0f 58 c2          	addss  %xmm2,%xmm0
    602b:	f3 0f 11 02          	movss  %xmm0,(%rdx)
    602f:	f3 0f 10 42 04       	movss  0x4(%rdx),%xmm0
    6034:	f3 0f 5e e9          	divss  %xmm1,%xmm5
    6038:	f3 0f 58 c7          	addss  %xmm7,%xmm0
    603c:	f3 0f 11 42 04       	movss  %xmm0,0x4(%rdx)
    6041:	f3 0f 10 42 08       	movss  0x8(%rdx),%xmm0
    6046:	f3 0f 58 c5          	addss  %xmm5,%xmm0
    604a:	f3 0f 11 42 08       	movss  %xmm0,0x8(%rdx)
    604f:	8b 50 04             	mov    0x4(%rax),%edx
    6052:	8b 40 08             	mov    0x8(%rax),%eax
    6055:	48 8d 14 52          	lea    (%rdx,%rdx,2),%rdx
    6059:	48 8d 04 40          	lea    (%rax,%rax,2),%rax
    605d:	49 8d 14 90          	lea    (%r8,%rdx,4),%rdx
    6061:	49 8d 04 80          	lea    (%r8,%rax,4),%rax
    6065:	f3 0f 10 02          	movss  (%rdx),%xmm0
    6069:	f3 0f 58 c2          	addss  %xmm2,%xmm0
    606d:	f3 0f 11 02          	movss  %xmm0,(%rdx)
    6071:	f3 0f 10 42 04       	movss  0x4(%rdx),%xmm0
    6076:	f3 0f 58 c7          	addss  %xmm7,%xmm0
    607a:	f3 0f 11 42 04       	movss  %xmm0,0x4(%rdx)
    607f:	f3 0f 10 42 08       	movss  0x8(%rdx),%xmm0
    6084:	f3 0f 58 c5          	addss  %xmm5,%xmm0
    6088:	f3 0f 11 42 08       	movss  %xmm0,0x8(%rdx)
    608d:	f3 0f 58 10          	addss  (%rax),%xmm2
    6091:	f3 0f 58 78 04       	addss  0x4(%rax),%xmm7
    6096:	f3 0f 58 68 08       	addss  0x8(%rax),%xmm5
    609b:	f3 0f 11 10          	movss  %xmm2,(%rax)
    609f:	f3 0f 11 78 04       	movss  %xmm7,0x4(%rax)
    60a4:	f3 0f 11 68 08       	movss  %xmm5,0x8(%rax)
    60a9:	48 89 f0             	mov    %rsi,%rax
    60ac:	48 29 f8             	sub    %rdi,%rax
    60af:	48 c1 f8 02          	sar    $0x2,%rax
    60b3:	49 0f af c4          	imul   %r12,%rax
    60b7:	48 39 c3             	cmp    %rax,%rbx
    60ba:	0f 82 78 fe ff ff    	jb     5f38 <_ZN4Mesh8load_objEPKc+0xaa8>
    60c0:	48 8b 55 50          	mov    0x50(%rbp),%rdx
    60c4:	48 39 ca             	cmp    %rcx,%rdx
    60c7:	0f 84 11 fa ff ff    	je     5ade <_ZN4Mesh8load_objEPKc+0x64e>
    60cd:	48 8b 75 60          	mov    0x60(%rbp),%rsi
    60d1:	66 0f ef db          	pxor   %xmm3,%xmm3
    60d5:	45 31 e4             	xor    %r12d,%r12d
    60d8:	49 bd ab aa aa aa aa 	movabs $0xaaaaaaaaaaaaaaab,%r13
    60df:	aa aa aa 
    60e2:	66 0f 1f 44 00 00    	nopw   0x0(%rax,%rax,1)
    60e8:	4f 8d 34 64          	lea    (%r12,%r12,2),%r14
    60ec:	49 c1 e6 02          	shl    $0x2,%r14
    60f0:	4a 8d 1c 36          	lea    (%rsi,%r14,1),%rbx
    60f4:	f3 0f 10 2b          	movss  (%rbx),%xmm5
    60f8:	f3 0f 10 63 04       	movss  0x4(%rbx),%xmm4
    60fd:	0f 28 cd             	movaps %xmm5,%xmm1
    6100:	0f 28 c4             	movaps %xmm4,%xmm0
    6103:	f3 0f 59 cd          	mulss  %xmm5,%xmm1
    6107:	f3 0f 10 53 08       	movss  0x8(%rbx),%xmm2
    610c:	f3 0f 59 c4          	mulss  %xmm4,%xmm0
    6110:	f3 0f 58 c1          	addss  %xmm1,%xmm0
    6114:	0f 28 ca             	movaps %xmm2,%xmm1
    6117:	f3 0f 59 ca          	mulss  %xmm2,%xmm1
    611b:	f3 0f 58 c1          	addss  %xmm1,%xmm0
    611f:	0f 2e d8             	ucomiss %xmm0,%xmm3
    6122:	f3 0f 51 c8          	sqrtss %xmm0,%xmm1
    6126:	0f 87 50 02 00 00    	ja     637c <_ZN4Mesh8load_objEPKc+0xeec>
    612c:	f3 0f 5e e9          	divss  %xmm1,%xmm5
    6130:	48 89 d0             	mov    %rdx,%rax
    6133:	49 83 c4 01          	add    $0x1,%r12
    6137:	48 29 c8             	sub    %rcx,%rax
    613a:	48 c1 f8 02          	sar    $0x2,%rax
    613e:	49 0f af c5          	imul   %r13,%rax
    6142:	49 39 c4             	cmp    %rax,%r12
    6145:	f3 0f 5e e1          	divss  %xmm1,%xmm4
    6149:	f3 0f 11 2b          	movss  %xmm5,(%rbx)
    614d:	f3 0f 5e d1          	divss  %xmm1,%xmm2
    6151:	f3 0f 11 63 04       	movss  %xmm4,0x4(%rbx)
    6156:	f3 0f 11 53 08       	movss  %xmm2,0x8(%rbx)
    615b:	72 8b                	jb     60e8 <_ZN4Mesh8load_objEPKc+0xc58>
    615d:	e9 7c f9 ff ff       	jmpq   5ade <_ZN4Mesh8load_objEPKc+0x64e>
    6162:	66 0f 1f 44 00 00    	nopw   0x0(%rax,%rax,1)
    6168:	8b 77 20             	mov    0x20(%rdi),%esi
    616b:	83 ce 04             	or     $0x4,%esi
    616e:	e8 fd be ff ff       	callq  2070 <_ZNSt9basic_iosIcSt11char_traitsIcEE5clearESt12_Ios_Iostate@plt>
    6173:	e9 5d f4 ff ff       	jmpq   55d5 <_ZN4Mesh8load_objEPKc+0x145>
    6178:	0f 1f 84 00 00 00 00 	nopl   0x0(%rax,%rax,1)
    617f:	00 
    6180:	48 8b 05 99 5e 20 00 	mov    0x205e99(%rip),%rax        # 20c020 <_ZSt4cout@@GLIBCXX_3.4>
    6187:	48 8d 3d 92 5e 20 00 	lea    0x205e92(%rip),%rdi        # 20c020 <_ZSt4cout@@GLIBCXX_3.4>
    618e:	48 03 78 e8          	add    -0x18(%rax),%rdi
    6192:	8b 77 20             	mov    0x20(%rdi),%esi
    6195:	83 ce 01             	or     $0x1,%esi
    6198:	e8 d3 be ff ff       	callq  2070 <_ZNSt9basic_iosIcSt11char_traitsIcEE5clearESt12_Ios_Iostate@plt>
    619d:	e9 7f f9 ff ff       	jmpq   5b21 <_ZN4Mesh8load_objEPKc+0x691>
    61a2:	66 0f 1f 44 00 00    	nopw   0x0(%rax,%rax,1)
    61a8:	4c 8b 45 00          	mov    0x0(%rbp),%r8
    61ac:	4c 3b 45 08          	cmp    0x8(%rbp),%r8
    61b0:	0f 85 49 fc ff ff    	jne    5dff <_ZN4Mesh8load_objEPKc+0x96f>
    61b6:	e9 23 f9 ff ff       	jmpq   5ade <_ZN4Mesh8load_objEPKc+0x64e>
    61bb:	0f 1f 44 00 00       	nopl   0x0(%rax,%rax,1)
    61c0:	48 8d 7d 18          	lea    0x18(%rbp),%rdi
    61c4:	4c 89 f6             	mov    %r14,%rsi
    61c7:	e8 f4 ee ff ff       	callq  50c0 <_ZNSt6vectorIN3rtm5uvec3ESaIS1_EE12emplace_backIJS1_EEEvDpOT_>
    61cc:	48 8d 44 24 48       	lea    0x48(%rsp),%rax
    61d1:	80 7c 24 17 00       	cmpb   $0x0,0x17(%rsp)
    61d6:	c7 44 24 38 00 00 00 	movl   $0x0,0x38(%rsp)
    61dd:	00 
    61de:	48 89 44 24 30       	mov    %rax,0x30(%rsp)
    61e3:	48 8d 44 24 44       	lea    0x44(%rsp),%rax
    61e8:	48 89 44 24 20       	mov    %rax,0x20(%rsp)
    61ed:	75 71                	jne    6260 <_ZN4Mesh8load_objEPKc+0xdd0>
    61ef:	48 8b 74 24 30       	mov    0x30(%rsp),%rsi
    61f4:	48 89 df             	mov    %rbx,%rdi
    61f7:	e8 94 be ff ff       	callq  2090 <_ZNSi10_M_extractIjEERSiRT_@plt>
    61fc:	8b 4c 24 48          	mov    0x48(%rsp),%ecx
    6200:	4c 63 74 24 38       	movslq 0x38(%rsp),%r14
    6205:	48 89 df             	mov    %rbx,%rdi
    6208:	48 8b 55 08          	mov    0x8(%rbp),%rdx
    620c:	48 8b 74 24 20       	mov    0x20(%rsp),%rsi
    6211:	8d 41 ff             	lea    -0x1(%rcx),%eax
    6214:	42 89 44 b2 f4       	mov    %eax,-0xc(%rdx,%r14,4)
    6219:	e8 d2 bd ff ff       	callq  1ff0 <_ZStrsIcSt11char_traitsIcEERSt13basic_istreamIT_T0_ES6_RS3_@plt>
    621e:	48 8b 74 24 20       	mov    0x20(%rsp),%rsi
    6223:	48 89 c7             	mov    %rax,%rdi
    6226:	e8 c5 bd ff ff       	callq  1ff0 <_ZStrsIcSt11char_traitsIcEERSt13basic_istreamIT_T0_ES6_RS3_@plt>
    622b:	48 8b 74 24 30       	mov    0x30(%rsp),%rsi
    6230:	48 89 df             	mov    %rbx,%rdi
    6233:	e8 58 be ff ff       	callq  2090 <_ZNSi10_M_extractIjEERSiRT_@plt>
    6238:	8b 4c 24 48          	mov    0x48(%rsp),%ecx
    623c:	48 8b 55 20          	mov    0x20(%rbp),%rdx
    6240:	83 44 24 38 01       	addl   $0x1,0x38(%rsp)
    6245:	8d 41 ff             	lea    -0x1(%rcx),%eax
    6248:	42 89 44 b2 f4       	mov    %eax,-0xc(%rdx,%r14,4)
    624d:	8b 44 24 38          	mov    0x38(%rsp),%eax
    6251:	83 f8 03             	cmp    $0x3,%eax
    6254:	75 99                	jne    61ef <_ZN4Mesh8load_objEPKc+0xd5f>
    6256:	e9 62 f4 ff ff       	jmpq   56bd <_ZN4Mesh8load_objEPKc+0x22d>
    625b:	0f 1f 44 00 00       	nopl   0x0(%rax,%rax,1)
    6260:	48 8b 74 24 30       	mov    0x30(%rsp),%rsi
    6265:	48 89 df             	mov    %rbx,%rdi
    6268:	e8 23 be ff ff       	callq  2090 <_ZNSi10_M_extractIjEERSiRT_@plt>
    626d:	8b 4c 24 48          	mov    0x48(%rsp),%ecx
    6271:	4c 63 74 24 38       	movslq 0x38(%rsp),%r14
    6276:	48 89 df             	mov    %rbx,%rdi
    6279:	48 8b 55 08          	mov    0x8(%rbp),%rdx
    627d:	48 8b 74 24 20       	mov    0x20(%rsp),%rsi
    6282:	8d 41 ff             	lea    -0x1(%rcx),%eax
    6285:	42 89 44 b2 f4       	mov    %eax,-0xc(%rdx,%r14,4)
    628a:	e8 61 bd ff ff       	callq  1ff0 <_ZStrsIcSt11char_traitsIcEERSt13basic_istreamIT_T0_ES6_RS3_@plt>
    628f:	48 8b 74 24 30       	mov    0x30(%rsp),%rsi
    6294:	48 89 df             	mov    %rbx,%rdi
    6297:	e8 f4 bd ff ff       	callq  2090 <_ZNSi10_M_extractIjEERSiRT_@plt>
    629c:	8b 4c 24 48          	mov    0x48(%rsp),%ecx
    62a0:	48 8b 55 38          	mov    0x38(%rbp),%rdx
    62a4:	48 89 df             	mov    %rbx,%rdi
    62a7:	48 8b 74 24 20       	mov    0x20(%rsp),%rsi
    62ac:	8d 41 ff             	lea    -0x1(%rcx),%eax
    62af:	42 89 44 b2 f4       	mov    %eax,-0xc(%rdx,%r14,4)
    62b4:	e8 37 bd ff ff       	callq  1ff0 <_ZStrsIcSt11char_traitsIcEERSt13basic_istreamIT_T0_ES6_RS3_@plt>
    62b9:	48 8b 74 24 30       	mov    0x30(%rsp),%rsi
    62be:	48 89 df             	mov    %rbx,%rdi
    62c1:	e8 ca bd ff ff       	callq  2090 <_ZNSi10_M_extractIjEERSiRT_@plt>
    62c6:	8b 4c 24 48          	mov    0x48(%rsp),%ecx
    62ca:	48 8b 55 20          	mov    0x20(%rbp),%rdx
    62ce:	83 44 24 38 01       	addl   $0x1,0x38(%rsp)
    62d3:	8d 41 ff             	lea    -0x1(%rcx),%eax
    62d6:	42 89 44 b2 f4       	mov    %eax,-0xc(%rdx,%r14,4)
    62db:	8b 44 24 38          	mov    0x38(%rsp),%eax
    62df:	83 f8 03             	cmp    $0x3,%eax
    62e2:	0f 85 78 ff ff ff    	jne    6260 <_ZN4Mesh8load_objEPKc+0xdd0>
    62e8:	e9 d0 f3 ff ff       	jmpq   56bd <_ZN4Mesh8load_objEPKc+0x22d>
    62ed:	0f 1f 00             	nopl   (%rax)
    62f0:	48 8d 7d 30          	lea    0x30(%rbp),%rdi
    62f4:	4c 89 f6             	mov    %r14,%rsi
    62f7:	e8 c4 ed ff ff       	callq  50c0 <_ZNSt6vectorIN3rtm5uvec3ESaIS1_EE12emplace_backIJS1_EEEvDpOT_>
    62fc:	e9 29 fa ff ff       	jmpq   5d2a <_ZN4Mesh8load_objEPKc+0x89a>
    6301:	48 8d 44 24 48       	lea    0x48(%rsp),%rax
    6306:	c7 44 24 38 00 00 00 	movl   $0x0,0x38(%rsp)
    630d:	00 
    630e:	48 89 44 24 30       	mov    %rax,0x30(%rsp)
    6313:	48 8d 44 24 44       	lea    0x44(%rsp),%rax
    6318:	48 89 44 24 20       	mov    %rax,0x20(%rsp)
    631d:	48 8b 74 24 30       	mov    0x30(%rsp),%rsi
    6322:	48 89 df             	mov    %rbx,%rdi
    6325:	e8 66 bd ff ff       	callq  2090 <_ZNSi10_M_extractIjEERSiRT_@plt>
    632a:	8b 4c 24 48          	mov    0x48(%rsp),%ecx
    632e:	4c 63 74 24 38       	movslq 0x38(%rsp),%r14
    6333:	48 89 df             	mov    %rbx,%rdi
    6336:	48 8b 55 08          	mov    0x8(%rbp),%rdx
    633a:	48 8b 74 24 20       	mov    0x20(%rsp),%rsi
    633f:	8d 41 ff             	lea    -0x1(%rcx),%eax
    6342:	42 89 44 b2 f4       	mov    %eax,-0xc(%rdx,%r14,4)
    6347:	e8 a4 bc ff ff       	callq  1ff0 <_ZStrsIcSt11char_traitsIcEERSt13basic_istreamIT_T0_ES6_RS3_@plt>
    634c:	48 8b 74 24 30       	mov    0x30(%rsp),%rsi
    6351:	48 89 df             	mov    %rbx,%rdi
    6354:	e8 37 bd ff ff       	callq  2090 <_ZNSi10_M_extractIjEERSiRT_@plt>
    6359:	8b 4c 24 48          	mov    0x48(%rsp),%ecx
    635d:	48 8b 55 38          	mov    0x38(%rbp),%rdx
    6361:	83 44 24 38 01       	addl   $0x1,0x38(%rsp)
    6366:	8d 41 ff             	lea    -0x1(%rcx),%eax
    6369:	42 89 44 b2 f4       	mov    %eax,-0xc(%rdx,%r14,4)
    636e:	8b 44 24 38          	mov    0x38(%rsp),%eax
    6372:	83 f8 03             	cmp    $0x3,%eax
    6375:	75 a6                	jne    631d <_ZN4Mesh8load_objEPKc+0xe8d>
    6377:	e9 41 f3 ff ff       	jmpq   56bd <_ZN4Mesh8load_objEPKc+0x22d>
    637c:	f3 0f 11 5c 24 08    	movss  %xmm3,0x8(%rsp)
    6382:	49 83 c4 01          	add    $0x1,%r12
    6386:	f3 0f 11 0c 24       	movss  %xmm1,(%rsp)
    638b:	e8 30 bd ff ff       	callq  20c0 <sqrtf@plt>
    6390:	f3 0f 10 43 08       	movss  0x8(%rbx),%xmm0
    6395:	f3 0f 10 53 04       	movss  0x4(%rbx),%xmm2
    639a:	48 8b 55 50          	mov    0x50(%rbp),%rdx
    639e:	f3 0f 10 23          	movss  (%rbx),%xmm4
    63a2:	48 8b 4d 48          	mov    0x48(%rbp),%rcx
    63a6:	f3 0f 10 0c 24       	movss  (%rsp),%xmm1
    63ab:	48 8b 75 60          	mov    0x60(%rbp),%rsi
    63af:	f3 0f 5e c1          	divss  %xmm1,%xmm0
    63b3:	48 89 d0             	mov    %rdx,%rax
    63b6:	48 29 c8             	sub    %rcx,%rax
    63b9:	f3 0f 10 5c 24 08    	movss  0x8(%rsp),%xmm3
    63bf:	48 c1 f8 02          	sar    $0x2,%rax
    63c3:	49 01 f6             	add    %rsi,%r14
    63c6:	49 0f af c5          	imul   %r13,%rax
    63ca:	49 39 c4             	cmp    %rax,%r12
    63cd:	f3 0f 5e d1          	divss  %xmm1,%xmm2
    63d1:	f3 41 0f 11 46 08    	movss  %xmm0,0x8(%r14)
    63d7:	f3 0f 5e e1          	divss  %xmm1,%xmm4
    63db:	f3 41 0f 11 56 04    	movss  %xmm2,0x4(%r14)
    63e1:	f3 41 0f 11 26       	movss  %xmm4,(%r14)
    63e6:	0f 82 fc fc ff ff    	jb     60e8 <_ZN4Mesh8load_objEPKc+0xc58>
    63ec:	e9 ed f6 ff ff       	jmpq   5ade <_ZN4Mesh8load_objEPKc+0x64e>
    63f1:	f3 0f 11 5c 24 3c    	movss  %xmm3,0x3c(%rsp)
    63f7:	0f 29 64 24 20       	movaps %xmm4,0x20(%rsp)
    63fc:	f3 0f 11 4c 24 38    	movss  %xmm1,0x38(%rsp)
    6402:	f3 0f 11 54 24 30    	movss  %xmm2,0x30(%rsp)
    6408:	f3 0f 11 7c 24 08    	movss  %xmm7,0x8(%rsp)
    640e:	f3 0f 11 2c 24       	movss  %xmm5,(%rsp)
    6413:	e8 a8 bc ff ff       	callq  20c0 <sqrtf@plt>
    6418:	48 8b 7d 00          	mov    0x0(%rbp),%rdi
    641c:	48 8b 75 08          	mov    0x8(%rbp),%rsi
    6420:	48 8b 4d 48          	mov    0x48(%rbp),%rcx
    6424:	f3 0f 10 5c 24 3c    	movss  0x3c(%rsp),%xmm3
    642a:	4a 8d 04 2f          	lea    (%rdi,%r13,1),%rax
    642e:	0f 28 64 24 20       	movaps 0x20(%rsp),%xmm4
    6433:	f3 0f 10 4c 24 38    	movss  0x38(%rsp),%xmm1
    6439:	f3 0f 10 54 24 30    	movss  0x30(%rsp),%xmm2
    643f:	f3 0f 10 7c 24 08    	movss  0x8(%rsp),%xmm7
    6445:	f3 0f 10 2c 24       	movss  (%rsp),%xmm5
    644a:	e9 ba fb ff ff       	jmpq   6009 <_ZN4Mesh8load_objEPKc+0xb79>
    644f:	e8 6c bb ff ff       	callq  1fc0 <_ZSt16__throw_bad_castv@plt>
    6454:	48 89 c5             	mov    %rax,%rbp
    6457:	48 8b 44 24 08       	mov    0x8(%rsp),%rax
    645c:	48 8b 7c 24 60       	mov    0x60(%rsp),%rdi
    6461:	48 83 c0 10          	add    $0x10,%rax
    6465:	48 39 c7             	cmp    %rax,%rdi
    6468:	74 05                	je     646f <_ZN4Mesh8load_objEPKc+0xfdf>
    646a:	e8 a1 ba ff ff       	callq  1f10 <_ZdlPv@plt>
    646f:	48 89 eb             	mov    %rbp,%rbx
    6472:	4c 89 ff             	mov    %r15,%rdi
    6475:	e8 96 b9 ff ff       	callq  1e10 <_ZNSt14basic_ifstreamIcSt11char_traitsIcEED1Ev@plt>
    647a:	48 89 df             	mov    %rbx,%rdi
    647d:	e8 1e bc ff ff       	callq  20a0 <_Unwind_Resume@plt>
    6482:	48 8b bc 24 80 00 00 	mov    0x80(%rsp),%rdi
    6489:	00 
    648a:	49 83 c4 10          	add    $0x10,%r12
    648e:	48 89 c5             	mov    %rax,%rbp
    6491:	4c 39 e7             	cmp    %r12,%rdi
    6494:	74 05                	je     649b <_ZN4Mesh8load_objEPKc+0x100b>
    6496:	e8 75 ba ff ff       	callq  1f10 <_ZdlPv@plt>
    649b:	48 89 df             	mov    %rbx,%rdi
    649e:	e8 ed b9 ff ff       	callq  1e90 <_ZNSt7__cxx1119basic_istringstreamIcSt11char_traitsIcESaIcEED1Ev@plt>
    64a3:	eb b2                	jmp    6457 <_ZN4Mesh8load_objEPKc+0xfc7>
    64a5:	48 89 c5             	mov    %rax,%rbp
    64a8:	48 8d 05 a9 56 20 00 	lea    0x2056a9(%rip),%rax        # 20bb58 <_ZTVNSt7__cxx1115basic_stringbufIcSt11char_traitsIcESaIcEEE@@GLIBCXX_3.4.21+0x10>
    64af:	48 8b bc 24 f8 00 00 	mov    0xf8(%rsp),%rdi
    64b6:	00 
    64b7:	48 89 84 24 b0 00 00 	mov    %rax,0xb0(%rsp)
    64be:	00 
    64bf:	48 8d 43 68          	lea    0x68(%rbx),%rax
    64c3:	48 39 c7             	cmp    %rax,%rdi
    64c6:	74 05                	je     64cd <_ZN4Mesh8load_objEPKc+0x103d>
    64c8:	e8 43 ba ff ff       	callq  1f10 <_ZdlPv@plt>
    64cd:	48 8d 05 f4 54 20 00 	lea    0x2054f4(%rip),%rax        # 20b9c8 <_ZTVSt15basic_streambufIcSt11char_traitsIcEE@@GLIBCXX_3.4+0x10>
    64d4:	48 8d 7b 48          	lea    0x48(%rbx),%rdi
    64d8:	48 89 84 24 b0 00 00 	mov    %rax,0xb0(%rsp)
    64df:	00 
    64e0:	e8 3b bb ff ff       	callq  2020 <_ZNSt6localeD1Ev@plt>
    64e5:	49 8b 45 e8          	mov    -0x18(%r13),%rax
    64e9:	48 8b 0d 58 55 20 00 	mov    0x205558(%rip),%rcx        # 20ba48 <_ZTTNSt7__cxx1119basic_istringstreamIcSt11char_traitsIcESaIcEEE@@GLIBCXX_3.4.21+0x10>
    64f0:	4c 89 ac 24 a0 00 00 	mov    %r13,0xa0(%rsp)
    64f7:	00 
    64f8:	48 89 8c 04 a0 00 00 	mov    %rcx,0xa0(%rsp,%rax,1)
    64ff:	00 
    6500:	48 c7 84 24 a8 00 00 	movq   $0x0,0xa8(%rsp)
    6507:	00 00 00 00 00 
    650c:	48 8d 05 45 54 20 00 	lea    0x205445(%rip),%rax        # 20b958 <_ZTVSt9basic_iosIcSt11char_traitsIcEE@@GLIBCXX_3.4+0x10>
    6513:	48 8d 7b 78          	lea    0x78(%rbx),%rdi
    6517:	48 89 84 24 18 01 00 	mov    %rax,0x118(%rsp)
    651e:	00 
    651f:	e8 2c b9 ff ff       	callq  1e50 <_ZNSt8ios_baseD2Ev@plt>
    6524:	e9 2e ff ff ff       	jmpq   6457 <_ZN4Mesh8load_objEPKc+0xfc7>
    6529:	48 8b bc 24 f8 00 00 	mov    0xf8(%rsp),%rdi
    6530:	00 
    6531:	48 89 c5             	mov    %rax,%rbp
    6534:	48 8d 43 68          	lea    0x68(%rbx),%rax
    6538:	48 39 c7             	cmp    %rax,%rdi
    653b:	75 8b                	jne    64c8 <_ZN4Mesh8load_objEPKc+0x1038>
    653d:	eb 8e                	jmp    64cd <_ZN4Mesh8load_objEPKc+0x103d>
    653f:	48 89 c3             	mov    %rax,%rbx
    6542:	48 8d 05 0f 54 20 00 	lea    0x20540f(%rip),%rax        # 20b958 <_ZTVSt9basic_iosIcSt11char_traitsIcEE@@GLIBCXX_3.4+0x10>
    6549:	49 8d bf 00 01 00 00 	lea    0x100(%r15),%rdi
    6550:	48 89 84 24 20 03 00 	mov    %rax,0x320(%rsp)
    6557:	00 
    6558:	e8 f3 b8 ff ff       	callq  1e50 <_ZNSt8ios_baseD2Ev@plt>
    655d:	48 89 df             	mov    %rbx,%rdi
    6560:	e8 3b bb ff ff       	callq  20a0 <_Unwind_Resume@plt>
    6565:	48 89 c3             	mov    %rax,%rbx
    6568:	48 8b 05 c1 55 20 00 	mov    0x2055c1(%rip),%rax        # 20bb30 <_ZTTSt14basic_ifstreamIcSt11char_traitsIcEE@@GLIBCXX_3.4+0x8>
    656f:	48 8b 50 e8          	mov    -0x18(%rax),%rdx
    6573:	48 89 84 24 20 02 00 	mov    %rax,0x220(%rsp)
    657a:	00 
    657b:	48 8b 05 b6 55 20 00 	mov    0x2055b6(%rip),%rax        # 20bb38 <_ZTTSt14basic_ifstreamIcSt11char_traitsIcEE@@GLIBCXX_3.4+0x10>
    6582:	48 89 84 14 20 02 00 	mov    %rax,0x220(%rsp,%rdx,1)
    6589:	00 
    658a:	48 c7 84 24 28 02 00 	movq   $0x0,0x228(%rsp)
    6591:	00 00 00 00 00 
    6596:	eb aa                	jmp    6542 <_ZN4Mesh8load_objEPKc+0x10b2>
    6598:	48 89 c5             	mov    %rax,%rbp
    659b:	e9 2d ff ff ff       	jmpq   64cd <_ZN4Mesh8load_objEPKc+0x103d>
    65a0:	48 89 c5             	mov    %rax,%rbp
    65a3:	e9 64 ff ff ff       	jmpq   650c <_ZN4Mesh8load_objEPKc+0x107c>
    65a8:	48 8d 3d b1 38 00 00 	lea    0x38b1(%rip),%rdi        # 9e60 <_IO_stdin_used+0x40>
    65af:	e8 0c b9 ff ff       	callq  1ec0 <_ZSt19__throw_logic_errorPKc@plt>
    65b4:	e8 c7 b9 ff ff       	callq  1f80 <__stack_chk_fail@plt>
    65b9:	48 89 c3             	mov    %rax,%rbx
    65bc:	e9 b1 fe ff ff       	jmpq   6472 <_ZN4Mesh8load_objEPKc+0xfe2>
    65c1:	49 8d 7f 10          	lea    0x10(%r15),%rdi
    65c5:	48 89 c3             	mov    %rax,%rbx
    65c8:	e8 73 ba ff ff       	callq  2040 <_ZNSt13basic_filebufIcSt11char_traitsIcEED1Ev@plt>
    65cd:	eb 99                	jmp    6568 <_ZN4Mesh8load_objEPKc+0x10d8>
    65cf:	90                   	nop

00000000000065d0 <_ZNSt6vectorIN7MeshBVH8CentroidESaIS1_EE17_M_realloc_insertIJRKS1_EEEvN9__gnu_cxx17__normal_iteratorIPS1_S3_EEDpOT_>:
    65d0:	41 57                	push   %r15
    65d2:	41 56                	push   %r14
    65d4:	49 89 d7             	mov    %rdx,%r15
    65d7:	41 55                	push   %r13
    65d9:	41 54                	push   %r12
    65db:	48 ba cd cc cc cc cc 	movabs $0xcccccccccccccccd,%rdx
    65e2:	cc cc cc 
    65e5:	55                   	push   %rbp
    65e6:	53                   	push   %rbx
    65e7:	48 89 fd             	mov    %rdi,%rbp
    65ea:	48 89 f3             	mov    %rsi,%rbx
    65ed:	49 89 f6             	mov    %rsi,%r14
    65f0:	48 83 ec 08          	sub    $0x8,%rsp
    65f4:	48 8b 45 08          	mov    0x8(%rbp),%rax
    65f8:	48 8b 3f             	mov    (%rdi),%rdi
    65fb:	48 89 c1             	mov    %rax,%rcx
    65fe:	48 29 fb             	sub    %rdi,%rbx
    6601:	48 29 f9             	sub    %rdi,%rcx
    6604:	48 c1 f9 03          	sar    $0x3,%rcx
    6608:	48 0f af ca          	imul   %rdx,%rcx
    660c:	48 85 c9             	test   %rcx,%rcx
    660f:	0f 84 23 01 00 00    	je     6738 <_ZNSt6vectorIN7MeshBVH8CentroidESaIS1_EE17_M_realloc_insertIJRKS1_EEEvN9__gnu_cxx17__normal_iteratorIPS1_S3_EEDpOT_+0x168>
    6615:	48 8d 14 09          	lea    (%rcx,%rcx,1),%rdx
    6619:	49 c7 c5 f0 ff ff ff 	mov    $0xfffffffffffffff0,%r13
    6620:	48 39 d1             	cmp    %rdx,%rcx
    6623:	0f 86 27 01 00 00    	jbe    6750 <_ZNSt6vectorIN7MeshBVH8CentroidESaIS1_EE17_M_realloc_insertIJRKS1_EEEvN9__gnu_cxx17__normal_iteratorIPS1_S3_EEDpOT_+0x180>
    6629:	4c 89 ef             	mov    %r13,%rdi
    662c:	e8 1f b9 ff ff       	callq  1f50 <_Znwm@plt>
    6631:	48 8b 7d 00          	mov    0x0(%rbp),%rdi
    6635:	49 89 c4             	mov    %rax,%r12
    6638:	48 8b 45 08          	mov    0x8(%rbp),%rax
    663c:	49 8d 4c 24 28       	lea    0x28(%r12),%rcx
    6641:	4d 01 e5             	add    %r12,%r13
    6644:	4c 01 e3             	add    %r12,%rbx
    6647:	74 1a                	je     6663 <_ZNSt6vectorIN7MeshBVH8CentroidESaIS1_EE17_M_realloc_insertIJRKS1_EEEvN9__gnu_cxx17__normal_iteratorIPS1_S3_EEDpOT_+0x93>
    6649:	f3 41 0f 6f 07       	movdqu (%r15),%xmm0
    664e:	49 8b 57 20          	mov    0x20(%r15),%rdx
    6652:	0f 11 03             	movups %xmm0,(%rbx)
    6655:	f3 41 0f 6f 47 10    	movdqu 0x10(%r15),%xmm0
    665b:	48 89 53 20          	mov    %rdx,0x20(%rbx)
    665f:	0f 11 43 10          	movups %xmm0,0x10(%rbx)
    6663:	49 39 fe             	cmp    %rdi,%r14
    6666:	74 55                	je     66bd <_ZNSt6vectorIN7MeshBVH8CentroidESaIS1_EE17_M_realloc_insertIJRKS1_EEEvN9__gnu_cxx17__normal_iteratorIPS1_S3_EEDpOT_+0xed>
    6668:	48 8d 57 28          	lea    0x28(%rdi),%rdx
    666c:	4c 89 f3             	mov    %r14,%rbx
    666f:	49 89 f8             	mov    %rdi,%r8
    6672:	48 29 d3             	sub    %rdx,%rbx
    6675:	48 89 da             	mov    %rbx,%rdx
    6678:	48 c1 ea 03          	shr    $0x3,%rdx
    667c:	49 8d 4c d4 28       	lea    0x28(%r12,%rdx,8),%rcx
    6681:	4c 89 e2             	mov    %r12,%rdx
    6684:	0f 1f 40 00          	nopl   0x0(%rax)
    6688:	48 85 d2             	test   %rdx,%rdx
    668b:	0f 84 f4 00 00 00    	je     6785 <_ZNSt6vectorIN7MeshBVH8CentroidESaIS1_EE17_M_realloc_insertIJRKS1_EEEvN9__gnu_cxx17__normal_iteratorIPS1_S3_EEDpOT_+0x1b5>
    6691:	f3 41 0f 6f 00       	movdqu (%r8),%xmm0
    6696:	48 83 c2 28          	add    $0x28,%rdx
    669a:	49 83 c0 28          	add    $0x28,%r8
    669e:	0f 11 42 d8          	movups %xmm0,-0x28(%rdx)
    66a2:	f3 41 0f 6f 40 e8    	movdqu -0x18(%r8),%xmm0
    66a8:	0f 11 42 e8          	movups %xmm0,-0x18(%rdx)
    66ac:	4d 8b 48 f8          	mov    -0x8(%r8),%r9
    66b0:	4c 89 4a f8          	mov    %r9,-0x8(%rdx)
    66b4:	48 39 d1             	cmp    %rdx,%rcx
    66b7:	75 cf                	jne    6688 <_ZNSt6vectorIN7MeshBVH8CentroidESaIS1_EE17_M_realloc_insertIJRKS1_EEEvN9__gnu_cxx17__normal_iteratorIPS1_S3_EEDpOT_+0xb8>
    66b9:	48 83 c1 28          	add    $0x28,%rcx
    66bd:	49 39 c6             	cmp    %rax,%r14
    66c0:	0f 84 ba 00 00 00    	je     6780 <_ZNSt6vectorIN7MeshBVH8CentroidESaIS1_EE17_M_realloc_insertIJRKS1_EEEvN9__gnu_cxx17__normal_iteratorIPS1_S3_EEDpOT_+0x1b0>
    66c6:	49 8d 56 28          	lea    0x28(%r14),%rdx
    66ca:	4c 89 f6             	mov    %r14,%rsi
    66cd:	48 29 d0             	sub    %rdx,%rax
    66d0:	48 89 c2             	mov    %rax,%rdx
    66d3:	48 c1 ea 03          	shr    $0x3,%rdx
    66d7:	48 8d 5c d1 28       	lea    0x28(%rcx,%rdx,8),%rbx
    66dc:	0f 1f 40 00          	nopl   0x0(%rax)
    66e0:	48 85 c9             	test   %rcx,%rcx
    66e3:	0f 84 b4 00 00 00    	je     679d <_ZNSt6vectorIN7MeshBVH8CentroidESaIS1_EE17_M_realloc_insertIJRKS1_EEEvN9__gnu_cxx17__normal_iteratorIPS1_S3_EEDpOT_+0x1cd>
    66e9:	f3 0f 6f 06          	movdqu (%rsi),%xmm0
    66ed:	48 83 c1 28          	add    $0x28,%rcx
    66f1:	48 83 c6 28          	add    $0x28,%rsi
    66f5:	48 8b 56 f8          	mov    -0x8(%rsi),%rdx
    66f9:	0f 11 41 d8          	movups %xmm0,-0x28(%rcx)
    66fd:	f3 0f 6f 46 e8       	movdqu -0x18(%rsi),%xmm0
    6702:	48 89 51 f8          	mov    %rdx,-0x8(%rcx)
    6706:	0f 11 41 e8          	movups %xmm0,-0x18(%rcx)
    670a:	48 39 d9             	cmp    %rbx,%rcx
    670d:	75 d1                	jne    66e0 <_ZNSt6vectorIN7MeshBVH8CentroidESaIS1_EE17_M_realloc_insertIJRKS1_EEEvN9__gnu_cxx17__normal_iteratorIPS1_S3_EEDpOT_+0x110>
    670f:	48 85 ff             	test   %rdi,%rdi
    6712:	74 05                	je     6719 <_ZNSt6vectorIN7MeshBVH8CentroidESaIS1_EE17_M_realloc_insertIJRKS1_EEEvN9__gnu_cxx17__normal_iteratorIPS1_S3_EEDpOT_+0x149>
    6714:	e8 f7 b7 ff ff       	callq  1f10 <_ZdlPv@plt>
    6719:	4c 89 65 00          	mov    %r12,0x0(%rbp)
    671d:	48 89 5d 08          	mov    %rbx,0x8(%rbp)
    6721:	4c 89 6d 10          	mov    %r13,0x10(%rbp)
    6725:	48 83 c4 08          	add    $0x8,%rsp
    6729:	5b                   	pop    %rbx
    672a:	5d                   	pop    %rbp
    672b:	41 5c                	pop    %r12
    672d:	41 5d                	pop    %r13
    672f:	41 5e                	pop    %r14
    6731:	41 5f                	pop    %r15
    6733:	c3                   	retq   
    6734:	0f 1f 40 00          	nopl   0x0(%rax)
    6738:	ba 01 00 00 00       	mov    $0x1,%edx
    673d:	4c 8d 2c 92          	lea    (%rdx,%rdx,4),%r13
    6741:	49 c1 e5 03          	shl    $0x3,%r13
    6745:	e9 df fe ff ff       	jmpq   6629 <_ZNSt6vectorIN7MeshBVH8CentroidESaIS1_EE17_M_realloc_insertIJRKS1_EEEvN9__gnu_cxx17__normal_iteratorIPS1_S3_EEDpOT_+0x59>
    674a:	66 0f 1f 44 00 00    	nopw   0x0(%rax,%rax,1)
    6750:	48 b9 66 66 66 66 66 	movabs $0x666666666666666,%rcx
    6757:	66 66 06 
    675a:	48 39 ca             	cmp    %rcx,%rdx
    675d:	0f 87 c6 fe ff ff    	ja     6629 <_ZNSt6vectorIN7MeshBVH8CentroidESaIS1_EE17_M_realloc_insertIJRKS1_EEEvN9__gnu_cxx17__normal_iteratorIPS1_S3_EEDpOT_+0x59>
    6763:	48 85 d2             	test   %rdx,%rdx
    6766:	75 d5                	jne    673d <_ZNSt6vectorIN7MeshBVH8CentroidESaIS1_EE17_M_realloc_insertIJRKS1_EEEvN9__gnu_cxx17__normal_iteratorIPS1_S3_EEDpOT_+0x16d>
    6768:	b9 28 00 00 00       	mov    $0x28,%ecx
    676d:	45 31 ed             	xor    %r13d,%r13d
    6770:	45 31 e4             	xor    %r12d,%r12d
    6773:	e9 cc fe ff ff       	jmpq   6644 <_ZNSt6vectorIN7MeshBVH8CentroidESaIS1_EE17_M_realloc_insertIJRKS1_EEEvN9__gnu_cxx17__normal_iteratorIPS1_S3_EEDpOT_+0x74>
    6778:	0f 1f 84 00 00 00 00 	nopl   0x0(%rax,%rax,1)
    677f:	00 
    6780:	48 89 cb             	mov    %rcx,%rbx
    6783:	eb 8a                	jmp    670f <_ZNSt6vectorIN7MeshBVH8CentroidESaIS1_EE17_M_realloc_insertIJRKS1_EEEvN9__gnu_cxx17__normal_iteratorIPS1_S3_EEDpOT_+0x13f>
    6785:	49 83 c0 28          	add    $0x28,%r8
    6789:	48 83 f9 28          	cmp    $0x28,%rcx
    678d:	0f 84 26 ff ff ff    	je     66b9 <_ZNSt6vectorIN7MeshBVH8CentroidESaIS1_EE17_M_realloc_insertIJRKS1_EEEvN9__gnu_cxx17__normal_iteratorIPS1_S3_EEDpOT_+0xe9>
    6793:	ba 28 00 00 00       	mov    $0x28,%edx
    6798:	e9 f4 fe ff ff       	jmpq   6691 <_ZNSt6vectorIN7MeshBVH8CentroidESaIS1_EE17_M_realloc_insertIJRKS1_EEEvN9__gnu_cxx17__normal_iteratorIPS1_S3_EEDpOT_+0xc1>
    679d:	48 83 c6 28          	add    $0x28,%rsi
    67a1:	48 83 fb 28          	cmp    $0x28,%rbx
    67a5:	0f 84 64 ff ff ff    	je     670f <_ZNSt6vectorIN7MeshBVH8CentroidESaIS1_EE17_M_realloc_insertIJRKS1_EEEvN9__gnu_cxx17__normal_iteratorIPS1_S3_EEDpOT_+0x13f>
    67ab:	b9 28 00 00 00       	mov    $0x28,%ecx
    67b0:	e9 34 ff ff ff       	jmpq   66e9 <_ZNSt6vectorIN7MeshBVH8CentroidESaIS1_EE17_M_realloc_insertIJRKS1_EEEvN9__gnu_cxx17__normal_iteratorIPS1_S3_EEDpOT_+0x119>
    67b5:	66 2e 0f 1f 84 00 00 	nopw   %cs:0x0(%rax,%rax,1)
    67bc:	00 00 00 
    67bf:	90                   	nop

00000000000067c0 <_ZNK7MeshBVH20_split_centroids_sahERSt6vectorINS_8CentroidESaIS1_EEPS3_>:
    67c0:	41 57                	push   %r15
    67c2:	41 56                	push   %r14
    67c4:	41 55                	push   %r13
    67c6:	41 54                	push   %r12
    67c8:	55                   	push   %rbp
    67c9:	53                   	push   %rbx
    67ca:	48 89 f5             	mov    %rsi,%rbp
    67cd:	48 89 d3             	mov    %rdx,%rbx
    67d0:	48 83 ec 78          	sub    $0x78,%rsp
    67d4:	48 8b 0e             	mov    (%rsi),%rcx
    67d7:	64 48 8b 04 25 28 00 	mov    %fs:0x28,%rax
    67de:	00 00 
    67e0:	48 89 44 24 68       	mov    %rax,0x68(%rsp)
    67e5:	31 c0                	xor    %eax,%eax
    67e7:	48 b8 ff ff 7f 7f ff 	movabs $0x7f7fffff7f7fffff,%rax
    67ee:	ff 7f 7f 
    67f1:	c7 44 24 58 ff ff 7f 	movl   $0x7f7fffff,0x58(%rsp)
    67f8:	7f 
    67f9:	c7 44 24 64 ff ff 7f 	movl   $0xff7fffff,0x64(%rsp)
    6800:	ff 
    6801:	48 89 44 24 50       	mov    %rax,0x50(%rsp)
    6806:	48 b8 ff ff 7f ff ff 	movabs $0xff7fffffff7fffff,%rax
    680d:	ff 7f ff 
    6810:	48 89 44 24 5c       	mov    %rax,0x5c(%rsp)
    6815:	48 8b 46 08          	mov    0x8(%rsi),%rax
    6819:	f3 44 0f 10 0d 5a 38 	movss  0x385a(%rip),%xmm9        # a07c <_ZTSNSt6thread11_State_implINS_8_InvokerISt5tupleIJPFv11StartupData7MeshBVHES3_S4_EEEEEE+0x9c>
    6820:	00 00 
    6822:	48 89 c6             	mov    %rax,%rsi
    6825:	48 89 44 24 38       	mov    %rax,0x38(%rsp)
    682a:	48 b8 cd cc cc cc cc 	movabs $0xcccccccccccccccd,%rax
    6831:	cc cc cc 
    6834:	48 29 ce             	sub    %rcx,%rsi
    6837:	48 c1 fe 03          	sar    $0x3,%rsi
    683b:	48 0f af f0          	imul   %rax,%rsi
    683f:	48 85 f6             	test   %rsi,%rsi
    6842:	0f 84 78 07 00 00    	je     6fc0 <_ZNK7MeshBVH20_split_centroids_sahERSt6vectorINS_8CentroidESaIS1_EEPS3_+0x800>
    6848:	f3 44 0f 10 1d 2f 38 	movss  0x382f(%rip),%xmm11        # a080 <_ZTSNSt6thread11_State_implINS_8_InvokerISt5tupleIJPFv11StartupData7MeshBVHES3_S4_EEEEEE+0xa0>
    684f:	00 00 
    6851:	41 0f 28 e9          	movaps %xmm9,%xmm5
    6855:	41 0f 28 e1          	movaps %xmm9,%xmm4
    6859:	f3 44 0f 11 0c 24    	movss  %xmm9,(%rsp)
    685f:	41 0f 28 c1          	movaps %xmm9,%xmm0
    6863:	31 d2                	xor    %edx,%edx
    6865:	41 0f 28 db          	movaps %xmm11,%xmm3
    6869:	31 c0                	xor    %eax,%eax
    686b:	41 0f 28 d3          	movaps %xmm11,%xmm2
    686f:	41 0f 28 cb          	movaps %xmm11,%xmm1
    6873:	45 0f 28 fb          	movaps %xmm11,%xmm15
    6877:	45 0f 28 d3          	movaps %xmm11,%xmm10
    687b:	45 0f 28 f3          	movaps %xmm11,%xmm14
    687f:	45 0f 28 e9          	movaps %xmm9,%xmm13
    6883:	45 0f 28 e1          	movaps %xmm9,%xmm12
    6887:	66 0f 1f 84 00 00 00 	nopw   0x0(%rax,%rax,1)
    688e:	00 00 
    6890:	48 8d 04 80          	lea    (%rax,%rax,4),%rax
    6894:	48 8d 04 c1          	lea    (%rcx,%rax,8),%rax
    6898:	f3 0f 10 70 0c       	movss  0xc(%rax),%xmm6
    689d:	f3 0f 5d ee          	minss  %xmm6,%xmm5
    68a1:	f3 44 0f 10 40 04    	movss  0x4(%rax),%xmm8
    68a7:	f3 0f 5f de          	maxss  %xmm6,%xmm3
    68ab:	f3 0f 10 70 10       	movss  0x10(%rax),%xmm6
    68b0:	f3 41 0f 5d f4       	minss  %xmm12,%xmm6
    68b5:	f3 0f 10 78 08       	movss  0x8(%rax),%xmm7
    68ba:	f3 41 0f 5d c0       	minss  %xmm8,%xmm0
    68bf:	f3 0f 5d e7          	minss  %xmm7,%xmm4
    68c3:	f3 0f 11 6c 24 58    	movss  %xmm5,0x58(%rsp)
    68c9:	f3 41 0f 5f c8       	maxss  %xmm8,%xmm1
    68ce:	f3 0f 11 5c 24 64    	movss  %xmm3,0x64(%rsp)
    68d4:	44 0f 28 e6          	movaps %xmm6,%xmm12
    68d8:	f3 0f 10 70 14       	movss  0x14(%rax),%xmm6
    68dd:	f3 41 0f 5d f5       	minss  %xmm13,%xmm6
    68e2:	f3 0f 11 44 24 50    	movss  %xmm0,0x50(%rsp)
    68e8:	f3 0f 5f d7          	maxss  %xmm7,%xmm2
    68ec:	f3 0f 11 64 24 54    	movss  %xmm4,0x54(%rsp)
    68f2:	f3 0f 11 4c 24 5c    	movss  %xmm1,0x5c(%rsp)
    68f8:	44 0f 28 ee          	movaps %xmm6,%xmm13
    68fc:	f3 0f 10 70 18       	movss  0x18(%rax),%xmm6
    6901:	f3 41 0f 5d f1       	minss  %xmm9,%xmm6
    6906:	f3 0f 11 54 24 60    	movss  %xmm2,0x60(%rsp)
    690c:	44 0f 28 ce          	movaps %xmm6,%xmm9
    6910:	f3 0f 10 70 1c       	movss  0x1c(%rax),%xmm6
    6915:	f3 41 0f 5f f6       	maxss  %xmm14,%xmm6
    691a:	44 0f 28 f6          	movaps %xmm6,%xmm14
    691e:	f3 0f 10 70 20       	movss  0x20(%rax),%xmm6
    6923:	f3 41 0f 5f f2       	maxss  %xmm10,%xmm6
    6928:	44 0f 28 d6          	movaps %xmm6,%xmm10
    692c:	f3 0f 10 70 24       	movss  0x24(%rax),%xmm6
    6931:	8d 42 01             	lea    0x1(%rdx),%eax
    6934:	f3 41 0f 5f f7       	maxss  %xmm15,%xmm6
    6939:	48 39 c6             	cmp    %rax,%rsi
    693c:	48 89 c2             	mov    %rax,%rdx
    693f:	44 0f 28 fe          	movaps %xmm6,%xmm15
    6943:	0f 87 47 ff ff ff    	ja     6890 <_ZNK7MeshBVH20_split_centroids_sahERSt6vectorINS_8CentroidESaIS1_EEPS3_+0xd0>
    6949:	f3 44 0f 11 54 24 24 	movss  %xmm10,0x24(%rsp)
    6950:	f3 44 0f 11 64 24 28 	movss  %xmm12,0x28(%rsp)
    6957:	f3 44 0f 11 6c 24 2c 	movss  %xmm13,0x2c(%rsp)
    695e:	f3 44 0f 11 74 24 30 	movss  %xmm14,0x30(%rsp)
    6965:	f3 0f 11 74 24 34    	movss  %xmm6,0x34(%rsp)
    696b:	f3 44 0f 11 4c 24 20 	movss  %xmm9,0x20(%rsp)
    6972:	f3 44 0f 10 0c 24    	movss  (%rsp),%xmm9
    6978:	48 8b 7c 24 38       	mov    0x38(%rsp),%rdi
    697d:	83 fe 20             	cmp    $0x20,%esi
    6980:	b8 20 00 00 00       	mov    $0x20,%eax
    6985:	0f 42 c6             	cmovb  %esi,%eax
    6988:	4c 8d 44 24 50       	lea    0x50(%rsp),%r8
    698d:	f3 44 0f 11 4c 24 04 	movss  %xmm9,0x4(%rsp)
    6994:	44 8d 60 ff          	lea    -0x1(%rax),%r12d
    6998:	89 44 24 1c          	mov    %eax,0x1c(%rsp)
    699c:	48 b8 cd cc cc cc cc 	movabs $0xcccccccccccccccd,%rax
    69a3:	cc cc cc 
    69a6:	48 29 cf             	sub    %rcx,%rdi
    69a9:	45 31 ed             	xor    %r13d,%r13d
    69ac:	45 31 c9             	xor    %r9d,%r9d
    69af:	48 c1 ff 03          	sar    $0x3,%rdi
    69b3:	c7 44 24 10 00 00 00 	movl   $0x0,0x10(%rsp)
    69ba:	00 
    69bb:	c7 44 24 14 00 00 00 	movl   $0x0,0x14(%rsp)
    69c2:	00 
    69c3:	48 0f af f8          	imul   %rax,%rdi
    69c7:	45 31 ff             	xor    %r15d,%r15d
    69ca:	49 83 c4 01          	add    $0x1,%r12
    69ce:	48 89 6c 24 40       	mov    %rbp,0x40(%rsp)
    69d3:	48 89 5c 24 48       	mov    %rbx,0x48(%rsp)
    69d8:	f3 41 0f 10 60 0c    	movss  0xc(%r8),%xmm4
    69de:	0f 28 cc             	movaps %xmm4,%xmm1
    69e1:	f3 0f 11 64 24 0c    	movss  %xmm4,0xc(%rsp)
    69e7:	66 0f ef e4          	pxor   %xmm4,%xmm4
    69eb:	f3 0f 5c c8          	subss  %xmm0,%xmm1
    69ef:	0f 2e e1             	ucomiss %xmm1,%xmm4
    69f2:	0f 83 b8 01 00 00    	jae    6bb0 <_ZNK7MeshBVH20_split_centroids_sahERSt6vectorINS_8CentroidESaIS1_EEPS3_+0x3f0>
    69f8:	8b 44 24 1c          	mov    0x1c(%rsp),%eax
    69fc:	85 c0                	test   %eax,%eax
    69fe:	0f 84 ac 01 00 00    	je     6bb0 <_ZNK7MeshBVH20_split_centroids_sahERSt6vectorINS_8CentroidESaIS1_EEPS3_+0x3f0>
    6a04:	f3 0f 10 54 24 30    	movss  0x30(%rsp),%xmm2
    6a0a:	89 c3                	mov    %eax,%ebx
    6a0c:	31 d2                	xor    %edx,%edx
    6a0e:	f3 0f 5c 54 24 28    	subss  0x28(%rsp),%xmm2
    6a14:	f3 0f 10 64 24 24    	movss  0x24(%rsp),%xmm4
    6a1a:	f3 0f 10 5c 24 34    	movss  0x34(%rsp),%xmm3
    6a20:	f3 0f 5c 64 24 2c    	subss  0x2c(%rsp),%xmm4
    6a26:	f3 0f 5c 5c 24 20    	subss  0x20(%rsp),%xmm3
    6a2c:	4e 8d 34 29          	lea    (%rcx,%r13,1),%r14
    6a30:	49 63 e9             	movslq %r9d,%rbp
    6a33:	0f 28 ca             	movaps %xmm2,%xmm1
    6a36:	f3 0f 59 cc          	mulss  %xmm4,%xmm1
    6a3a:	f3 0f 59 e3          	mulss  %xmm3,%xmm4
    6a3e:	f3 0f 59 d3          	mulss  %xmm3,%xmm2
    6a42:	f3 0f 58 cc          	addss  %xmm4,%xmm1
    6a46:	f3 0f 58 ca          	addss  %xmm2,%xmm1
    6a4a:	f3 0f 58 c9          	addss  %xmm1,%xmm1
    6a4e:	f3 0f 11 4c 24 08    	movss  %xmm1,0x8(%rsp)
    6a54:	e9 36 01 00 00       	jmpq   6b8f <_ZNK7MeshBVH20_split_centroids_sahERSt6vectorINS_8CentroidESaIS1_EEPS3_+0x3cf>
    6a59:	0f 1f 80 00 00 00 00 	nopl   0x0(%rax)
    6a60:	66 0f ef c9          	pxor   %xmm1,%xmm1
    6a64:	f3 0f 10 25 cc 35 00 	movss  0x35cc(%rip),%xmm4        # a038 <_ZTSNSt6thread11_State_implINS_8_InvokerISt5tupleIJPFv11StartupData7MeshBVHES3_S4_EEEEEE+0x58>
    6a6b:	00 
    6a6c:	f3 0f 2a ca          	cvtsi2ss %edx,%xmm1
    6a70:	f3 0f 5e 0d 0c 36 00 	divss  0x360c(%rip),%xmm1        # a084 <_ZTSNSt6thread11_State_implINS_8_InvokerISt5tupleIJPFv11StartupData7MeshBVHES3_S4_EEEEEE+0xa4>
    6a77:	00 
    6a78:	f3 0f 5c e1          	subss  %xmm1,%xmm4
    6a7c:	f3 41 0f 59 48 0c    	mulss  0xc(%r8),%xmm1
    6a82:	f3 0f 59 e0          	mulss  %xmm0,%xmm4
    6a86:	f3 0f 58 e1          	addss  %xmm1,%xmm4
    6a8a:	0f 2e e0             	ucomiss %xmm0,%xmm4
    6a8d:	76 0f                	jbe    6a9e <_ZNK7MeshBVH20_split_centroids_sahERSt6vectorINS_8CentroidESaIS1_EEPS3_+0x2de>
    6a8f:	f3 0f 10 5c 24 0c    	movss  0xc(%rsp),%xmm3
    6a95:	0f 2e dc             	ucomiss %xmm4,%xmm3
    6a98:	0f 83 32 01 00 00    	jae    6bd0 <_ZNK7MeshBVH20_split_centroids_sahERSt6vectorINS_8CentroidESaIS1_EEPS3_+0x410>
    6a9e:	66 45 0f ef ff       	pxor   %xmm15,%xmm15
    6aa3:	41 0f 28 f3          	movaps %xmm11,%xmm6
    6aa7:	66 45 0f ef f6       	pxor   %xmm14,%xmm14
    6aac:	f3 44 0f 11 0c 24    	movss  %xmm9,(%rsp)
    6ab2:	41 0f 28 cb          	movaps %xmm11,%xmm1
    6ab6:	41 0f 28 c3          	movaps %xmm11,%xmm0
    6aba:	41 0f 28 f9          	movaps %xmm9,%xmm7
    6abe:	45 0f 28 c1          	movaps %xmm9,%xmm8
    6ac2:	41 0f 28 eb          	movaps %xmm11,%xmm5
    6ac6:	41 0f 28 db          	movaps %xmm11,%xmm3
    6aca:	41 0f 28 d3          	movaps %xmm11,%xmm2
    6ace:	45 0f 28 d1          	movaps %xmm9,%xmm10
    6ad2:	45 0f 28 e1          	movaps %xmm9,%xmm12
    6ad6:	45 0f 28 e9          	movaps %xmm9,%xmm13
    6ada:	f3 41 0f 5c d5       	subss  %xmm13,%xmm2
    6adf:	f3 41 0f 5c ea       	subss  %xmm10,%xmm5
    6ae4:	f3 41 0f 5c dc       	subss  %xmm12,%xmm3
    6ae9:	f3 0f 5c cf          	subss  %xmm7,%xmm1
    6aed:	0f 28 fa             	movaps %xmm2,%xmm7
    6af0:	f3 0f 59 d5          	mulss  %xmm5,%xmm2
    6af4:	f3 41 0f 5c c0       	subss  %xmm8,%xmm0
    6af9:	f3 0f 59 fb          	mulss  %xmm3,%xmm7
    6afd:	f3 0f 5c 34 24       	subss  (%rsp),%xmm6
    6b02:	f3 0f 59 dd          	mulss  %xmm5,%xmm3
    6b06:	f3 0f 10 6c 24 08    	movss  0x8(%rsp),%xmm5
    6b0c:	f3 0f 58 df          	addss  %xmm7,%xmm3
    6b10:	f3 0f 10 7c 24 04    	movss  0x4(%rsp),%xmm7
    6b16:	f3 0f 58 d3          	addss  %xmm3,%xmm2
    6b1a:	f3 0f 58 d2          	addss  %xmm2,%xmm2
    6b1e:	f3 0f 5e d5          	divss  %xmm5,%xmm2
    6b22:	f3 44 0f 59 f2       	mulss  %xmm2,%xmm14
    6b27:	0f 28 d0             	movaps %xmm0,%xmm2
    6b2a:	f3 0f 59 c6          	mulss  %xmm6,%xmm0
    6b2e:	f3 0f 59 d1          	mulss  %xmm1,%xmm2
    6b32:	f3 0f 59 ce          	mulss  %xmm6,%xmm1
    6b36:	f3 45 0f 58 f6       	addss  %xmm14,%xmm14
    6b3b:	f3 0f 58 ca          	addss  %xmm2,%xmm1
    6b3f:	f3 44 0f 58 35 f0 34 	addss  0x34f0(%rip),%xmm14        # a038 <_ZTSNSt6thread11_State_implINS_8_InvokerISt5tupleIJPFv11StartupData7MeshBVHES3_S4_EEEEEE+0x58>
    6b46:	00 00 
    6b48:	f3 0f 58 c1          	addss  %xmm1,%xmm0
    6b4c:	f3 0f 58 c0          	addss  %xmm0,%xmm0
    6b50:	f3 0f 5e c5          	divss  %xmm5,%xmm0
    6b54:	f3 44 0f 59 f8       	mulss  %xmm0,%xmm15
    6b59:	f3 45 0f 58 ff       	addss  %xmm15,%xmm15
    6b5e:	f3 45 0f 58 fe       	addss  %xmm14,%xmm15
    6b63:	41 0f 2e ff          	ucomiss %xmm15,%xmm7
    6b67:	76 18                	jbe    6b81 <_ZNK7MeshBVH20_split_centroids_sahERSt6vectorINS_8CentroidESaIS1_EEPS3_+0x3c1>
    6b69:	f3 44 0f 11 7c 24 04 	movss  %xmm15,0x4(%rsp)
    6b70:	44 89 4c 24 14       	mov    %r9d,0x14(%rsp)
    6b75:	41 bf 01 00 00 00    	mov    $0x1,%r15d
    6b7b:	f3 0f 11 64 24 10    	movss  %xmm4,0x10(%rsp)
    6b81:	48 83 c2 01          	add    $0x1,%rdx
    6b85:	49 39 d4             	cmp    %rdx,%r12
    6b88:	74 26                	je     6bb0 <_ZNK7MeshBVH20_split_centroids_sahERSt6vectorINS_8CentroidESaIS1_EEPS3_+0x3f0>
    6b8a:	f3 41 0f 10 00       	movss  (%r8),%xmm0
    6b8f:	48 39 df             	cmp    %rbx,%rdi
    6b92:	0f 87 c8 fe ff ff    	ja     6a60 <_ZNK7MeshBVH20_split_centroids_sahERSt6vectorINS_8CentroidESaIS1_EEPS3_+0x2a0>
    6b98:	48 8d 04 92          	lea    (%rdx,%rdx,4),%rax
    6b9c:	f3 41 0f 10 64 c6 04 	movss  0x4(%r14,%rax,8),%xmm4
    6ba3:	e9 e2 fe ff ff       	jmpq   6a8a <_ZNK7MeshBVH20_split_centroids_sahERSt6vectorINS_8CentroidESaIS1_EEPS3_+0x2ca>
    6ba8:	0f 1f 84 00 00 00 00 	nopl   0x0(%rax,%rax,1)
    6baf:	00 
    6bb0:	41 83 c1 01          	add    $0x1,%r9d
    6bb4:	49 83 c0 04          	add    $0x4,%r8
    6bb8:	49 83 c5 04          	add    $0x4,%r13
    6bbc:	41 83 f9 03          	cmp    $0x3,%r9d
    6bc0:	0f 84 5a 01 00 00    	je     6d20 <_ZNK7MeshBVH20_split_centroids_sahERSt6vectorINS_8CentroidESaIS1_EEPS3_+0x560>
    6bc6:	f3 41 0f 10 00       	movss  (%r8),%xmm0
    6bcb:	e9 08 fe ff ff       	jmpq   69d8 <_ZNK7MeshBVH20_split_centroids_sahERSt6vectorINS_8CentroidESaIS1_EEPS3_+0x218>
    6bd0:	48 85 ff             	test   %rdi,%rdi
    6bd3:	0f 84 c5 fe ff ff    	je     6a9e <_ZNK7MeshBVH20_split_centroids_sahERSt6vectorINS_8CentroidESaIS1_EEPS3_+0x2de>
    6bd9:	41 0f 28 f3          	movaps %xmm11,%xmm6
    6bdd:	41 0f 28 cb          	movaps %xmm11,%xmm1
    6be1:	41 0f 28 c3          	movaps %xmm11,%xmm0
    6be5:	45 31 d2             	xor    %r10d,%r10d
    6be8:	41 0f 28 f9          	movaps %xmm9,%xmm7
    6bec:	45 31 db             	xor    %r11d,%r11d
    6bef:	45 0f 28 c1          	movaps %xmm9,%xmm8
    6bf3:	31 f6                	xor    %esi,%esi
    6bf5:	41 0f 28 eb          	movaps %xmm11,%xmm5
    6bf9:	31 c0                	xor    %eax,%eax
    6bfb:	41 0f 28 db          	movaps %xmm11,%xmm3
    6bff:	f3 44 0f 11 4c 24 18 	movss  %xmm9,0x18(%rsp)
    6c06:	41 0f 28 d3          	movaps %xmm11,%xmm2
    6c0a:	45 0f 28 d1          	movaps %xmm9,%xmm10
    6c0e:	45 0f 28 e1          	movaps %xmm9,%xmm12
    6c12:	45 0f 28 e9          	movaps %xmm9,%xmm13
    6c16:	eb 65                	jmp    6c7d <_ZNK7MeshBVH20_split_centroids_sahERSt6vectorINS_8CentroidESaIS1_EEPS3_+0x4bd>
    6c18:	0f 1f 84 00 00 00 00 	nopl   0x0(%rax,%rax,1)
    6c1f:	00 
    6c20:	f3 45 0f 5d fc       	minss  %xmm12,%xmm15
    6c25:	41 83 c3 01          	add    $0x1,%r11d
    6c29:	f3 45 0f 5d f5       	minss  %xmm13,%xmm14
    6c2e:	45 0f 28 e7          	movaps %xmm15,%xmm12
    6c32:	f3 44 0f 10 78 18    	movss  0x18(%rax),%xmm15
    6c38:	45 0f 28 ee          	movaps %xmm14,%xmm13
    6c3c:	f3 45 0f 5d fa       	minss  %xmm10,%xmm15
    6c41:	45 0f 28 d7          	movaps %xmm15,%xmm10
    6c45:	f3 44 0f 10 78 1c    	movss  0x1c(%rax),%xmm15
    6c4b:	f3 44 0f 5f fa       	maxss  %xmm2,%xmm15
    6c50:	41 0f 28 d7          	movaps %xmm15,%xmm2
    6c54:	f3 44 0f 10 78 20    	movss  0x20(%rax),%xmm15
    6c5a:	f3 44 0f 5f fb       	maxss  %xmm3,%xmm15
    6c5f:	41 0f 28 df          	movaps %xmm15,%xmm3
    6c63:	f3 44 0f 10 78 24    	movss  0x24(%rax),%xmm15
    6c69:	8d 46 01             	lea    0x1(%rsi),%eax
    6c6c:	f3 44 0f 5f fd       	maxss  %xmm5,%xmm15
    6c71:	48 39 f8             	cmp    %rdi,%rax
    6c74:	48 89 c6             	mov    %rax,%rsi
    6c77:	41 0f 28 ef          	movaps %xmm15,%xmm5
    6c7b:	73 78                	jae    6cf5 <_ZNK7MeshBVH20_split_centroids_sahERSt6vectorINS_8CentroidESaIS1_EEPS3_+0x535>
    6c7d:	48 8d 04 80          	lea    (%rax,%rax,4),%rax
    6c81:	48 8d 04 c1          	lea    (%rcx,%rax,8),%rax
    6c85:	0f 2e 64 a8 04       	ucomiss 0x4(%rax,%rbp,4),%xmm4
    6c8a:	f3 44 0f 10 70 10    	movss  0x10(%rax),%xmm14
    6c90:	f3 44 0f 10 78 14    	movss  0x14(%rax),%xmm15
    6c96:	77 88                	ja     6c20 <_ZNK7MeshBVH20_split_centroids_sahERSt6vectorINS_8CentroidESaIS1_EEPS3_+0x460>
    6c98:	f3 44 0f 5d ff       	minss  %xmm7,%xmm15
    6c9d:	41 83 c2 01          	add    $0x1,%r10d
    6ca1:	f3 45 0f 5d f0       	minss  %xmm8,%xmm14
    6ca6:	41 0f 28 ff          	movaps %xmm15,%xmm7
    6caa:	f3 44 0f 10 78 18    	movss  0x18(%rax),%xmm15
    6cb0:	45 0f 28 c6          	movaps %xmm14,%xmm8
    6cb4:	f3 45 0f 5d f9       	minss  %xmm9,%xmm15
    6cb9:	45 0f 28 cf          	movaps %xmm15,%xmm9
    6cbd:	f3 44 0f 10 78 1c    	movss  0x1c(%rax),%xmm15
    6cc3:	f3 44 0f 5f f8       	maxss  %xmm0,%xmm15
    6cc8:	41 0f 28 c7          	movaps %xmm15,%xmm0
    6ccc:	f3 44 0f 10 78 20    	movss  0x20(%rax),%xmm15
    6cd2:	f3 44 0f 5f f9       	maxss  %xmm1,%xmm15
    6cd7:	41 0f 28 cf          	movaps %xmm15,%xmm1
    6cdb:	f3 44 0f 10 78 24    	movss  0x24(%rax),%xmm15
    6ce1:	8d 46 01             	lea    0x1(%rsi),%eax
    6ce4:	f3 44 0f 5f fe       	maxss  %xmm6,%xmm15
    6ce9:	48 39 f8             	cmp    %rdi,%rax
    6cec:	48 89 c6             	mov    %rax,%rsi
    6cef:	41 0f 28 f7          	movaps %xmm15,%xmm6
    6cf3:	72 88                	jb     6c7d <_ZNK7MeshBVH20_split_centroids_sahERSt6vectorINS_8CentroidESaIS1_EEPS3_+0x4bd>
    6cf5:	66 45 0f ef f6       	pxor   %xmm14,%xmm14
    6cfa:	f3 44 0f 11 0c 24    	movss  %xmm9,(%rsp)
    6d00:	66 45 0f ef ff       	pxor   %xmm15,%xmm15
    6d05:	f3 44 0f 10 4c 24 18 	movss  0x18(%rsp),%xmm9
    6d0c:	f3 4d 0f 2a f3       	cvtsi2ss %r11,%xmm14
    6d11:	f3 4d 0f 2a fa       	cvtsi2ss %r10,%xmm15
    6d16:	e9 bf fd ff ff       	jmpq   6ada <_ZNK7MeshBVH20_split_centroids_sahERSt6vectorINS_8CentroidESaIS1_EEPS3_+0x31a>
    6d1b:	0f 1f 44 00 00       	nopl   0x0(%rax,%rax,1)
    6d20:	45 84 ff             	test   %r15b,%r15b
    6d23:	48 8b 6c 24 40       	mov    0x40(%rsp),%rbp
    6d28:	48 8b 5c 24 48       	mov    0x48(%rsp),%rbx
    6d2d:	0f 84 cd 00 00 00    	je     6e00 <_ZNK7MeshBVH20_split_centroids_sahERSt6vectorINS_8CentroidESaIS1_EEPS3_+0x640>
    6d33:	44 0f 2e 4c 24 10    	ucomiss 0x10(%rsp),%xmm9
    6d39:	0f 86 bd 02 00 00    	jbe    6ffc <_ZNK7MeshBVH20_split_centroids_sahERSt6vectorINS_8CentroidESaIS1_EEPS3_+0x83c>
    6d3f:	48 3b 4d 08          	cmp    0x8(%rbp),%rcx
    6d43:	0f 84 d7 00 00 00    	je     6e20 <_ZNK7MeshBVH20_split_centroids_sahERSt6vectorINS_8CentroidESaIS1_EEPS3_+0x660>
    6d49:	45 31 e4             	xor    %r12d,%r12d
    6d4c:	31 d2                	xor    %edx,%edx
    6d4e:	4c 63 74 24 14       	movslq 0x14(%rsp),%r14
    6d53:	49 bd cd cc cc cc cc 	movabs $0xcccccccccccccccd,%r13
    6d5a:	cc cc cc 
    6d5d:	f3 0f 10 44 24 10    	movss  0x10(%rsp),%xmm0
    6d63:	eb 56                	jmp    6dbb <_ZNK7MeshBVH20_split_centroids_sahERSt6vectorINS_8CentroidESaIS1_EEPS3_+0x5fb>
    6d65:	0f 1f 00             	nopl   (%rax)
    6d68:	48 8b 73 08          	mov    0x8(%rbx),%rsi
    6d6c:	48 3b 73 10          	cmp    0x10(%rbx),%rsi
    6d70:	0f 84 0a 02 00 00    	je     6f80 <_ZNK7MeshBVH20_split_centroids_sahERSt6vectorINS_8CentroidESaIS1_EEPS3_+0x7c0>
    6d76:	48 85 f6             	test   %rsi,%rsi
    6d79:	74 18                	je     6d93 <_ZNK7MeshBVH20_split_centroids_sahERSt6vectorINS_8CentroidESaIS1_EEPS3_+0x5d3>
    6d7b:	f3 0f 6f 0a          	movdqu (%rdx),%xmm1
    6d7f:	0f 11 0e             	movups %xmm1,(%rsi)
    6d82:	f3 0f 6f 4a 10       	movdqu 0x10(%rdx),%xmm1
    6d87:	0f 11 4e 10          	movups %xmm1,0x10(%rsi)
    6d8b:	48 8b 42 20          	mov    0x20(%rdx),%rax
    6d8f:	48 89 46 20          	mov    %rax,0x20(%rsi)
    6d93:	48 83 c6 28          	add    $0x28,%rsi
    6d97:	48 89 73 08          	mov    %rsi,0x8(%rbx)
    6d9b:	48 8b 4d 00          	mov    0x0(%rbp),%rcx
    6d9f:	48 8b 45 08          	mov    0x8(%rbp),%rax
    6da3:	41 8d 54 24 01       	lea    0x1(%r12),%edx
    6da8:	49 89 d4             	mov    %rdx,%r12
    6dab:	48 29 c8             	sub    %rcx,%rax
    6dae:	48 c1 f8 03          	sar    $0x3,%rax
    6db2:	49 0f af c5          	imul   %r13,%rax
    6db6:	48 39 c2             	cmp    %rax,%rdx
    6db9:	73 65                	jae    6e20 <_ZNK7MeshBVH20_split_centroids_sahERSt6vectorINS_8CentroidESaIS1_EEPS3_+0x660>
    6dbb:	48 8d 04 92          	lea    (%rdx,%rdx,4),%rax
    6dbf:	48 8d 14 c1          	lea    (%rcx,%rax,8),%rdx
    6dc3:	42 0f 2e 44 b2 04    	ucomiss 0x4(%rdx,%r14,4),%xmm0
    6dc9:	77 9d                	ja     6d68 <_ZNK7MeshBVH20_split_centroids_sahERSt6vectorINS_8CentroidESaIS1_EEPS3_+0x5a8>
    6dcb:	48 8b 73 20          	mov    0x20(%rbx),%rsi
    6dcf:	48 3b 73 28          	cmp    0x28(%rbx),%rsi
    6dd3:	0f 84 87 01 00 00    	je     6f60 <_ZNK7MeshBVH20_split_centroids_sahERSt6vectorINS_8CentroidESaIS1_EEPS3_+0x7a0>
    6dd9:	48 85 f6             	test   %rsi,%rsi
    6ddc:	74 18                	je     6df6 <_ZNK7MeshBVH20_split_centroids_sahERSt6vectorINS_8CentroidESaIS1_EEPS3_+0x636>
    6dde:	f3 0f 6f 0a          	movdqu (%rdx),%xmm1
    6de2:	0f 11 0e             	movups %xmm1,(%rsi)
    6de5:	f3 0f 6f 4a 10       	movdqu 0x10(%rdx),%xmm1
    6dea:	0f 11 4e 10          	movups %xmm1,0x10(%rsi)
    6dee:	48 8b 42 20          	mov    0x20(%rdx),%rax
    6df2:	48 89 46 20          	mov    %rax,0x20(%rsi)
    6df6:	48 83 c6 28          	add    $0x28,%rsi
    6dfa:	48 89 73 20          	mov    %rsi,0x20(%rbx)
    6dfe:	eb 9b                	jmp    6d9b <_ZNK7MeshBVH20_split_centroids_sahERSt6vectorINS_8CentroidESaIS1_EEPS3_+0x5db>
    6e00:	48 8b 44 24 38       	mov    0x38(%rsp),%rax
    6e05:	49 bd cd cc cc cc cc 	movabs $0xcccccccccccccccd,%r13
    6e0c:	cc cc cc 
    6e0f:	48 29 c8             	sub    %rcx,%rax
    6e12:	48 c1 f8 03          	sar    $0x3,%rax
    6e16:	49 0f af c5          	imul   %r13,%rax
    6e1a:	48 85 c0             	test   %rax,%rax
    6e1d:	75 29                	jne    6e48 <_ZNK7MeshBVH20_split_centroids_sahERSt6vectorINS_8CentroidESaIS1_EEPS3_+0x688>
    6e1f:	90                   	nop
    6e20:	48 8b 44 24 68       	mov    0x68(%rsp),%rax
    6e25:	64 48 33 04 25 28 00 	xor    %fs:0x28,%rax
    6e2c:	00 00 
    6e2e:	0f 85 e7 01 00 00    	jne    701b <_ZNK7MeshBVH20_split_centroids_sahERSt6vectorINS_8CentroidESaIS1_EEPS3_+0x85b>
    6e34:	48 83 c4 78          	add    $0x78,%rsp
    6e38:	5b                   	pop    %rbx
    6e39:	5d                   	pop    %rbp
    6e3a:	41 5c                	pop    %r12
    6e3c:	41 5d                	pop    %r13
    6e3e:	41 5e                	pop    %r14
    6e40:	41 5f                	pop    %r15
    6e42:	c3                   	retq   
    6e43:	0f 1f 44 00 00       	nopl   0x0(%rax,%rax,1)
    6e48:	45 31 e4             	xor    %r12d,%r12d
    6e4b:	31 d2                	xor    %edx,%edx
    6e4d:	31 f6                	xor    %esi,%esi
    6e4f:	f3 0f 10 15 ed 31 00 	movss  0x31ed(%rip),%xmm2        # a044 <_ZTSNSt6thread11_State_implINS_8_InvokerISt5tupleIJPFv11StartupData7MeshBVHES3_S4_EEEEEE+0x64>
    6e56:	00 
    6e57:	eb 61                	jmp    6eba <_ZNK7MeshBVH20_split_centroids_sahERSt6vectorINS_8CentroidESaIS1_EEPS3_+0x6fa>
    6e59:	0f 1f 80 00 00 00 00 	nopl   0x0(%rax)
    6e60:	48 8b 73 08          	mov    0x8(%rbx),%rsi
    6e64:	48 3b 73 10          	cmp    0x10(%rbx),%rsi
    6e68:	0f 84 d2 00 00 00    	je     6f40 <_ZNK7MeshBVH20_split_centroids_sahERSt6vectorINS_8CentroidESaIS1_EEPS3_+0x780>
    6e6e:	48 85 f6             	test   %rsi,%rsi
    6e71:	74 18                	je     6e8b <_ZNK7MeshBVH20_split_centroids_sahERSt6vectorINS_8CentroidESaIS1_EEPS3_+0x6cb>
    6e73:	f3 0f 6f 02          	movdqu (%rdx),%xmm0
    6e77:	0f 11 06             	movups %xmm0,(%rsi)
    6e7a:	f3 0f 6f 42 10       	movdqu 0x10(%rdx),%xmm0
    6e7f:	0f 11 46 10          	movups %xmm0,0x10(%rsi)
    6e83:	48 8b 42 20          	mov    0x20(%rdx),%rax
    6e87:	48 89 46 20          	mov    %rax,0x20(%rsi)
    6e8b:	48 83 c6 28          	add    $0x28,%rsi
    6e8f:	48 89 73 08          	mov    %rsi,0x8(%rbx)
    6e93:	48 8b 4d 00          	mov    0x0(%rbp),%rcx
    6e97:	48 8b 45 08          	mov    0x8(%rbp),%rax
    6e9b:	41 8d 74 24 01       	lea    0x1(%r12),%esi
    6ea0:	49 89 f4             	mov    %rsi,%r12
    6ea3:	48 89 f2             	mov    %rsi,%rdx
    6ea6:	48 29 c8             	sub    %rcx,%rax
    6ea9:	48 c1 f8 03          	sar    $0x3,%rax
    6ead:	49 0f af c5          	imul   %r13,%rax
    6eb1:	48 39 c6             	cmp    %rax,%rsi
    6eb4:	0f 83 66 ff ff ff    	jae    6e20 <_ZNK7MeshBVH20_split_centroids_sahERSt6vectorINS_8CentroidESaIS1_EEPS3_+0x660>
    6eba:	66 0f ef c9          	pxor   %xmm1,%xmm1
    6ebe:	48 8d 14 92          	lea    (%rdx,%rdx,4),%rdx
    6ec2:	48 85 c0             	test   %rax,%rax
    6ec5:	48 8d 14 d1          	lea    (%rcx,%rdx,8),%rdx
    6ec9:	f3 48 0f 2a ce       	cvtsi2ss %rsi,%xmm1
    6ece:	78 50                	js     6f20 <_ZNK7MeshBVH20_split_centroids_sahERSt6vectorINS_8CentroidESaIS1_EEPS3_+0x760>
    6ed0:	66 0f ef c0          	pxor   %xmm0,%xmm0
    6ed4:	f3 48 0f 2a c0       	cvtsi2ss %rax,%xmm0
    6ed9:	f3 0f 59 c2          	mulss  %xmm2,%xmm0
    6edd:	0f 2e c1             	ucomiss %xmm1,%xmm0
    6ee0:	0f 87 7a ff ff ff    	ja     6e60 <_ZNK7MeshBVH20_split_centroids_sahERSt6vectorINS_8CentroidESaIS1_EEPS3_+0x6a0>
    6ee6:	48 8b 73 20          	mov    0x20(%rbx),%rsi
    6eea:	48 3b 73 28          	cmp    0x28(%rbx),%rsi
    6eee:	0f 84 ac 00 00 00    	je     6fa0 <_ZNK7MeshBVH20_split_centroids_sahERSt6vectorINS_8CentroidESaIS1_EEPS3_+0x7e0>
    6ef4:	48 85 f6             	test   %rsi,%rsi
    6ef7:	74 18                	je     6f11 <_ZNK7MeshBVH20_split_centroids_sahERSt6vectorINS_8CentroidESaIS1_EEPS3_+0x751>
    6ef9:	f3 0f 6f 02          	movdqu (%rdx),%xmm0
    6efd:	0f 11 06             	movups %xmm0,(%rsi)
    6f00:	f3 0f 6f 42 10       	movdqu 0x10(%rdx),%xmm0
    6f05:	0f 11 46 10          	movups %xmm0,0x10(%rsi)
    6f09:	48 8b 42 20          	mov    0x20(%rdx),%rax
    6f0d:	48 89 46 20          	mov    %rax,0x20(%rsi)
    6f11:	48 83 c6 28          	add    $0x28,%rsi
    6f15:	48 89 73 20          	mov    %rsi,0x20(%rbx)
    6f19:	e9 75 ff ff ff       	jmpq   6e93 <_ZNK7MeshBVH20_split_centroids_sahERSt6vectorINS_8CentroidESaIS1_EEPS3_+0x6d3>
    6f1e:	66 90                	xchg   %ax,%ax
    6f20:	48 89 c1             	mov    %rax,%rcx
    6f23:	66 0f ef c0          	pxor   %xmm0,%xmm0
    6f27:	48 d1 e9             	shr    %rcx
    6f2a:	83 e0 01             	and    $0x1,%eax
    6f2d:	48 09 c1             	or     %rax,%rcx
    6f30:	f3 48 0f 2a c1       	cvtsi2ss %rcx,%xmm0
    6f35:	f3 0f 58 c0          	addss  %xmm0,%xmm0
    6f39:	eb 9e                	jmp    6ed9 <_ZNK7MeshBVH20_split_centroids_sahERSt6vectorINS_8CentroidESaIS1_EEPS3_+0x719>
    6f3b:	0f 1f 44 00 00       	nopl   0x0(%rax,%rax,1)
    6f40:	48 89 df             	mov    %rbx,%rdi
    6f43:	f3 0f 11 14 24       	movss  %xmm2,(%rsp)
    6f48:	e8 83 f6 ff ff       	callq  65d0 <_ZNSt6vectorIN7MeshBVH8CentroidESaIS1_EE17_M_realloc_insertIJRKS1_EEEvN9__gnu_cxx17__normal_iteratorIPS1_S3_EEDpOT_>
    6f4d:	f3 0f 10 14 24       	movss  (%rsp),%xmm2
    6f52:	e9 3c ff ff ff       	jmpq   6e93 <_ZNK7MeshBVH20_split_centroids_sahERSt6vectorINS_8CentroidESaIS1_EEPS3_+0x6d3>
    6f57:	66 0f 1f 84 00 00 00 	nopw   0x0(%rax,%rax,1)
    6f5e:	00 00 
    6f60:	48 8d 7b 18          	lea    0x18(%rbx),%rdi
    6f64:	f3 0f 11 04 24       	movss  %xmm0,(%rsp)
    6f69:	e8 62 f6 ff ff       	callq  65d0 <_ZNSt6vectorIN7MeshBVH8CentroidESaIS1_EE17_M_realloc_insertIJRKS1_EEEvN9__gnu_cxx17__normal_iteratorIPS1_S3_EEDpOT_>
    6f6e:	f3 0f 10 04 24       	movss  (%rsp),%xmm0
    6f73:	e9 23 fe ff ff       	jmpq   6d9b <_ZNK7MeshBVH20_split_centroids_sahERSt6vectorINS_8CentroidESaIS1_EEPS3_+0x5db>
    6f78:	0f 1f 84 00 00 00 00 	nopl   0x0(%rax,%rax,1)
    6f7f:	00 
    6f80:	48 89 df             	mov    %rbx,%rdi
    6f83:	f3 0f 11 04 24       	movss  %xmm0,(%rsp)
    6f88:	e8 43 f6 ff ff       	callq  65d0 <_ZNSt6vectorIN7MeshBVH8CentroidESaIS1_EE17_M_realloc_insertIJRKS1_EEEvN9__gnu_cxx17__normal_iteratorIPS1_S3_EEDpOT_>
    6f8d:	f3 0f 10 04 24       	movss  (%rsp),%xmm0
    6f92:	e9 04 fe ff ff       	jmpq   6d9b <_ZNK7MeshBVH20_split_centroids_sahERSt6vectorINS_8CentroidESaIS1_EEPS3_+0x5db>
    6f97:	66 0f 1f 84 00 00 00 	nopw   0x0(%rax,%rax,1)
    6f9e:	00 00 
    6fa0:	48 8d 7b 18          	lea    0x18(%rbx),%rdi
    6fa4:	f3 0f 11 14 24       	movss  %xmm2,(%rsp)
    6fa9:	e8 22 f6 ff ff       	callq  65d0 <_ZNSt6vectorIN7MeshBVH8CentroidESaIS1_EE17_M_realloc_insertIJRKS1_EEEvN9__gnu_cxx17__normal_iteratorIPS1_S3_EEDpOT_>
    6fae:	f3 0f 10 14 24       	movss  (%rsp),%xmm2
    6fb3:	e9 db fe ff ff       	jmpq   6e93 <_ZNK7MeshBVH20_split_centroids_sahERSt6vectorINS_8CentroidESaIS1_EEPS3_+0x6d3>
    6fb8:	0f 1f 84 00 00 00 00 	nopl   0x0(%rax,%rax,1)
    6fbf:	00 
    6fc0:	f3 44 0f 10 1d b7 30 	movss  0x30b7(%rip),%xmm11        # a080 <_ZTSNSt6thread11_State_implINS_8_InvokerISt5tupleIJPFv11StartupData7MeshBVHES3_S4_EEEEEE+0xa0>
    6fc7:	00 00 
    6fc9:	41 0f 28 c1          	movaps %xmm9,%xmm0
    6fcd:	f3 44 0f 11 5c 24 34 	movss  %xmm11,0x34(%rsp)
    6fd4:	f3 44 0f 11 5c 24 24 	movss  %xmm11,0x24(%rsp)
    6fdb:	f3 44 0f 11 5c 24 30 	movss  %xmm11,0x30(%rsp)
    6fe2:	f3 44 0f 11 4c 24 20 	movss  %xmm9,0x20(%rsp)
    6fe9:	f3 44 0f 11 4c 24 2c 	movss  %xmm9,0x2c(%rsp)
    6ff0:	f3 44 0f 11 4c 24 28 	movss  %xmm9,0x28(%rsp)
    6ff7:	e9 7c f9 ff ff       	jmpq   6978 <_ZNK7MeshBVH20_split_centroids_sahERSt6vectorINS_8CentroidESaIS1_EEPS3_+0x1b8>
    6ffc:	48 8d 0d fd 2e 00 00 	lea    0x2efd(%rip),%rcx        # 9f00 <_ZZNK7MeshBVH20_split_centroids_sahERSt6vectorINS_8CentroidESaIS1_EEPS3_E19__PRETTY_FUNCTION__>
    7003:	48 8d 35 9c 2e 00 00 	lea    0x2e9c(%rip),%rsi        # 9ea6 <_IO_stdin_used+0x86>
    700a:	48 8d 3d a8 2e 00 00 	lea    0x2ea8(%rip),%rdi        # 9eb9 <_IO_stdin_used+0x99>
    7011:	ba e8 00 00 00       	mov    $0xe8,%edx
    7016:	e8 95 ae ff ff       	callq  1eb0 <__assert_fail@plt>
    701b:	e8 60 af ff ff       	callq  1f80 <__stack_chk_fail@plt>

0000000000007020 <_ZNSt6vectorIN7MeshBVH4NodeESaIS1_EE17_M_realloc_insertIJS1_EEEvN9__gnu_cxx17__normal_iteratorIPS1_S3_EEDpOT_>:
    7020:	41 57                	push   %r15
    7022:	41 56                	push   %r14
    7024:	41 55                	push   %r13
    7026:	41 54                	push   %r12
    7028:	55                   	push   %rbp
    7029:	53                   	push   %rbx
    702a:	48 89 fd             	mov    %rdi,%rbp
    702d:	48 89 f3             	mov    %rsi,%rbx
    7030:	48 83 ec 18          	sub    $0x18,%rsp
    7034:	48 8b 75 08          	mov    0x8(%rbp),%rsi
    7038:	48 8b 3f             	mov    (%rdi),%rdi
    703b:	49 89 dd             	mov    %rbx,%r13
    703e:	48 89 f0             	mov    %rsi,%rax
    7041:	49 29 fd             	sub    %rdi,%r13
    7044:	48 29 f8             	sub    %rdi,%rax
    7047:	48 c1 f8 05          	sar    $0x5,%rax
    704b:	48 85 c0             	test   %rax,%rax
    704e:	0f 84 0c 01 00 00    	je     7160 <_ZNSt6vectorIN7MeshBVH4NodeESaIS1_EE17_M_realloc_insertIJS1_EEEvN9__gnu_cxx17__normal_iteratorIPS1_S3_EEDpOT_+0x140>
    7054:	48 8d 0c 00          	lea    (%rax,%rax,1),%rcx
    7058:	49 c7 c6 e0 ff ff ff 	mov    $0xffffffffffffffe0,%r14
    705f:	48 39 c8             	cmp    %rcx,%rax
    7062:	0f 86 10 01 00 00    	jbe    7178 <_ZNSt6vectorIN7MeshBVH4NodeESaIS1_EE17_M_realloc_insertIJS1_EEEvN9__gnu_cxx17__normal_iteratorIPS1_S3_EEDpOT_+0x158>
    7068:	4c 89 f7             	mov    %r14,%rdi
    706b:	48 89 54 24 08       	mov    %rdx,0x8(%rsp)
    7070:	e8 db ae ff ff       	callq  1f50 <_Znwm@plt>
    7075:	48 8b 7d 00          	mov    0x0(%rbp),%rdi
    7079:	48 8b 75 08          	mov    0x8(%rbp),%rsi
    707d:	4c 8d 78 20          	lea    0x20(%rax),%r15
    7081:	48 8b 54 24 08       	mov    0x8(%rsp),%rdx
    7086:	49 89 c4             	mov    %rax,%r12
    7089:	49 01 c6             	add    %rax,%r14
    708c:	4d 01 e5             	add    %r12,%r13
    708f:	74 13                	je     70a4 <_ZNSt6vectorIN7MeshBVH4NodeESaIS1_EE17_M_realloc_insertIJS1_EEEvN9__gnu_cxx17__normal_iteratorIPS1_S3_EEDpOT_+0x84>
    7091:	f3 0f 6f 02          	movdqu (%rdx),%xmm0
    7095:	41 0f 11 45 00       	movups %xmm0,0x0(%r13)
    709a:	f3 0f 6f 42 10       	movdqu 0x10(%rdx),%xmm0
    709f:	41 0f 11 45 10       	movups %xmm0,0x10(%r13)
    70a4:	48 39 fb             	cmp    %rdi,%rbx
    70a7:	74 44                	je     70ed <_ZNSt6vectorIN7MeshBVH4NodeESaIS1_EE17_M_realloc_insertIJS1_EEEvN9__gnu_cxx17__normal_iteratorIPS1_S3_EEDpOT_+0xcd>
    70a9:	4c 89 e1             	mov    %r12,%rcx
    70ac:	48 89 fa             	mov    %rdi,%rdx
    70af:	90                   	nop
    70b0:	48 85 c9             	test   %rcx,%rcx
    70b3:	0f 84 ef 00 00 00    	je     71a8 <_ZNSt6vectorIN7MeshBVH4NodeESaIS1_EE17_M_realloc_insertIJS1_EEEvN9__gnu_cxx17__normal_iteratorIPS1_S3_EEDpOT_+0x188>
    70b9:	f3 0f 6f 02          	movdqu (%rdx),%xmm0
    70bd:	48 83 c2 20          	add    $0x20,%rdx
    70c1:	48 83 c1 20          	add    $0x20,%rcx
    70c5:	0f 11 41 e0          	movups %xmm0,-0x20(%rcx)
    70c9:	f3 0f 6f 42 f0       	movdqu -0x10(%rdx),%xmm0
    70ce:	0f 11 41 f0          	movups %xmm0,-0x10(%rcx)
    70d2:	48 39 d3             	cmp    %rdx,%rbx
    70d5:	75 d9                	jne    70b0 <_ZNSt6vectorIN7MeshBVH4NodeESaIS1_EE17_M_realloc_insertIJS1_EEEvN9__gnu_cxx17__normal_iteratorIPS1_S3_EEDpOT_+0x90>
    70d7:	48 8d 47 20          	lea    0x20(%rdi),%rax
    70db:	48 89 d9             	mov    %rbx,%rcx
    70de:	48 29 c1             	sub    %rax,%rcx
    70e1:	48 89 c8             	mov    %rcx,%rax
    70e4:	48 83 e0 e0          	and    $0xffffffffffffffe0,%rax
    70e8:	4d 8d 7c 04 40       	lea    0x40(%r12,%rax,1),%r15
    70ed:	48 39 f3             	cmp    %rsi,%rbx
    70f0:	74 45                	je     7137 <_ZNSt6vectorIN7MeshBVH4NodeESaIS1_EE17_M_realloc_insertIJS1_EEEvN9__gnu_cxx17__normal_iteratorIPS1_S3_EEDpOT_+0x117>
    70f2:	48 89 da             	mov    %rbx,%rdx
    70f5:	4c 89 f9             	mov    %r15,%rcx
    70f8:	0f 1f 84 00 00 00 00 	nopl   0x0(%rax,%rax,1)
    70ff:	00 
    7100:	48 85 c9             	test   %rcx,%rcx
    7103:	0f 84 b6 00 00 00    	je     71bf <_ZNSt6vectorIN7MeshBVH4NodeESaIS1_EE17_M_realloc_insertIJS1_EEEvN9__gnu_cxx17__normal_iteratorIPS1_S3_EEDpOT_+0x19f>
    7109:	f3 0f 6f 02          	movdqu (%rdx),%xmm0
    710d:	48 83 c2 20          	add    $0x20,%rdx
    7111:	48 83 c1 20          	add    $0x20,%rcx
    7115:	0f 11 41 e0          	movups %xmm0,-0x20(%rcx)
    7119:	f3 0f 6f 42 f0       	movdqu -0x10(%rdx),%xmm0
    711e:	0f 11 41 f0          	movups %xmm0,-0x10(%rcx)
    7122:	48 39 f2             	cmp    %rsi,%rdx
    7125:	75 d9                	jne    7100 <_ZNSt6vectorIN7MeshBVH4NodeESaIS1_EE17_M_realloc_insertIJS1_EEEvN9__gnu_cxx17__normal_iteratorIPS1_S3_EEDpOT_+0xe0>
    7127:	48 83 c3 20          	add    $0x20,%rbx
    712b:	48 29 de             	sub    %rbx,%rsi
    712e:	48 83 e6 e0          	and    $0xffffffffffffffe0,%rsi
    7132:	4d 8d 7c 37 20       	lea    0x20(%r15,%rsi,1),%r15
    7137:	48 85 ff             	test   %rdi,%rdi
    713a:	74 05                	je     7141 <_ZNSt6vectorIN7MeshBVH4NodeESaIS1_EE17_M_realloc_insertIJS1_EEEvN9__gnu_cxx17__normal_iteratorIPS1_S3_EEDpOT_+0x121>
    713c:	e8 cf ad ff ff       	callq  1f10 <_ZdlPv@plt>
    7141:	4c 89 65 00          	mov    %r12,0x0(%rbp)
    7145:	4c 89 7d 08          	mov    %r15,0x8(%rbp)
    7149:	4c 89 75 10          	mov    %r14,0x10(%rbp)
    714d:	48 83 c4 18          	add    $0x18,%rsp
    7151:	5b                   	pop    %rbx
    7152:	5d                   	pop    %rbp
    7153:	41 5c                	pop    %r12
    7155:	41 5d                	pop    %r13
    7157:	41 5e                	pop    %r14
    7159:	41 5f                	pop    %r15
    715b:	c3                   	retq   
    715c:	0f 1f 40 00          	nopl   0x0(%rax)
    7160:	b9 01 00 00 00       	mov    $0x1,%ecx
    7165:	48 c1 e1 05          	shl    $0x5,%rcx
    7169:	49 89 ce             	mov    %rcx,%r14
    716c:	e9 f7 fe ff ff       	jmpq   7068 <_ZNSt6vectorIN7MeshBVH4NodeESaIS1_EE17_M_realloc_insertIJS1_EEEvN9__gnu_cxx17__normal_iteratorIPS1_S3_EEDpOT_+0x48>
    7171:	0f 1f 80 00 00 00 00 	nopl   0x0(%rax)
    7178:	48 b8 ff ff ff ff ff 	movabs $0x7ffffffffffffff,%rax
    717f:	ff ff 07 
    7182:	48 39 c1             	cmp    %rax,%rcx
    7185:	0f 87 dd fe ff ff    	ja     7068 <_ZNSt6vectorIN7MeshBVH4NodeESaIS1_EE17_M_realloc_insertIJS1_EEEvN9__gnu_cxx17__normal_iteratorIPS1_S3_EEDpOT_+0x48>
    718b:	48 85 c9             	test   %rcx,%rcx
    718e:	75 d5                	jne    7165 <_ZNSt6vectorIN7MeshBVH4NodeESaIS1_EE17_M_realloc_insertIJS1_EEEvN9__gnu_cxx17__normal_iteratorIPS1_S3_EEDpOT_+0x145>
    7190:	41 bf 20 00 00 00    	mov    $0x20,%r15d
    7196:	45 31 f6             	xor    %r14d,%r14d
    7199:	45 31 e4             	xor    %r12d,%r12d
    719c:	e9 eb fe ff ff       	jmpq   708c <_ZNSt6vectorIN7MeshBVH4NodeESaIS1_EE17_M_realloc_insertIJS1_EEEvN9__gnu_cxx17__normal_iteratorIPS1_S3_EEDpOT_+0x6c>
    71a1:	0f 1f 80 00 00 00 00 	nopl   0x0(%rax)
    71a8:	48 83 c2 20          	add    $0x20,%rdx
    71ac:	48 39 d3             	cmp    %rdx,%rbx
    71af:	0f 84 22 ff ff ff    	je     70d7 <_ZNSt6vectorIN7MeshBVH4NodeESaIS1_EE17_M_realloc_insertIJS1_EEEvN9__gnu_cxx17__normal_iteratorIPS1_S3_EEDpOT_+0xb7>
    71b5:	b9 20 00 00 00       	mov    $0x20,%ecx
    71ba:	e9 fa fe ff ff       	jmpq   70b9 <_ZNSt6vectorIN7MeshBVH4NodeESaIS1_EE17_M_realloc_insertIJS1_EEEvN9__gnu_cxx17__normal_iteratorIPS1_S3_EEDpOT_+0x99>
    71bf:	48 83 c2 20          	add    $0x20,%rdx
    71c3:	48 39 f2             	cmp    %rsi,%rdx
    71c6:	0f 84 5b ff ff ff    	je     7127 <_ZNSt6vectorIN7MeshBVH4NodeESaIS1_EE17_M_realloc_insertIJS1_EEEvN9__gnu_cxx17__normal_iteratorIPS1_S3_EEDpOT_+0x107>
    71cc:	b9 20 00 00 00       	mov    $0x20,%ecx
    71d1:	e9 33 ff ff ff       	jmpq   7109 <_ZNSt6vectorIN7MeshBVH4NodeESaIS1_EE17_M_realloc_insertIJS1_EEEvN9__gnu_cxx17__normal_iteratorIPS1_S3_EEDpOT_+0xe9>
    71d6:	66 2e 0f 1f 84 00 00 	nopw   %cs:0x0(%rax,%rax,1)
    71dd:	00 00 00 

00000000000071e0 <_ZNSt6vectorIN7MeshBVH8TriangleESaIS1_EE17_M_realloc_insertIJS1_EEEvN9__gnu_cxx17__normal_iteratorIPS1_S3_EEDpOT_>:
    71e0:	41 57                	push   %r15
    71e2:	41 56                	push   %r14
    71e4:	49 89 d7             	mov    %rdx,%r15
    71e7:	41 55                	push   %r13
    71e9:	41 54                	push   %r12
    71eb:	48 ba ab aa aa aa aa 	movabs $0xaaaaaaaaaaaaaaab,%rdx
    71f2:	aa aa aa 
    71f5:	55                   	push   %rbp
    71f6:	53                   	push   %rbx
    71f7:	48 89 fd             	mov    %rdi,%rbp
    71fa:	48 89 f3             	mov    %rsi,%rbx
    71fd:	49 89 f6             	mov    %rsi,%r14
    7200:	48 83 ec 08          	sub    $0x8,%rsp
    7204:	48 8b 45 08          	mov    0x8(%rbp),%rax
    7208:	48 8b 3f             	mov    (%rdi),%rdi
    720b:	48 89 c1             	mov    %rax,%rcx
    720e:	48 29 fb             	sub    %rdi,%rbx
    7211:	48 29 f9             	sub    %rdi,%rcx
    7214:	48 c1 f9 03          	sar    $0x3,%rcx
    7218:	48 0f af ca          	imul   %rdx,%rcx
    721c:	48 85 c9             	test   %rcx,%rcx
    721f:	0f 84 0b 01 00 00    	je     7330 <_ZNSt6vectorIN7MeshBVH8TriangleESaIS1_EE17_M_realloc_insertIJS1_EEEvN9__gnu_cxx17__normal_iteratorIPS1_S3_EEDpOT_+0x150>
    7225:	48 8d 14 09          	lea    (%rcx,%rcx,1),%rdx
    7229:	49 c7 c5 f0 ff ff ff 	mov    $0xfffffffffffffff0,%r13
    7230:	48 39 d1             	cmp    %rdx,%rcx
    7233:	0f 86 0f 01 00 00    	jbe    7348 <_ZNSt6vectorIN7MeshBVH8TriangleESaIS1_EE17_M_realloc_insertIJS1_EEEvN9__gnu_cxx17__normal_iteratorIPS1_S3_EEDpOT_+0x168>
    7239:	4c 89 ef             	mov    %r13,%rdi
    723c:	e8 0f ad ff ff       	callq  1f50 <_Znwm@plt>
    7241:	48 8b 7d 00          	mov    0x0(%rbp),%rdi
    7245:	49 89 c4             	mov    %rax,%r12
    7248:	48 8b 45 08          	mov    0x8(%rbp),%rax
    724c:	49 8d 4c 24 18       	lea    0x18(%r12),%rcx
    7251:	4d 01 e5             	add    %r12,%r13
    7254:	4c 01 e3             	add    %r12,%rbx
    7257:	74 10                	je     7269 <_ZNSt6vectorIN7MeshBVH8TriangleESaIS1_EE17_M_realloc_insertIJS1_EEEvN9__gnu_cxx17__normal_iteratorIPS1_S3_EEDpOT_+0x89>
    7259:	f3 41 0f 6f 07       	movdqu (%r15),%xmm0
    725e:	49 8b 57 10          	mov    0x10(%r15),%rdx
    7262:	0f 11 03             	movups %xmm0,(%rbx)
    7265:	48 89 53 10          	mov    %rdx,0x10(%rbx)
    7269:	49 39 fe             	cmp    %rdi,%r14
    726c:	74 4d                	je     72bb <_ZNSt6vectorIN7MeshBVH8TriangleESaIS1_EE17_M_realloc_insertIJS1_EEEvN9__gnu_cxx17__normal_iteratorIPS1_S3_EEDpOT_+0xdb>
    726e:	48 8d 57 18          	lea    0x18(%rdi),%rdx
    7272:	4c 89 f3             	mov    %r14,%rbx
    7275:	49 89 f8             	mov    %rdi,%r8
    7278:	48 29 d3             	sub    %rdx,%rbx
    727b:	48 89 da             	mov    %rbx,%rdx
    727e:	48 c1 ea 03          	shr    $0x3,%rdx
    7282:	49 8d 4c d4 18       	lea    0x18(%r12,%rdx,8),%rcx
    7287:	4c 89 e2             	mov    %r12,%rdx
    728a:	66 0f 1f 44 00 00    	nopw   0x0(%rax,%rax,1)
    7290:	48 85 d2             	test   %rdx,%rdx
    7293:	0f 84 dc 00 00 00    	je     7375 <_ZNSt6vectorIN7MeshBVH8TriangleESaIS1_EE17_M_realloc_insertIJS1_EEEvN9__gnu_cxx17__normal_iteratorIPS1_S3_EEDpOT_+0x195>
    7299:	f3 41 0f 6f 00       	movdqu (%r8),%xmm0
    729e:	48 83 c2 18          	add    $0x18,%rdx
    72a2:	49 83 c0 18          	add    $0x18,%r8
    72a6:	0f 11 42 e8          	movups %xmm0,-0x18(%rdx)
    72aa:	4d 8b 48 f8          	mov    -0x8(%r8),%r9
    72ae:	4c 89 4a f8          	mov    %r9,-0x8(%rdx)
    72b2:	48 39 d1             	cmp    %rdx,%rcx
    72b5:	75 d9                	jne    7290 <_ZNSt6vectorIN7MeshBVH8TriangleESaIS1_EE17_M_realloc_insertIJS1_EEEvN9__gnu_cxx17__normal_iteratorIPS1_S3_EEDpOT_+0xb0>
    72b7:	48 83 c1 18          	add    $0x18,%rcx
    72bb:	49 39 c6             	cmp    %rax,%r14
    72be:	0f 84 ac 00 00 00    	je     7370 <_ZNSt6vectorIN7MeshBVH8TriangleESaIS1_EE17_M_realloc_insertIJS1_EEEvN9__gnu_cxx17__normal_iteratorIPS1_S3_EEDpOT_+0x190>
    72c4:	49 8d 56 18          	lea    0x18(%r14),%rdx
    72c8:	4c 89 f6             	mov    %r14,%rsi
    72cb:	48 29 d0             	sub    %rdx,%rax
    72ce:	48 89 c2             	mov    %rax,%rdx
    72d1:	48 c1 ea 03          	shr    $0x3,%rdx
    72d5:	48 8d 5c d1 18       	lea    0x18(%rcx,%rdx,8),%rbx
    72da:	66 0f 1f 44 00 00    	nopw   0x0(%rax,%rax,1)
    72e0:	48 85 c9             	test   %rcx,%rcx
    72e3:	0f 84 a4 00 00 00    	je     738d <_ZNSt6vectorIN7MeshBVH8TriangleESaIS1_EE17_M_realloc_insertIJS1_EEEvN9__gnu_cxx17__normal_iteratorIPS1_S3_EEDpOT_+0x1ad>
    72e9:	48 8b 56 10          	mov    0x10(%rsi),%rdx
    72ed:	48 83 c1 18          	add    $0x18,%rcx
    72f1:	48 83 c6 18          	add    $0x18,%rsi
    72f5:	f3 0f 6f 46 e8       	movdqu -0x18(%rsi),%xmm0
    72fa:	48 89 51 f8          	mov    %rdx,-0x8(%rcx)
    72fe:	0f 11 41 e8          	movups %xmm0,-0x18(%rcx)
    7302:	48 39 d9             	cmp    %rbx,%rcx
    7305:	75 d9                	jne    72e0 <_ZNSt6vectorIN7MeshBVH8TriangleESaIS1_EE17_M_realloc_insertIJS1_EEEvN9__gnu_cxx17__normal_iteratorIPS1_S3_EEDpOT_+0x100>
    7307:	48 85 ff             	test   %rdi,%rdi
    730a:	74 05                	je     7311 <_ZNSt6vectorIN7MeshBVH8TriangleESaIS1_EE17_M_realloc_insertIJS1_EEEvN9__gnu_cxx17__normal_iteratorIPS1_S3_EEDpOT_+0x131>
    730c:	e8 ff ab ff ff       	callq  1f10 <_ZdlPv@plt>
    7311:	4c 89 65 00          	mov    %r12,0x0(%rbp)
    7315:	48 89 5d 08          	mov    %rbx,0x8(%rbp)
    7319:	4c 89 6d 10          	mov    %r13,0x10(%rbp)
    731d:	48 83 c4 08          	add    $0x8,%rsp
    7321:	5b                   	pop    %rbx
    7322:	5d                   	pop    %rbp
    7323:	41 5c                	pop    %r12
    7325:	41 5d                	pop    %r13
    7327:	41 5e                	pop    %r14
    7329:	41 5f                	pop    %r15
    732b:	c3                   	retq   
    732c:	0f 1f 40 00          	nopl   0x0(%rax)
    7330:	ba 01 00 00 00       	mov    $0x1,%edx
    7335:	4c 8d 2c 52          	lea    (%rdx,%rdx,2),%r13
    7339:	49 c1 e5 03          	shl    $0x3,%r13
    733d:	e9 f7 fe ff ff       	jmpq   7239 <_ZNSt6vectorIN7MeshBVH8TriangleESaIS1_EE17_M_realloc_insertIJS1_EEEvN9__gnu_cxx17__normal_iteratorIPS1_S3_EEDpOT_+0x59>
    7342:	66 0f 1f 44 00 00    	nopw   0x0(%rax,%rax,1)
    7348:	48 b9 aa aa aa aa aa 	movabs $0xaaaaaaaaaaaaaaa,%rcx
    734f:	aa aa 0a 
    7352:	48 39 ca             	cmp    %rcx,%rdx
    7355:	0f 87 de fe ff ff    	ja     7239 <_ZNSt6vectorIN7MeshBVH8TriangleESaIS1_EE17_M_realloc_insertIJS1_EEEvN9__gnu_cxx17__normal_iteratorIPS1_S3_EEDpOT_+0x59>
    735b:	48 85 d2             	test   %rdx,%rdx
    735e:	75 d5                	jne    7335 <_ZNSt6vectorIN7MeshBVH8TriangleESaIS1_EE17_M_realloc_insertIJS1_EEEvN9__gnu_cxx17__normal_iteratorIPS1_S3_EEDpOT_+0x155>
    7360:	b9 18 00 00 00       	mov    $0x18,%ecx
    7365:	45 31 ed             	xor    %r13d,%r13d
    7368:	45 31 e4             	xor    %r12d,%r12d
    736b:	e9 e4 fe ff ff       	jmpq   7254 <_ZNSt6vectorIN7MeshBVH8TriangleESaIS1_EE17_M_realloc_insertIJS1_EEEvN9__gnu_cxx17__normal_iteratorIPS1_S3_EEDpOT_+0x74>
    7370:	48 89 cb             	mov    %rcx,%rbx
    7373:	eb 92                	jmp    7307 <_ZNSt6vectorIN7MeshBVH8TriangleESaIS1_EE17_M_realloc_insertIJS1_EEEvN9__gnu_cxx17__normal_iteratorIPS1_S3_EEDpOT_+0x127>
    7375:	49 83 c0 18          	add    $0x18,%r8
    7379:	48 83 f9 18          	cmp    $0x18,%rcx
    737d:	0f 84 34 ff ff ff    	je     72b7 <_ZNSt6vectorIN7MeshBVH8TriangleESaIS1_EE17_M_realloc_insertIJS1_EEEvN9__gnu_cxx17__normal_iteratorIPS1_S3_EEDpOT_+0xd7>
    7383:	ba 18 00 00 00       	mov    $0x18,%edx
    7388:	e9 0c ff ff ff       	jmpq   7299 <_ZNSt6vectorIN7MeshBVH8TriangleESaIS1_EE17_M_realloc_insertIJS1_EEEvN9__gnu_cxx17__normal_iteratorIPS1_S3_EEDpOT_+0xb9>
    738d:	48 83 c6 18          	add    $0x18,%rsi
    7391:	48 83 fb 18          	cmp    $0x18,%rbx
    7395:	0f 84 6c ff ff ff    	je     7307 <_ZNSt6vectorIN7MeshBVH8TriangleESaIS1_EE17_M_realloc_insertIJS1_EEEvN9__gnu_cxx17__normal_iteratorIPS1_S3_EEDpOT_+0x127>
    739b:	b9 18 00 00 00       	mov    $0x18,%ecx
    73a0:	e9 44 ff ff ff       	jmpq   72e9 <_ZNSt6vectorIN7MeshBVH8TriangleESaIS1_EE17_M_realloc_insertIJS1_EEEvN9__gnu_cxx17__normal_iteratorIPS1_S3_EEDpOT_+0x109>
    73a5:	66 2e 0f 1f 84 00 00 	nopw   %cs:0x0(%rax,%rax,1)
    73ac:	00 00 00 
    73af:	90                   	nop

00000000000073b0 <_ZN7MeshBVH6_buildEjRSt6vectorINS_8CentroidESaIS1_EEj>:
    73b0:	41 57                	push   %r15
    73b2:	41 56                	push   %r14
    73b4:	41 55                	push   %r13
    73b6:	41 54                	push   %r12
    73b8:	41 89 f5             	mov    %esi,%r13d
    73bb:	55                   	push   %rbp
    73bc:	53                   	push   %rbx
    73bd:	48 89 fb             	mov    %rdi,%rbx
    73c0:	49 c1 e5 05          	shl    $0x5,%r13
    73c4:	49 89 d4             	mov    %rdx,%r12
    73c7:	48 81 ec c8 00 00 00 	sub    $0xc8,%rsp
    73ce:	4c 8b 02             	mov    (%rdx),%r8
    73d1:	48 8b 7a 08          	mov    0x8(%rdx),%rdi
    73d5:	64 48 8b 04 25 28 00 	mov    %fs:0x28,%rax
    73dc:	00 00 
    73de:	48 89 84 24 b8 00 00 	mov    %rax,0xb8(%rsp)
    73e5:	00 
    73e6:	31 c0                	xor    %eax,%eax
    73e8:	48 b8 cd cc cc cc cc 	movabs $0xcccccccccccccccd,%rax
    73ef:	cc cc cc 
    73f2:	4c 29 c7             	sub    %r8,%rdi
    73f5:	48 c1 ff 03          	sar    $0x3,%rdi
    73f9:	48 0f af f8          	imul   %rax,%rdi
    73fd:	48 8b 43 08          	mov    0x8(%rbx),%rax
    7401:	4c 01 e8             	add    %r13,%rax
    7404:	48 85 ff             	test   %rdi,%rdi
    7407:	0f 84 af 00 00 00    	je     74bc <_ZN7MeshBVH6_buildEjRSt6vectorINS_8CentroidESaIS1_EEj+0x10c>
    740d:	41 89 cf             	mov    %ecx,%r15d
    7410:	f3 0f 10 60 0c       	movss  0xc(%rax),%xmm4
    7415:	f3 0f 10 58 10       	movss  0x10(%rax),%xmm3
    741a:	31 c9                	xor    %ecx,%ecx
    741c:	f3 0f 10 70 14       	movss  0x14(%rax),%xmm6
    7421:	31 d2                	xor    %edx,%edx
    7423:	f3 0f 10 10          	movss  (%rax),%xmm2
    7427:	f3 0f 10 48 04       	movss  0x4(%rax),%xmm1
    742c:	f3 0f 10 40 08       	movss  0x8(%rax),%xmm0
    7431:	0f 1f 80 00 00 00 00 	nopl   0x0(%rax)
    7438:	48 8d 14 92          	lea    (%rdx,%rdx,4),%rdx
    743c:	49 8d 14 d0          	lea    (%r8,%rdx,8),%rdx
    7440:	f3 0f 10 6a 10       	movss  0x10(%rdx),%xmm5
    7445:	f3 0f 5d ea          	minss  %xmm2,%xmm5
    7449:	0f 28 d5             	movaps %xmm5,%xmm2
    744c:	f3 0f 10 6a 14       	movss  0x14(%rdx),%xmm5
    7451:	f3 0f 5d e9          	minss  %xmm1,%xmm5
    7455:	0f 28 cd             	movaps %xmm5,%xmm1
    7458:	f3 0f 10 6a 18       	movss  0x18(%rdx),%xmm5
    745d:	f3 0f 5d e8          	minss  %xmm0,%xmm5
    7461:	f3 0f 11 10          	movss  %xmm2,(%rax)
    7465:	f3 0f 11 48 04       	movss  %xmm1,0x4(%rax)
    746a:	f3 0f 11 68 08       	movss  %xmm5,0x8(%rax)
    746f:	0f 28 c5             	movaps %xmm5,%xmm0
    7472:	f3 0f 10 6a 1c       	movss  0x1c(%rdx),%xmm5
    7477:	f3 0f 5f ec          	maxss  %xmm4,%xmm5
    747b:	0f 28 e5             	movaps %xmm5,%xmm4
    747e:	f3 0f 10 6a 20       	movss  0x20(%rdx),%xmm5
    7483:	f3 0f 5f eb          	maxss  %xmm3,%xmm5
    7487:	0f 28 dd             	movaps %xmm5,%xmm3
    748a:	f3 0f 10 6a 24       	movss  0x24(%rdx),%xmm5
    748f:	0f 2e ee             	ucomiss %xmm6,%xmm5
    7492:	f3 0f 11 60 0c       	movss  %xmm4,0xc(%rax)
    7497:	f3 0f 11 58 10       	movss  %xmm3,0x10(%rax)
    749c:	0f 87 46 01 00 00    	ja     75e8 <_ZN7MeshBVH6_buildEjRSt6vectorINS_8CentroidESaIS1_EEj+0x238>
    74a2:	8d 51 01             	lea    0x1(%rcx),%edx
    74a5:	f3 0f 11 70 14       	movss  %xmm6,0x14(%rax)
    74aa:	48 39 fa             	cmp    %rdi,%rdx
    74ad:	48 89 d1             	mov    %rdx,%rcx
    74b0:	72 86                	jb     7438 <_ZN7MeshBVH6_buildEjRSt6vectorINS_8CentroidESaIS1_EEj+0x88>
    74b2:	48 83 ff 08          	cmp    $0x8,%rdi
    74b6:	0f 87 a4 01 00 00    	ja     7660 <_ZN7MeshBVH6_buildEjRSt6vectorINS_8CentroidESaIS1_EEj+0x2b0>
    74bc:	c6 40 1c 01          	movb   $0x1,0x1c(%rax)
    74c0:	48 8b 43 28          	mov    0x28(%rbx),%rax
    74c4:	48 b9 ab aa aa aa aa 	movabs $0xaaaaaaaaaaaaaaab,%rcx
    74cb:	aa aa aa 
    74ce:	48 2b 43 20          	sub    0x20(%rbx),%rax
    74d2:	48 8b 53 08          	mov    0x8(%rbx),%rdx
    74d6:	48 c1 f8 03          	sar    $0x3,%rax
    74da:	48 0f af c1          	imul   %rcx,%rax
    74de:	48 b9 cd cc cc cc cc 	movabs $0xcccccccccccccccd,%rcx
    74e5:	cc cc cc 
    74e8:	42 89 44 2a 18       	mov    %eax,0x18(%rdx,%r13,1)
    74ed:	49 8b 44 24 08       	mov    0x8(%r12),%rax
    74f2:	49 2b 04 24          	sub    (%r12),%rax
    74f6:	48 8b 53 08          	mov    0x8(%rbx),%rdx
    74fa:	48 c1 f8 03          	sar    $0x3,%rax
    74fe:	48 0f af c1          	imul   %rcx,%rax
    7502:	83 e8 01             	sub    $0x1,%eax
    7505:	42 88 44 2a 1d       	mov    %al,0x1d(%rdx,%r13,1)
    750a:	4d 8b 04 24          	mov    (%r12),%r8
    750e:	4d 3b 44 24 08       	cmp    0x8(%r12),%r8
    7513:	0f 84 17 01 00 00    	je     7630 <_ZN7MeshBVH6_buildEjRSt6vectorINS_8CentroidESaIS1_EEj+0x280>
    7519:	48 8b 73 28          	mov    0x28(%rbx),%rsi
    751d:	4c 8d 6b 20          	lea    0x20(%rbx),%r13
    7521:	45 31 f6             	xor    %r14d,%r14d
    7524:	45 31 ff             	xor    %r15d,%r15d
    7527:	48 8d ac 24 80 00 00 	lea    0x80(%rsp),%rbp
    752e:	00 
    752f:	e9 83 00 00 00       	jmpq   75b7 <_ZN7MeshBVH6_buildEjRSt6vectorINS_8CentroidESaIS1_EEj+0x207>
    7534:	0f 1f 40 00          	nopl   0x0(%rax)
    7538:	48 85 f6             	test   %rsi,%rsi
    753b:	74 18                	je     7555 <_ZN7MeshBVH6_buildEjRSt6vectorINS_8CentroidESaIS1_EEj+0x1a5>
    753d:	66 0f 6f 84 24 80 00 	movdqa 0x80(%rsp),%xmm0
    7544:	00 00 
    7546:	0f 11 06             	movups %xmm0,(%rsi)
    7549:	48 8b 84 24 90 00 00 	mov    0x90(%rsp),%rax
    7550:	00 
    7551:	48 89 46 10          	mov    %rax,0x10(%rsi)
    7555:	48 83 c6 18          	add    $0x18,%rsi
    7559:	48 89 73 28          	mov    %rsi,0x28(%rbx)
    755d:	4b 8d 04 b6          	lea    (%r14,%r14,4),%rax
    7561:	48 8b 3b             	mov    (%rbx),%rdi
    7564:	45 8d 77 01          	lea    0x1(%r15),%r14d
    7568:	41 8b 04 c0          	mov    (%r8,%rax,8),%eax
    756c:	4d 89 f7             	mov    %r14,%r15
    756f:	4c 8b 0f             	mov    (%rdi),%r9
    7572:	48 8b 7f 18          	mov    0x18(%rdi),%rdi
    7576:	48 8d 04 40          	lea    (%rax,%rax,2),%rax
    757a:	4d 8b 14 81          	mov    (%r9,%rax,4),%r10
    757e:	48 8d 14 85 00 00 00 	lea    0x0(,%rax,4),%rdx
    7585:	00 
    7586:	4c 89 56 e8          	mov    %r10,-0x18(%rsi)
    758a:	45 8b 4c 11 08       	mov    0x8(%r9,%rdx,1),%r9d
    758f:	44 89 4e f0          	mov    %r9d,-0x10(%rsi)
    7593:	48 8b 04 87          	mov    (%rdi,%rax,4),%rax
    7597:	48 89 46 f4          	mov    %rax,-0xc(%rsi)
    759b:	8b 44 17 08          	mov    0x8(%rdi,%rdx,1),%eax
    759f:	89 46 fc             	mov    %eax,-0x4(%rsi)
    75a2:	49 8b 44 24 08       	mov    0x8(%r12),%rax
    75a7:	4c 29 c0             	sub    %r8,%rax
    75aa:	48 c1 f8 03          	sar    $0x3,%rax
    75ae:	48 0f af c1          	imul   %rcx,%rax
    75b2:	49 39 c6             	cmp    %rax,%r14
    75b5:	73 79                	jae    7630 <_ZN7MeshBVH6_buildEjRSt6vectorINS_8CentroidESaIS1_EEj+0x280>
    75b7:	48 3b 73 30          	cmp    0x30(%rbx),%rsi
    75bb:	0f 85 77 ff ff ff    	jne    7538 <_ZN7MeshBVH6_buildEjRSt6vectorINS_8CentroidESaIS1_EEj+0x188>
    75c1:	48 89 ea             	mov    %rbp,%rdx
    75c4:	4c 89 ef             	mov    %r13,%rdi
    75c7:	48 89 4c 24 08       	mov    %rcx,0x8(%rsp)
    75cc:	e8 0f fc ff ff       	callq  71e0 <_ZNSt6vectorIN7MeshBVH8TriangleESaIS1_EE17_M_realloc_insertIJS1_EEEvN9__gnu_cxx17__normal_iteratorIPS1_S3_EEDpOT_>
    75d1:	48 8b 73 28          	mov    0x28(%rbx),%rsi
    75d5:	4d 8b 04 24          	mov    (%r12),%r8
    75d9:	48 8b 4c 24 08       	mov    0x8(%rsp),%rcx
    75de:	e9 7a ff ff ff       	jmpq   755d <_ZN7MeshBVH6_buildEjRSt6vectorINS_8CentroidESaIS1_EEj+0x1ad>
    75e3:	0f 1f 44 00 00       	nopl   0x0(%rax,%rax,1)
    75e8:	8d 51 01             	lea    0x1(%rcx),%edx
    75eb:	f3 0f 11 68 14       	movss  %xmm5,0x14(%rax)
    75f0:	48 39 fa             	cmp    %rdi,%rdx
    75f3:	48 89 d1             	mov    %rdx,%rcx
    75f6:	0f 83 b6 fe ff ff    	jae    74b2 <_ZN7MeshBVH6_buildEjRSt6vectorINS_8CentroidESaIS1_EEj+0x102>
    75fc:	0f 28 f5             	movaps %xmm5,%xmm6
    75ff:	e9 34 fe ff ff       	jmpq   7438 <_ZN7MeshBVH6_buildEjRSt6vectorINS_8CentroidESaIS1_EEj+0x88>
    7604:	0f 1f 40 00          	nopl   0x0(%rax)
    7608:	48 8b 7c 24 68       	mov    0x68(%rsp),%rdi
    760d:	48 85 ff             	test   %rdi,%rdi
    7610:	74 05                	je     7617 <_ZN7MeshBVH6_buildEjRSt6vectorINS_8CentroidESaIS1_EEj+0x267>
    7612:	e8 f9 a8 ff ff       	callq  1f10 <_ZdlPv@plt>
    7617:	48 8b 7c 24 50       	mov    0x50(%rsp),%rdi
    761c:	48 85 ff             	test   %rdi,%rdi
    761f:	74 0f                	je     7630 <_ZN7MeshBVH6_buildEjRSt6vectorINS_8CentroidESaIS1_EEj+0x280>
    7621:	e8 ea a8 ff ff       	callq  1f10 <_ZdlPv@plt>
    7626:	66 2e 0f 1f 84 00 00 	nopw   %cs:0x0(%rax,%rax,1)
    762d:	00 00 00 
    7630:	48 8b 84 24 b8 00 00 	mov    0xb8(%rsp),%rax
    7637:	00 
    7638:	64 48 33 04 25 28 00 	xor    %fs:0x28,%rax
    763f:	00 00 
    7641:	0f 85 2e 06 00 00    	jne    7c75 <_ZN7MeshBVH6_buildEjRSt6vectorINS_8CentroidESaIS1_EEj+0x8c5>
    7647:	48 81 c4 c8 00 00 00 	add    $0xc8,%rsp
    764e:	5b                   	pop    %rbx
    764f:	5d                   	pop    %rbp
    7650:	41 5c                	pop    %r12
    7652:	41 5d                	pop    %r13
    7654:	41 5e                	pop    %r14
    7656:	41 5f                	pop    %r15
    7658:	c3                   	retq   
    7659:	0f 1f 80 00 00 00 00 	nopl   0x0(%rax)
    7660:	48 8d 6c 24 50       	lea    0x50(%rsp),%rbp
    7665:	4c 89 e6             	mov    %r12,%rsi
    7668:	48 89 df             	mov    %rbx,%rdi
    766b:	48 c7 44 24 50 00 00 	movq   $0x0,0x50(%rsp)
    7672:	00 00 
    7674:	48 c7 44 24 58 00 00 	movq   $0x0,0x58(%rsp)
    767b:	00 00 
    767d:	48 89 ea             	mov    %rbp,%rdx
    7680:	48 c7 44 24 60 00 00 	movq   $0x0,0x60(%rsp)
    7687:	00 00 
    7689:	48 c7 44 24 68 00 00 	movq   $0x0,0x68(%rsp)
    7690:	00 00 
    7692:	48 c7 44 24 70 00 00 	movq   $0x0,0x70(%rsp)
    7699:	00 00 
    769b:	48 c7 44 24 78 00 00 	movq   $0x0,0x78(%rsp)
    76a2:	00 00 
    76a4:	e8 17 f1 ff ff       	callq  67c0 <_ZNK7MeshBVH20_split_centroids_sahERSt6vectorINS_8CentroidESaIS1_EEPS3_>
    76a9:	49 8b 04 24          	mov    (%r12),%rax
    76ad:	48 8b 53 08          	mov    0x8(%rbx),%rdx
    76b1:	49 89 44 24 08       	mov    %rax,0x8(%r12)
    76b6:	48 8b 43 10          	mov    0x10(%rbx),%rax
    76ba:	48 29 d0             	sub    %rdx,%rax
    76bd:	48 c1 f8 05          	sar    $0x5,%rax
    76c1:	41 89 c4             	mov    %eax,%r12d
    76c4:	42 89 44 2a 18       	mov    %eax,0x18(%rdx,%r13,1)
    76c9:	48 8b 44 24 50       	mov    0x50(%rsp),%rax
    76ce:	48 39 44 24 58       	cmp    %rax,0x58(%rsp)
    76d3:	0f 84 ee 05 00 00    	je     7cc7 <_ZN7MeshBVH6_buildEjRSt6vectorINS_8CentroidESaIS1_EEj+0x917>
    76d9:	48 8d 43 08          	lea    0x8(%rbx),%rax
    76dd:	48 8b 73 10          	mov    0x10(%rbx),%rsi
    76e1:	48 3b 73 18          	cmp    0x18(%rbx),%rsi
    76e5:	48 c7 84 24 98 00 00 	movq   $0x0,0x98(%rsp)
    76ec:	00 00 00 00 00 
    76f1:	c7 84 24 88 00 00 00 	movl   $0x7f7fffff,0x88(%rsp)
    76f8:	ff ff 7f 7f 
    76fc:	48 89 44 24 28       	mov    %rax,0x28(%rsp)
    7701:	48 b8 ff ff 7f 7f ff 	movabs $0x7f7fffff7f7fffff,%rax
    7708:	ff 7f 7f 
    770b:	c7 84 24 94 00 00 00 	movl   $0xff7fffff,0x94(%rsp)
    7712:	ff ff 7f ff 
    7716:	48 89 84 24 80 00 00 	mov    %rax,0x80(%rsp)
    771d:	00 
    771e:	48 b8 ff ff 7f ff ff 	movabs $0xff7fffffff7fffff,%rax
    7725:	ff 7f ff 
    7728:	48 89 84 24 8c 00 00 	mov    %rax,0x8c(%rsp)
    772f:	00 
    7730:	0f 84 15 05 00 00    	je     7c4b <_ZN7MeshBVH6_buildEjRSt6vectorINS_8CentroidESaIS1_EEj+0x89b>
    7736:	48 85 f6             	test   %rsi,%rsi
    7739:	74 1d                	je     7758 <_ZN7MeshBVH6_buildEjRSt6vectorINS_8CentroidESaIS1_EEj+0x3a8>
    773b:	66 0f 6f 84 24 80 00 	movdqa 0x80(%rsp),%xmm0
    7742:	00 00 
    7744:	0f 11 06             	movups %xmm0,(%rsi)
    7747:	66 0f 6f 84 24 90 00 	movdqa 0x90(%rsp),%xmm0
    774e:	00 00 
    7750:	0f 11 46 10          	movups %xmm0,0x10(%rsi)
    7754:	48 8b 73 10          	mov    0x10(%rbx),%rsi
    7758:	48 83 c6 20          	add    $0x20,%rsi
    775c:	48 89 73 10          	mov    %rsi,0x10(%rbx)
    7760:	48 8b 44 24 68       	mov    0x68(%rsp),%rax
    7765:	48 39 44 24 70       	cmp    %rax,0x70(%rsp)
    776a:	0f 84 57 05 00 00    	je     7cc7 <_ZN7MeshBVH6_buildEjRSt6vectorINS_8CentroidESaIS1_EEj+0x917>
    7770:	48 8b 73 10          	mov    0x10(%rbx),%rsi
    7774:	48 3b 73 18          	cmp    0x18(%rbx),%rsi
    7778:	48 b8 ff ff 7f 7f ff 	movabs $0x7f7fffff7f7fffff,%rax
    777f:	ff 7f 7f 
    7782:	48 89 84 24 80 00 00 	mov    %rax,0x80(%rsp)
    7789:	00 
    778a:	48 b8 ff ff 7f ff ff 	movabs $0xff7fffffff7fffff,%rax
    7791:	ff 7f ff 
    7794:	48 c7 84 24 98 00 00 	movq   $0x0,0x98(%rsp)
    779b:	00 00 00 00 00 
    77a0:	c7 84 24 88 00 00 00 	movl   $0x7f7fffff,0x88(%rsp)
    77a7:	ff ff 7f 7f 
    77ab:	48 89 84 24 8c 00 00 	mov    %rax,0x8c(%rsp)
    77b2:	00 
    77b3:	c7 84 24 94 00 00 00 	movl   $0xff7fffff,0x94(%rsp)
    77ba:	ff ff 7f ff 
    77be:	0f 84 71 04 00 00    	je     7c35 <_ZN7MeshBVH6_buildEjRSt6vectorINS_8CentroidESaIS1_EEj+0x885>
    77c4:	48 85 f6             	test   %rsi,%rsi
    77c7:	74 1d                	je     77e6 <_ZN7MeshBVH6_buildEjRSt6vectorINS_8CentroidESaIS1_EEj+0x436>
    77c9:	66 0f 6f 84 24 80 00 	movdqa 0x80(%rsp),%xmm0
    77d0:	00 00 
    77d2:	0f 11 06             	movups %xmm0,(%rsi)
    77d5:	66 0f 6f 84 24 90 00 	movdqa 0x90(%rsp),%xmm0
    77dc:	00 00 
    77de:	0f 11 46 10          	movups %xmm0,0x10(%rsi)
    77e2:	48 8b 73 10          	mov    0x10(%rbx),%rsi
    77e6:	48 83 c6 20          	add    $0x20,%rsi
    77ea:	48 89 73 10          	mov    %rsi,0x10(%rbx)
    77ee:	48 8b 43 08          	mov    0x8(%rbx),%rax
    77f2:	42 c6 44 28 1d 01    	movb   $0x1,0x1d(%rax,%r13,1)
    77f8:	48 8d 45 30          	lea    0x30(%rbp),%rax
    77fc:	49 bd cd cc cc cc cc 	movabs $0xcccccccccccccccd,%r13
    7803:	cc cc cc 
    7806:	48 89 44 24 18       	mov    %rax,0x18(%rsp)
    780b:	48 8d 44 24 30       	lea    0x30(%rsp),%rax
    7810:	48 89 44 24 20       	mov    %rax,0x20(%rsp)
    7815:	48 8b 7d 00          	mov    0x0(%rbp),%rdi
    7819:	48 8b 75 08          	mov    0x8(%rbp),%rsi
    781d:	41 8d 44 24 01       	lea    0x1(%r12),%eax
    7822:	49 c1 e4 05          	shl    $0x5,%r12
    7826:	89 44 24 14          	mov    %eax,0x14(%rsp)
    782a:	48 8b 43 08          	mov    0x8(%rbx),%rax
    782e:	48 29 fe             	sub    %rdi,%rsi
    7831:	48 c1 fe 03          	sar    $0x3,%rsi
    7835:	49 0f af f5          	imul   %r13,%rsi
    7839:	4c 01 e0             	add    %r12,%rax
    783c:	48 85 f6             	test   %rsi,%rsi
    783f:	0f 84 af 00 00 00    	je     78f4 <_ZN7MeshBVH6_buildEjRSt6vectorINS_8CentroidESaIS1_EEj+0x544>
    7845:	f3 0f 10 60 0c       	movss  0xc(%rax),%xmm4
    784a:	31 d2                	xor    %edx,%edx
    784c:	31 c9                	xor    %ecx,%ecx
    784e:	f3 0f 10 58 10       	movss  0x10(%rax),%xmm3
    7853:	f3 0f 10 70 14       	movss  0x14(%rax),%xmm6
    7858:	f3 0f 10 10          	movss  (%rax),%xmm2
    785c:	f3 0f 10 48 04       	movss  0x4(%rax),%xmm1
    7861:	f3 0f 10 40 08       	movss  0x8(%rax),%xmm0
    7866:	66 2e 0f 1f 84 00 00 	nopw   %cs:0x0(%rax,%rax,1)
    786d:	00 00 00 
    7870:	48 8d 14 92          	lea    (%rdx,%rdx,4),%rdx
    7874:	48 8d 14 d7          	lea    (%rdi,%rdx,8),%rdx
    7878:	f3 0f 10 6a 10       	movss  0x10(%rdx),%xmm5
    787d:	f3 0f 5d ea          	minss  %xmm2,%xmm5
    7881:	0f 28 d5             	movaps %xmm5,%xmm2
    7884:	f3 0f 10 6a 14       	movss  0x14(%rdx),%xmm5
    7889:	f3 0f 5d e9          	minss  %xmm1,%xmm5
    788d:	0f 28 cd             	movaps %xmm5,%xmm1
    7890:	f3 0f 10 6a 18       	movss  0x18(%rdx),%xmm5
    7895:	f3 0f 5d e8          	minss  %xmm0,%xmm5
    7899:	f3 0f 11 10          	movss  %xmm2,(%rax)
    789d:	f3 0f 11 48 04       	movss  %xmm1,0x4(%rax)
    78a2:	f3 0f 11 68 08       	movss  %xmm5,0x8(%rax)
    78a7:	0f 28 c5             	movaps %xmm5,%xmm0
    78aa:	f3 0f 10 6a 1c       	movss  0x1c(%rdx),%xmm5
    78af:	f3 0f 5f ec          	maxss  %xmm4,%xmm5
    78b3:	0f 28 e5             	movaps %xmm5,%xmm4
    78b6:	f3 0f 10 6a 20       	movss  0x20(%rdx),%xmm5
    78bb:	f3 0f 5f eb          	maxss  %xmm3,%xmm5
    78bf:	0f 28 dd             	movaps %xmm5,%xmm3
    78c2:	f3 0f 10 6a 24       	movss  0x24(%rdx),%xmm5
    78c7:	0f 2e ee             	ucomiss %xmm6,%xmm5
    78ca:	f3 0f 11 60 0c       	movss  %xmm4,0xc(%rax)
    78cf:	f3 0f 11 58 10       	movss  %xmm3,0x10(%rax)
    78d4:	0f 87 2e 01 00 00    	ja     7a08 <_ZN7MeshBVH6_buildEjRSt6vectorINS_8CentroidESaIS1_EEj+0x658>
    78da:	8d 51 01             	lea    0x1(%rcx),%edx
    78dd:	f3 0f 11 70 14       	movss  %xmm6,0x14(%rax)
    78e2:	48 39 d6             	cmp    %rdx,%rsi
    78e5:	48 89 d1             	mov    %rdx,%rcx
    78e8:	77 86                	ja     7870 <_ZN7MeshBVH6_buildEjRSt6vectorINS_8CentroidESaIS1_EEj+0x4c0>
    78ea:	48 83 fe 08          	cmp    $0x8,%rsi
    78ee:	0f 87 34 01 00 00    	ja     7a28 <_ZN7MeshBVH6_buildEjRSt6vectorINS_8CentroidESaIS1_EEj+0x678>
    78f4:	c6 40 1c 01          	movb   $0x1,0x1c(%rax)
    78f8:	48 8b 43 28          	mov    0x28(%rbx),%rax
    78fc:	48 b9 ab aa aa aa aa 	movabs $0xaaaaaaaaaaaaaaab,%rcx
    7903:	aa aa aa 
    7906:	48 2b 43 20          	sub    0x20(%rbx),%rax
    790a:	48 8b 53 08          	mov    0x8(%rbx),%rdx
    790e:	48 c1 f8 03          	sar    $0x3,%rax
    7912:	48 0f af c1          	imul   %rcx,%rax
    7916:	42 89 44 22 18       	mov    %eax,0x18(%rdx,%r12,1)
    791b:	48 8b 45 08          	mov    0x8(%rbp),%rax
    791f:	48 2b 45 00          	sub    0x0(%rbp),%rax
    7923:	48 8b 53 08          	mov    0x8(%rbx),%rdx
    7927:	48 c1 f8 03          	sar    $0x3,%rax
    792b:	49 0f af c5          	imul   %r13,%rax
    792f:	83 e8 01             	sub    $0x1,%eax
    7932:	42 88 44 22 1d       	mov    %al,0x1d(%rdx,%r12,1)
    7937:	4c 8b 45 08          	mov    0x8(%rbp),%r8
    793b:	4c 3b 45 00          	cmp    0x0(%rbp),%r8
    793f:	0f 84 c3 02 00 00    	je     7c08 <_ZN7MeshBVH6_buildEjRSt6vectorINS_8CentroidESaIS1_EEj+0x858>
    7945:	48 8d 43 20          	lea    0x20(%rbx),%rax
    7949:	48 8b 73 28          	mov    0x28(%rbx),%rsi
    794d:	45 31 e4             	xor    %r12d,%r12d
    7950:	45 31 f6             	xor    %r14d,%r14d
    7953:	48 89 44 24 08       	mov    %rax,0x8(%rsp)
    7958:	e9 81 00 00 00       	jmpq   79de <_ZN7MeshBVH6_buildEjRSt6vectorINS_8CentroidESaIS1_EEj+0x62e>
    795d:	0f 1f 00             	nopl   (%rax)
    7960:	48 85 f6             	test   %rsi,%rsi
    7963:	74 12                	je     7977 <_ZN7MeshBVH6_buildEjRSt6vectorINS_8CentroidESaIS1_EEj+0x5c7>
    7965:	66 0f 6f 44 24 30    	movdqa 0x30(%rsp),%xmm0
    796b:	0f 11 06             	movups %xmm0,(%rsi)
    796e:	48 8b 44 24 40       	mov    0x40(%rsp),%rax
    7973:	48 89 46 10          	mov    %rax,0x10(%rsi)
    7977:	48 83 c6 18          	add    $0x18,%rsi
    797b:	48 89 73 28          	mov    %rsi,0x28(%rbx)
    797f:	48 8b 55 00          	mov    0x0(%rbp),%rdx
    7983:	4b 8d 04 a4          	lea    (%r12,%r12,4),%rax
    7987:	48 8b 3b             	mov    (%rbx),%rdi
    798a:	45 8d 66 01          	lea    0x1(%r14),%r12d
    798e:	8b 04 c2             	mov    (%rdx,%rax,8),%eax
    7991:	4c 8b 0f             	mov    (%rdi),%r9
    7994:	4d 89 e6             	mov    %r12,%r14
    7997:	48 8b 7f 18          	mov    0x18(%rdi),%rdi
    799b:	48 8d 04 40          	lea    (%rax,%rax,2),%rax
    799f:	4d 8b 14 81          	mov    (%r9,%rax,4),%r10
    79a3:	48 8d 0c 85 00 00 00 	lea    0x0(,%rax,4),%rcx
    79aa:	00 
    79ab:	4c 89 56 e8          	mov    %r10,-0x18(%rsi)
    79af:	45 8b 4c 09 08       	mov    0x8(%r9,%rcx,1),%r9d
    79b4:	44 89 4e f0          	mov    %r9d,-0x10(%rsi)
    79b8:	48 8b 04 87          	mov    (%rdi,%rax,4),%rax
    79bc:	48 89 46 f4          	mov    %rax,-0xc(%rsi)
    79c0:	8b 44 0f 08          	mov    0x8(%rdi,%rcx,1),%eax
    79c4:	89 46 fc             	mov    %eax,-0x4(%rsi)
    79c7:	4c 89 c0             	mov    %r8,%rax
    79ca:	48 29 d0             	sub    %rdx,%rax
    79cd:	48 c1 f8 03          	sar    $0x3,%rax
    79d1:	49 0f af c5          	imul   %r13,%rax
    79d5:	49 39 c4             	cmp    %rax,%r12
    79d8:	0f 83 2a 02 00 00    	jae    7c08 <_ZN7MeshBVH6_buildEjRSt6vectorINS_8CentroidESaIS1_EEj+0x858>
    79de:	48 39 73 30          	cmp    %rsi,0x30(%rbx)
    79e2:	0f 85 78 ff ff ff    	jne    7960 <_ZN7MeshBVH6_buildEjRSt6vectorINS_8CentroidESaIS1_EEj+0x5b0>
    79e8:	48 8b 54 24 20       	mov    0x20(%rsp),%rdx
    79ed:	48 8b 7c 24 08       	mov    0x8(%rsp),%rdi
    79f2:	e8 e9 f7 ff ff       	callq  71e0 <_ZNSt6vectorIN7MeshBVH8TriangleESaIS1_EE17_M_realloc_insertIJS1_EEEvN9__gnu_cxx17__normal_iteratorIPS1_S3_EEDpOT_>
    79f7:	48 8b 73 28          	mov    0x28(%rbx),%rsi
    79fb:	4c 8b 45 08          	mov    0x8(%rbp),%r8
    79ff:	e9 7b ff ff ff       	jmpq   797f <_ZN7MeshBVH6_buildEjRSt6vectorINS_8CentroidESaIS1_EEj+0x5cf>
    7a04:	0f 1f 40 00          	nopl   0x0(%rax)
    7a08:	8d 51 01             	lea    0x1(%rcx),%edx
    7a0b:	f3 0f 11 68 14       	movss  %xmm5,0x14(%rax)
    7a10:	48 39 d6             	cmp    %rdx,%rsi
    7a13:	48 89 d1             	mov    %rdx,%rcx
    7a16:	0f 86 ce fe ff ff    	jbe    78ea <_ZN7MeshBVH6_buildEjRSt6vectorINS_8CentroidESaIS1_EEj+0x53a>
    7a1c:	0f 28 f5             	movaps %xmm5,%xmm6
    7a1f:	e9 4c fe ff ff       	jmpq   7870 <_ZN7MeshBVH6_buildEjRSt6vectorINS_8CentroidESaIS1_EEj+0x4c0>
    7a24:	0f 1f 40 00          	nopl   0x0(%rax)
    7a28:	48 8d 84 24 80 00 00 	lea    0x80(%rsp),%rax
    7a2f:	00 
    7a30:	48 89 ee             	mov    %rbp,%rsi
    7a33:	48 89 df             	mov    %rbx,%rdi
    7a36:	48 c7 84 24 80 00 00 	movq   $0x0,0x80(%rsp)
    7a3d:	00 00 00 00 00 
    7a42:	48 c7 84 24 88 00 00 	movq   $0x0,0x88(%rsp)
    7a49:	00 00 00 00 00 
    7a4e:	48 89 c2             	mov    %rax,%rdx
    7a51:	48 c7 84 24 90 00 00 	movq   $0x0,0x90(%rsp)
    7a58:	00 00 00 00 00 
    7a5d:	48 c7 84 24 98 00 00 	movq   $0x0,0x98(%rsp)
    7a64:	00 00 00 00 00 
    7a69:	48 c7 84 24 a0 00 00 	movq   $0x0,0xa0(%rsp)
    7a70:	00 00 00 00 00 
    7a75:	48 c7 84 24 a8 00 00 	movq   $0x0,0xa8(%rsp)
    7a7c:	00 00 00 00 00 
    7a81:	48 89 44 24 08       	mov    %rax,0x8(%rsp)
    7a86:	e8 35 ed ff ff       	callq  67c0 <_ZNK7MeshBVH20_split_centroids_sahERSt6vectorINS_8CentroidESaIS1_EEPS3_>
    7a8b:	48 8b 45 00          	mov    0x0(%rbp),%rax
    7a8f:	4c 8b 73 10          	mov    0x10(%rbx),%r14
    7a93:	48 89 45 08          	mov    %rax,0x8(%rbp)
    7a97:	48 8b 43 08          	mov    0x8(%rbx),%rax
    7a9b:	49 29 c6             	sub    %rax,%r14
    7a9e:	49 c1 fe 05          	sar    $0x5,%r14
    7aa2:	46 89 74 20 18       	mov    %r14d,0x18(%rax,%r12,1)
    7aa7:	48 8b 84 24 80 00 00 	mov    0x80(%rsp),%rax
    7aae:	00 
    7aaf:	48 39 84 24 88 00 00 	cmp    %rax,0x88(%rsp)
    7ab6:	00 
    7ab7:	0f 84 0a 02 00 00    	je     7cc7 <_ZN7MeshBVH6_buildEjRSt6vectorINS_8CentroidESaIS1_EEj+0x917>
    7abd:	48 8b 73 10          	mov    0x10(%rbx),%rsi
    7ac1:	48 3b 73 18          	cmp    0x18(%rbx),%rsi
    7ac5:	48 b8 ff ff 7f 7f ff 	movabs $0x7f7fffff7f7fffff,%rax
    7acc:	ff 7f 7f 
    7acf:	48 89 44 24 30       	mov    %rax,0x30(%rsp)
    7ad4:	48 b8 ff ff 7f ff ff 	movabs $0xff7fffffff7fffff,%rax
    7adb:	ff 7f ff 
    7ade:	48 c7 44 24 48 00 00 	movq   $0x0,0x48(%rsp)
    7ae5:	00 00 
    7ae7:	c7 44 24 38 ff ff 7f 	movl   $0x7f7fffff,0x38(%rsp)
    7aee:	7f 
    7aef:	48 89 44 24 3c       	mov    %rax,0x3c(%rsp)
    7af4:	c7 44 24 44 ff ff 7f 	movl   $0xff7fffff,0x44(%rsp)
    7afb:	ff 
    7afc:	0f 84 1f 01 00 00    	je     7c21 <_ZN7MeshBVH6_buildEjRSt6vectorINS_8CentroidESaIS1_EEj+0x871>
    7b02:	48 85 f6             	test   %rsi,%rsi
    7b05:	74 17                	je     7b1e <_ZN7MeshBVH6_buildEjRSt6vectorINS_8CentroidESaIS1_EEj+0x76e>
    7b07:	66 0f 6f 44 24 30    	movdqa 0x30(%rsp),%xmm0
    7b0d:	0f 11 06             	movups %xmm0,(%rsi)
    7b10:	66 0f 6f 44 24 40    	movdqa 0x40(%rsp),%xmm0
    7b16:	0f 11 46 10          	movups %xmm0,0x10(%rsi)
    7b1a:	48 8b 73 10          	mov    0x10(%rbx),%rsi
    7b1e:	48 83 c6 20          	add    $0x20,%rsi
    7b22:	48 89 73 10          	mov    %rsi,0x10(%rbx)
    7b26:	48 8b 84 24 98 00 00 	mov    0x98(%rsp),%rax
    7b2d:	00 
    7b2e:	48 39 84 24 a0 00 00 	cmp    %rax,0xa0(%rsp)
    7b35:	00 
    7b36:	0f 84 8b 01 00 00    	je     7cc7 <_ZN7MeshBVH6_buildEjRSt6vectorINS_8CentroidESaIS1_EEj+0x917>
    7b3c:	48 8b 73 10          	mov    0x10(%rbx),%rsi
    7b40:	48 3b 73 18          	cmp    0x18(%rbx),%rsi
    7b44:	48 b8 ff ff 7f 7f ff 	movabs $0x7f7fffff7f7fffff,%rax
    7b4b:	ff 7f 7f 
    7b4e:	48 89 44 24 30       	mov    %rax,0x30(%rsp)
    7b53:	48 b8 ff ff 7f ff ff 	movabs $0xff7fffffff7fffff,%rax
    7b5a:	ff 7f ff 
    7b5d:	48 c7 44 24 48 00 00 	movq   $0x0,0x48(%rsp)
    7b64:	00 00 
    7b66:	c7 44 24 38 ff ff 7f 	movl   $0x7f7fffff,0x38(%rsp)
    7b6d:	7f 
    7b6e:	48 89 44 24 3c       	mov    %rax,0x3c(%rsp)
    7b73:	c7 44 24 44 ff ff 7f 	movl   $0xff7fffff,0x44(%rsp)
    7b7a:	ff 
    7b7b:	0f 84 e0 00 00 00    	je     7c61 <_ZN7MeshBVH6_buildEjRSt6vectorINS_8CentroidESaIS1_EEj+0x8b1>
    7b81:	48 85 f6             	test   %rsi,%rsi
    7b84:	74 17                	je     7b9d <_ZN7MeshBVH6_buildEjRSt6vectorINS_8CentroidESaIS1_EEj+0x7ed>
    7b86:	66 0f 6f 44 24 30    	movdqa 0x30(%rsp),%xmm0
    7b8c:	0f 11 06             	movups %xmm0,(%rsi)
    7b8f:	66 0f 6f 44 24 40    	movdqa 0x40(%rsp),%xmm0
    7b95:	0f 11 46 10          	movups %xmm0,0x10(%rsi)
    7b99:	48 8b 73 10          	mov    0x10(%rbx),%rsi
    7b9d:	48 83 c6 20          	add    $0x20,%rsi
    7ba1:	48 89 73 10          	mov    %rsi,0x10(%rbx)
    7ba5:	48 8b 43 08          	mov    0x8(%rbx),%rax
    7ba9:	48 8b 54 24 08       	mov    0x8(%rsp),%rdx
    7bae:	44 89 f9             	mov    %r15d,%ecx
    7bb1:	44 89 f6             	mov    %r14d,%esi
    7bb4:	48 89 df             	mov    %rbx,%rdi
    7bb7:	42 c6 44 20 1d 01    	movb   $0x1,0x1d(%rax,%r12,1)
    7bbd:	45 8d 66 01          	lea    0x1(%r14),%r12d
    7bc1:	e8 ea f7 ff ff       	callq  73b0 <_ZN7MeshBVH6_buildEjRSt6vectorINS_8CentroidESaIS1_EEj>
    7bc6:	48 8b 54 24 08       	mov    0x8(%rsp),%rdx
    7bcb:	44 89 f9             	mov    %r15d,%ecx
    7bce:	44 89 e6             	mov    %r12d,%esi
    7bd1:	48 89 df             	mov    %rbx,%rdi
    7bd4:	48 83 c2 18          	add    $0x18,%rdx
    7bd8:	e8 d3 f7 ff ff       	callq  73b0 <_ZN7MeshBVH6_buildEjRSt6vectorINS_8CentroidESaIS1_EEj>
    7bdd:	48 8b bc 24 98 00 00 	mov    0x98(%rsp),%rdi
    7be4:	00 
    7be5:	48 85 ff             	test   %rdi,%rdi
    7be8:	74 05                	je     7bef <_ZN7MeshBVH6_buildEjRSt6vectorINS_8CentroidESaIS1_EEj+0x83f>
    7bea:	e8 21 a3 ff ff       	callq  1f10 <_ZdlPv@plt>
    7bef:	48 8b bc 24 80 00 00 	mov    0x80(%rsp),%rdi
    7bf6:	00 
    7bf7:	48 85 ff             	test   %rdi,%rdi
    7bfa:	74 0c                	je     7c08 <_ZN7MeshBVH6_buildEjRSt6vectorINS_8CentroidESaIS1_EEj+0x858>
    7bfc:	e8 0f a3 ff ff       	callq  1f10 <_ZdlPv@plt>
    7c01:	0f 1f 80 00 00 00 00 	nopl   0x0(%rax)
    7c08:	48 83 c5 18          	add    $0x18,%rbp
    7c0c:	48 39 6c 24 18       	cmp    %rbp,0x18(%rsp)
    7c11:	0f 84 f1 f9 ff ff    	je     7608 <_ZN7MeshBVH6_buildEjRSt6vectorINS_8CentroidESaIS1_EEj+0x258>
    7c17:	44 8b 64 24 14       	mov    0x14(%rsp),%r12d
    7c1c:	e9 f4 fb ff ff       	jmpq   7815 <_ZN7MeshBVH6_buildEjRSt6vectorINS_8CentroidESaIS1_EEj+0x465>
    7c21:	48 8b 54 24 20       	mov    0x20(%rsp),%rdx
    7c26:	48 8b 7c 24 28       	mov    0x28(%rsp),%rdi
    7c2b:	e8 f0 f3 ff ff       	callq  7020 <_ZNSt6vectorIN7MeshBVH4NodeESaIS1_EE17_M_realloc_insertIJS1_EEEvN9__gnu_cxx17__normal_iteratorIPS1_S3_EEDpOT_>
    7c30:	e9 f1 fe ff ff       	jmpq   7b26 <_ZN7MeshBVH6_buildEjRSt6vectorINS_8CentroidESaIS1_EEj+0x776>
    7c35:	48 8d 94 24 80 00 00 	lea    0x80(%rsp),%rdx
    7c3c:	00 
    7c3d:	48 8d 7b 08          	lea    0x8(%rbx),%rdi
    7c41:	e8 da f3 ff ff       	callq  7020 <_ZNSt6vectorIN7MeshBVH4NodeESaIS1_EE17_M_realloc_insertIJS1_EEEvN9__gnu_cxx17__normal_iteratorIPS1_S3_EEDpOT_>
    7c46:	e9 a3 fb ff ff       	jmpq   77ee <_ZN7MeshBVH6_buildEjRSt6vectorINS_8CentroidESaIS1_EEj+0x43e>
    7c4b:	48 8d 94 24 80 00 00 	lea    0x80(%rsp),%rdx
    7c52:	00 
    7c53:	48 8d 7b 08          	lea    0x8(%rbx),%rdi
    7c57:	e8 c4 f3 ff ff       	callq  7020 <_ZNSt6vectorIN7MeshBVH4NodeESaIS1_EE17_M_realloc_insertIJS1_EEEvN9__gnu_cxx17__normal_iteratorIPS1_S3_EEDpOT_>
    7c5c:	e9 ff fa ff ff       	jmpq   7760 <_ZN7MeshBVH6_buildEjRSt6vectorINS_8CentroidESaIS1_EEj+0x3b0>
    7c61:	48 8b 54 24 20       	mov    0x20(%rsp),%rdx
    7c66:	48 8b 7c 24 28       	mov    0x28(%rsp),%rdi
    7c6b:	e8 b0 f3 ff ff       	callq  7020 <_ZNSt6vectorIN7MeshBVH4NodeESaIS1_EE17_M_realloc_insertIJS1_EEEvN9__gnu_cxx17__normal_iteratorIPS1_S3_EEDpOT_>
    7c70:	e9 30 ff ff ff       	jmpq   7ba5 <_ZN7MeshBVH6_buildEjRSt6vectorINS_8CentroidESaIS1_EEj+0x7f5>
    7c75:	e8 06 a3 ff ff       	callq  1f80 <__stack_chk_fail@plt>
    7c7a:	48 8b bc 24 98 00 00 	mov    0x98(%rsp),%rdi
    7c81:	00 
    7c82:	48 89 c3             	mov    %rax,%rbx
    7c85:	48 85 ff             	test   %rdi,%rdi
    7c88:	74 05                	je     7c8f <_ZN7MeshBVH6_buildEjRSt6vectorINS_8CentroidESaIS1_EEj+0x8df>
    7c8a:	e8 81 a2 ff ff       	callq  1f10 <_ZdlPv@plt>
    7c8f:	48 8b bc 24 80 00 00 	mov    0x80(%rsp),%rdi
    7c96:	00 
    7c97:	48 85 ff             	test   %rdi,%rdi
    7c9a:	74 05                	je     7ca1 <_ZN7MeshBVH6_buildEjRSt6vectorINS_8CentroidESaIS1_EEj+0x8f1>
    7c9c:	e8 6f a2 ff ff       	callq  1f10 <_ZdlPv@plt>
    7ca1:	48 8b 7c 24 68       	mov    0x68(%rsp),%rdi
    7ca6:	48 85 ff             	test   %rdi,%rdi
    7ca9:	74 05                	je     7cb0 <_ZN7MeshBVH6_buildEjRSt6vectorINS_8CentroidESaIS1_EEj+0x900>
    7cab:	e8 60 a2 ff ff       	callq  1f10 <_ZdlPv@plt>
    7cb0:	48 8b 7c 24 50       	mov    0x50(%rsp),%rdi
    7cb5:	48 85 ff             	test   %rdi,%rdi
    7cb8:	74 05                	je     7cbf <_ZN7MeshBVH6_buildEjRSt6vectorINS_8CentroidESaIS1_EEj+0x90f>
    7cba:	e8 51 a2 ff ff       	callq  1f10 <_ZdlPv@plt>
    7cbf:	48 89 df             	mov    %rbx,%rdi
    7cc2:	e8 d9 a3 ff ff       	callq  20a0 <_Unwind_Resume@plt>
    7cc7:	48 8d 0d b2 22 00 00 	lea    0x22b2(%rip),%rcx        # 9f80 <_ZZN7MeshBVH6_buildEjRSt6vectorINS_8CentroidESaIS1_EEjE19__PRETTY_FUNCTION__>
    7cce:	48 8d 35 d1 21 00 00 	lea    0x21d1(%rip),%rsi        # 9ea6 <_IO_stdin_used+0x86>
    7cd5:	48 8d 3d fb 21 00 00 	lea    0x21fb(%rip),%rdi        # 9ed7 <_IO_stdin_used+0xb7>
    7cdc:	ba 36 01 00 00       	mov    $0x136,%edx
    7ce1:	e8 ca a1 ff ff       	callq  1eb0 <__assert_fail@plt>
    7ce6:	48 89 c3             	mov    %rax,%rbx
    7ce9:	eb b6                	jmp    7ca1 <_ZN7MeshBVH6_buildEjRSt6vectorINS_8CentroidESaIS1_EEj+0x8f1>
    7ceb:	0f 1f 44 00 00       	nopl   0x0(%rax,%rax,1)

0000000000007cf0 <_ZN7MeshBVH5buildEv>:
    7cf0:	41 57                	push   %r15
    7cf2:	41 56                	push   %r14
    7cf4:	41 55                	push   %r13
    7cf6:	41 54                	push   %r12
    7cf8:	55                   	push   %rbp
    7cf9:	53                   	push   %rbx
    7cfa:	48 89 fb             	mov    %rdi,%rbx
    7cfd:	66 0f ef c0          	pxor   %xmm0,%xmm0
    7d01:	48 81 ec 88 02 00 00 	sub    $0x288,%rsp
    7d08:	48 8b 17             	mov    (%rdi),%rdx
    7d0b:	64 48 8b 04 25 28 00 	mov    %fs:0x28,%rax
    7d12:	00 00 
    7d14:	48 89 84 24 78 02 00 	mov    %rax,0x278(%rsp)
    7d1b:	00 
    7d1c:	31 c0                	xor    %eax,%eax
    7d1e:	48 8b 42 08          	mov    0x8(%rdx),%rax
    7d22:	48 2b 02             	sub    (%rdx),%rax
    7d25:	48 ba ab aa aa aa aa 	movabs $0xaaaaaaaaaaaaaaab,%rdx
    7d2c:	aa aa aa 
    7d2f:	0f 29 44 24 70       	movaps %xmm0,0x70(%rsp)
    7d34:	48 c7 84 24 80 00 00 	movq   $0x0,0x80(%rsp)
    7d3b:	00 00 00 00 00 
    7d40:	48 c1 f8 02          	sar    $0x2,%rax
    7d44:	48 0f af c2          	imul   %rdx,%rax
    7d48:	48 85 c0             	test   %rax,%rax
    7d4b:	0f 84 8f 0b 00 00    	je     88e0 <_ZN7MeshBVH5buildEv+0xbf0>
    7d51:	48 ba 66 66 66 66 66 	movabs $0x666666666666666,%rdx
    7d58:	66 66 06 
    7d5b:	48 39 d0             	cmp    %rdx,%rax
    7d5e:	0f 87 f3 1e 00 00    	ja     9c57 <_ZN7MeshBVH5buildEv+0x1f67>
    7d64:	4c 8d 04 80          	lea    (%rax,%rax,4),%r8
    7d68:	48 89 c5             	mov    %rax,%rbp
    7d6b:	4e 8d 24 c5 00 00 00 	lea    0x0(,%r8,8),%r12
    7d72:	00 
    7d73:	4c 89 e7             	mov    %r12,%rdi
    7d76:	e8 d5 a1 ff ff       	callq  1f50 <_Znwm@plt>
    7d7b:	48 89 04 24          	mov    %rax,(%rsp)
    7d7f:	4e 8d 04 20          	lea    (%rax,%r12,1),%r8
    7d83:	48 89 c2             	mov    %rax,%rdx
    7d86:	f3 0f 7e 04 24       	movq   (%rsp),%xmm0
    7d8b:	66 0f 6c c0          	punpcklqdq %xmm0,%xmm0
    7d8f:	4c 89 84 24 80 00 00 	mov    %r8,0x80(%rsp)
    7d96:	00 
    7d97:	f3 0f 10 0d dd 22 00 	movss  0x22dd(%rip),%xmm1        # a07c <_ZTSNSt6thread11_State_implINS_8_InvokerISt5tupleIJPFv11StartupData7MeshBVHES3_S4_EEEEEE+0x9c>
    7d9e:	00 
    7d9f:	0f 29 44 24 70       	movaps %xmm0,0x70(%rsp)
    7da4:	f3 0f 10 05 d4 22 00 	movss  0x22d4(%rip),%xmm0        # a080 <_ZTSNSt6thread11_State_implINS_8_InvokerISt5tupleIJPFv11StartupData7MeshBVHES3_S4_EEEEEE+0xa0>
    7dab:	00 
    7dac:	48 85 d2             	test   %rdx,%rdx
    7daf:	0f 84 5b 05 00 00    	je     8310 <_ZN7MeshBVH5buildEv+0x620>
    7db5:	66 0f ef d2          	pxor   %xmm2,%xmm2
    7db9:	f3 0f 11 4a 10       	movss  %xmm1,0x10(%rdx)
    7dbe:	48 83 c2 28          	add    $0x28,%rdx
    7dc2:	f3 0f 11 4a ec       	movss  %xmm1,-0x14(%rdx)
    7dc7:	f3 0f 11 4a f0       	movss  %xmm1,-0x10(%rdx)
    7dcc:	0f 11 52 d8          	movups %xmm2,-0x28(%rdx)
    7dd0:	f3 0f 11 42 f4       	movss  %xmm0,-0xc(%rdx)
    7dd5:	f3 0f 11 42 f8       	movss  %xmm0,-0x8(%rdx)
    7dda:	f3 0f 11 42 fc       	movss  %xmm0,-0x4(%rdx)
    7ddf:	48 83 ed 01          	sub    $0x1,%rbp
    7de3:	75 c7                	jne    7dac <_ZN7MeshBVH5buildEv+0xbc>
    7de5:	48 8b 13             	mov    (%rbx),%rdx
    7de8:	48 b9 ab aa aa aa aa 	movabs $0xaaaaaaaaaaaaaaab,%rcx
    7def:	aa aa aa 
    7df2:	48 8b 2a             	mov    (%rdx),%rbp
    7df5:	4c 8b 5a 08          	mov    0x8(%rdx),%r11
    7df9:	4c 89 44 24 78       	mov    %r8,0x78(%rsp)
    7dfe:	49 29 eb             	sub    %rbp,%r11
    7e01:	49 c1 fb 02          	sar    $0x2,%r11
    7e05:	4c 0f af d9          	imul   %rcx,%r11
    7e09:	4d 85 db             	test   %r11,%r11
    7e0c:	0f 84 5e 02 00 00    	je     8070 <_ZN7MeshBVH5buildEv+0x380>
    7e12:	f3 44 0f 10 05 65 22 	movss  0x2265(%rip),%xmm8        # a080 <_ZTSNSt6thread11_State_implINS_8_InvokerISt5tupleIJPFv11StartupData7MeshBVHES3_S4_EEEEEE+0xa0>
    7e19:	00 00 
    7e1b:	4c 8b 52 48          	mov    0x48(%rdx),%r10
    7e1f:	45 31 c9             	xor    %r9d,%r9d
    7e22:	45 0f 28 e0          	movaps %xmm8,%xmm12
    7e26:	31 c9                	xor    %ecx,%ecx
    7e28:	45 0f 28 d0          	movaps %xmm8,%xmm10
    7e2c:	45 0f 28 c8          	movaps %xmm8,%xmm9
    7e30:	f3 0f 10 35 44 22 00 	movss  0x2244(%rip),%xmm6        # a07c <_ZTSNSt6thread11_State_implINS_8_InvokerISt5tupleIJPFv11StartupData7MeshBVHES3_S4_EEEEEE+0x9c>
    7e37:	00 
    7e38:	f3 0f 10 3d 04 22 00 	movss  0x2204(%rip),%xmm7        # a044 <_ZTSNSt6thread11_State_implINS_8_InvokerISt5tupleIJPFv11StartupData7MeshBVHES3_S4_EEEEEE+0x64>
    7e3f:	00 
    7e40:	48 8d 14 89          	lea    (%rcx,%rcx,4),%rdx
    7e44:	48 8d 0c 49          	lea    (%rcx,%rcx,2),%rcx
    7e48:	48 8d 14 d0          	lea    (%rax,%rdx,8),%rdx
    7e4c:	48 8d 4c 8d 00       	lea    0x0(%rbp,%rcx,4),%rcx
    7e51:	44 89 0a             	mov    %r9d,(%rdx)
    7e54:	8b 31                	mov    (%rcx),%esi
    7e56:	48 8d 34 76          	lea    (%rsi,%rsi,2),%rsi
    7e5a:	49 8d 3c b2          	lea    (%r10,%rsi,4),%rdi
    7e5e:	f3 0f 10 17          	movss  (%rdi),%xmm2
    7e62:	0f 2e 15 17 22 00 00 	ucomiss 0x2217(%rip),%xmm2        # a080 <_ZTSNSt6thread11_State_implINS_8_InvokerISt5tupleIJPFv11StartupData7MeshBVHES3_S4_EEEEEE+0xa0>
    7e69:	f3 0f 10 4f 04       	movss  0x4(%rdi),%xmm1
    7e6e:	f3 0f 10 47 08       	movss  0x8(%rdi),%xmm0
    7e73:	0f 28 ea             	movaps %xmm2,%xmm5
    7e76:	0f 28 e1             	movaps %xmm1,%xmm4
    7e79:	0f 28 d8             	movaps %xmm0,%xmm3
    7e7c:	f3 0f 5d ee          	minss  %xmm6,%xmm5
    7e80:	f3 0f 5d e6          	minss  %xmm6,%xmm4
    7e84:	f3 0f 5d de          	minss  %xmm6,%xmm3
    7e88:	77 04                	ja     7e8e <_ZN7MeshBVH5buildEv+0x19e>
    7e8a:	41 0f 28 d0          	movaps %xmm8,%xmm2
    7e8e:	0f 2e 0d eb 21 00 00 	ucomiss 0x21eb(%rip),%xmm1        # a080 <_ZTSNSt6thread11_State_implINS_8_InvokerISt5tupleIJPFv11StartupData7MeshBVHES3_S4_EEEEEE+0xa0>
    7e95:	77 04                	ja     7e9b <_ZN7MeshBVH5buildEv+0x1ab>
    7e97:	41 0f 28 cc          	movaps %xmm12,%xmm1
    7e9b:	0f 2e 05 de 21 00 00 	ucomiss 0x21de(%rip),%xmm0        # a080 <_ZTSNSt6thread11_State_implINS_8_InvokerISt5tupleIJPFv11StartupData7MeshBVHES3_S4_EEEEEE+0xa0>
    7ea2:	77 04                	ja     7ea8 <_ZN7MeshBVH5buildEv+0x1b8>
    7ea4:	41 0f 28 c2          	movaps %xmm10,%xmm0
    7ea8:	8b 71 04             	mov    0x4(%rcx),%esi
    7eab:	8b 49 08             	mov    0x8(%rcx),%ecx
    7eae:	48 8d 34 76          	lea    (%rsi,%rsi,2),%rsi
    7eb2:	48 8d 0c 49          	lea    (%rcx,%rcx,2),%rcx
    7eb6:	49 8d 34 b2          	lea    (%r10,%rsi,4),%rsi
    7eba:	49 8d 0c 8a          	lea    (%r10,%rcx,4),%rcx
    7ebe:	f3 44 0f 10 3e       	movss  (%rsi),%xmm15
    7ec3:	45 0f 28 ef          	movaps %xmm15,%xmm13
    7ec7:	f3 44 0f 10 76 04    	movss  0x4(%rsi),%xmm14
    7ecd:	f3 44 0f 5f fa       	maxss  %xmm2,%xmm15
    7ed2:	f3 0f 10 11          	movss  (%rcx),%xmm2
    7ed6:	f3 44 0f 5d ed       	minss  %xmm5,%xmm13
    7edb:	41 0f 28 ed          	movaps %xmm13,%xmm5
    7edf:	45 0f 28 ee          	movaps %xmm14,%xmm13
    7ee3:	f3 44 0f 5f f1       	maxss  %xmm1,%xmm14
    7ee8:	0f 28 ca             	movaps %xmm2,%xmm1
    7eeb:	f3 44 0f 5d ec       	minss  %xmm4,%xmm13
    7ef0:	f3 0f 5d cd          	minss  %xmm5,%xmm1
    7ef4:	f3 41 0f 5f d7       	maxss  %xmm15,%xmm2
    7ef9:	41 0f 28 e5          	movaps %xmm13,%xmm4
    7efd:	0f 28 e9             	movaps %xmm1,%xmm5
    7f00:	f3 44 0f 10 6e 08    	movss  0x8(%rsi),%xmm13
    7f06:	f3 0f 10 49 04       	movss  0x4(%rcx),%xmm1
    7f0b:	45 0f 28 dd          	movaps %xmm13,%xmm11
    7f0f:	f3 44 0f 5f e8       	maxss  %xmm0,%xmm13
    7f14:	0f 28 c1             	movaps %xmm1,%xmm0
    7f17:	f3 44 0f 5d db       	minss  %xmm3,%xmm11
    7f1c:	f3 0f 5d c4          	minss  %xmm4,%xmm0
    7f20:	f3 41 0f 5f ce       	maxss  %xmm14,%xmm1
    7f25:	f3 0f 58 d5          	addss  %xmm5,%xmm2
    7f29:	41 0f 28 db          	movaps %xmm11,%xmm3
    7f2d:	0f 28 e0             	movaps %xmm0,%xmm4
    7f30:	f3 0f 10 41 08       	movss  0x8(%rcx),%xmm0
    7f35:	44 0f 28 d8          	movaps %xmm0,%xmm11
    7f39:	f3 41 0f 5f c5       	maxss  %xmm13,%xmm0
    7f3e:	f3 0f 59 d7          	mulss  %xmm7,%xmm2
    7f42:	f3 44 0f 5d db       	minss  %xmm3,%xmm11
    7f47:	f3 0f 58 cc          	addss  %xmm4,%xmm1
    7f4b:	f3 0f 11 52 04       	movss  %xmm2,0x4(%rdx)
    7f50:	f3 41 0f 58 c3       	addss  %xmm11,%xmm0
    7f55:	f3 0f 59 cf          	mulss  %xmm7,%xmm1
    7f59:	f3 0f 59 c7          	mulss  %xmm7,%xmm0
    7f5d:	f3 0f 11 4a 08       	movss  %xmm1,0x8(%rdx)
    7f62:	f3 0f 11 42 0c       	movss  %xmm0,0xc(%rdx)
    7f67:	f3 44 0f 10 3f       	movss  (%rdi),%xmm15
    7f6c:	44 0f 2e 3d 0c 21 00 	ucomiss 0x210c(%rip),%xmm15        # a080 <_ZTSNSt6thread11_State_implINS_8_InvokerISt5tupleIJPFv11StartupData7MeshBVHES3_S4_EEEEEE+0xa0>
    7f73:	00 
    7f74:	f3 0f 10 6f 04       	movss  0x4(%rdi),%xmm5
    7f79:	f3 0f 10 67 08       	movss  0x8(%rdi),%xmm4
    7f7e:	41 0f 28 d7          	movaps %xmm15,%xmm2
    7f82:	0f 28 cd             	movaps %xmm5,%xmm1
    7f85:	0f 28 c4             	movaps %xmm4,%xmm0
    7f88:	f3 0f 5d d6          	minss  %xmm6,%xmm2
    7f8c:	f3 0f 5d ce          	minss  %xmm6,%xmm1
    7f90:	f3 0f 5d c6          	minss  %xmm6,%xmm0
    7f94:	77 09                	ja     7f9f <_ZN7MeshBVH5buildEv+0x2af>
    7f96:	f3 44 0f 10 3d e1 20 	movss  0x20e1(%rip),%xmm15        # a080 <_ZTSNSt6thread11_State_implINS_8_InvokerISt5tupleIJPFv11StartupData7MeshBVHES3_S4_EEEEEE+0xa0>
    7f9d:	00 00 
    7f9f:	0f 2e 2d da 20 00 00 	ucomiss 0x20da(%rip),%xmm5        # a080 <_ZTSNSt6thread11_State_implINS_8_InvokerISt5tupleIJPFv11StartupData7MeshBVHES3_S4_EEEEEE+0xa0>
    7fa6:	77 08                	ja     7fb0 <_ZN7MeshBVH5buildEv+0x2c0>
    7fa8:	f3 0f 10 2d d0 20 00 	movss  0x20d0(%rip),%xmm5        # a080 <_ZTSNSt6thread11_State_implINS_8_InvokerISt5tupleIJPFv11StartupData7MeshBVHES3_S4_EEEEEE+0xa0>
    7faf:	00 
    7fb0:	0f 2e 25 c9 20 00 00 	ucomiss 0x20c9(%rip),%xmm4        # a080 <_ZTSNSt6thread11_State_implINS_8_InvokerISt5tupleIJPFv11StartupData7MeshBVHES3_S4_EEEEEE+0xa0>
    7fb7:	77 04                	ja     7fbd <_ZN7MeshBVH5buildEv+0x2cd>
    7fb9:	41 0f 28 e1          	movaps %xmm9,%xmm4
    7fbd:	f3 44 0f 10 36       	movss  (%rsi),%xmm14
    7fc2:	41 0f 28 de          	movaps %xmm14,%xmm3
    7fc6:	f3 44 0f 10 6e 04    	movss  0x4(%rsi),%xmm13
    7fcc:	f3 45 0f 5f f7       	maxss  %xmm15,%xmm14
    7fd1:	f3 44 0f 10 79 08    	movss  0x8(%rcx),%xmm15
    7fd7:	f3 0f 5d da          	minss  %xmm2,%xmm3
    7fdb:	0f 28 d3             	movaps %xmm3,%xmm2
    7fde:	41 0f 28 dd          	movaps %xmm13,%xmm3
    7fe2:	f3 44 0f 5f ed       	maxss  %xmm5,%xmm13
    7fe7:	f3 0f 10 29          	movss  (%rcx),%xmm5
    7feb:	f3 0f 5d d9          	minss  %xmm1,%xmm3
    7fef:	0f 28 cb             	movaps %xmm3,%xmm1
    7ff2:	f3 0f 10 5e 08       	movss  0x8(%rsi),%xmm3
    7ff7:	44 0f 28 db          	movaps %xmm3,%xmm11
    7ffb:	f3 0f 5f dc          	maxss  %xmm4,%xmm3
    7fff:	0f 28 e5             	movaps %xmm5,%xmm4
    8002:	f3 44 0f 5d d8       	minss  %xmm0,%xmm11
    8007:	f3 0f 5d e2          	minss  %xmm2,%xmm4
    800b:	f3 41 0f 5f ee       	maxss  %xmm14,%xmm5
    8010:	44 0f 2e fb          	ucomiss %xmm3,%xmm15
    8014:	41 0f 28 c3          	movaps %xmm11,%xmm0
    8018:	0f 28 d4             	movaps %xmm4,%xmm2
    801b:	f3 0f 10 61 04       	movss  0x4(%rcx),%xmm4
    8020:	44 0f 28 dc          	movaps %xmm4,%xmm11
    8024:	f3 0f 11 6a 1c       	movss  %xmm5,0x1c(%rdx)
    8029:	f3 41 0f 5f e5       	maxss  %xmm13,%xmm4
    802e:	f3 0f 11 52 10       	movss  %xmm2,0x10(%rdx)
    8033:	f3 44 0f 5d d9       	minss  %xmm1,%xmm11
    8038:	f3 0f 11 62 20       	movss  %xmm4,0x20(%rdx)
    803d:	41 0f 28 cb          	movaps %xmm11,%xmm1
    8041:	45 0f 28 df          	movaps %xmm15,%xmm11
    8045:	f3 44 0f 5d d8       	minss  %xmm0,%xmm11
    804a:	f3 0f 11 4a 14       	movss  %xmm1,0x14(%rdx)
    804f:	f3 44 0f 11 5a 18    	movss  %xmm11,0x18(%rdx)
    8055:	0f 87 95 02 00 00    	ja     82f0 <_ZN7MeshBVH5buildEv+0x600>
    805b:	41 8d 49 01          	lea    0x1(%r9),%ecx
    805f:	f3 0f 11 5a 24       	movss  %xmm3,0x24(%rdx)
    8064:	4c 39 d9             	cmp    %r11,%rcx
    8067:	49 89 c9             	mov    %rcx,%r9
    806a:	0f 82 d0 fd ff ff    	jb     7e40 <_ZN7MeshBVH5buildEv+0x150>
    8070:	48 8d 7b 08          	lea    0x8(%rbx),%rdi
    8074:	48 8b 73 10          	mov    0x10(%rbx),%rsi
    8078:	48 3b 73 18          	cmp    0x18(%rbx),%rsi
    807c:	48 c7 84 24 58 02 00 	movq   $0x0,0x258(%rsp)
    8083:	00 00 00 00 00 
    8088:	c7 84 24 48 02 00 00 	movl   $0x7f7fffff,0x248(%rsp)
    808f:	ff ff 7f 7f 
    8093:	48 89 3c 24          	mov    %rdi,(%rsp)
    8097:	48 bf ff ff 7f 7f ff 	movabs $0x7f7fffff7f7fffff,%rdi
    809e:	ff 7f 7f 
    80a1:	c7 84 24 54 02 00 00 	movl   $0xff7fffff,0x254(%rsp)
    80a8:	ff ff 7f ff 
    80ac:	48 89 bc 24 40 02 00 	mov    %rdi,0x240(%rsp)
    80b3:	00 
    80b4:	48 bf ff ff 7f ff ff 	movabs $0xff7fffffff7fffff,%rdi
    80bb:	ff 7f ff 
    80be:	48 89 bc 24 4c 02 00 	mov    %rdi,0x24c(%rsp)
    80c5:	00 
    80c6:	0f 84 c4 03 00 00    	je     8490 <_ZN7MeshBVH5buildEv+0x7a0>
    80cc:	48 85 f6             	test   %rsi,%rsi
    80cf:	74 27                	je     80f8 <_ZN7MeshBVH5buildEv+0x408>
    80d1:	66 0f 6f 84 24 40 02 	movdqa 0x240(%rsp),%xmm0
    80d8:	00 00 
    80da:	0f 11 06             	movups %xmm0,(%rsi)
    80dd:	4c 8b 44 24 78       	mov    0x78(%rsp),%r8
    80e2:	48 8b 44 24 70       	mov    0x70(%rsp),%rax
    80e7:	66 0f 6f 84 24 50 02 	movdqa 0x250(%rsp),%xmm0
    80ee:	00 00 
    80f0:	0f 11 46 10          	movups %xmm0,0x10(%rsi)
    80f4:	48 8b 73 10          	mov    0x10(%rbx),%rsi
    80f8:	48 83 c6 20          	add    $0x20,%rsi
    80fc:	48 89 73 10          	mov    %rsi,0x10(%rbx)
    8100:	49 29 c0             	sub    %rax,%r8
    8103:	48 ba cd cc cc cc cc 	movabs $0xcccccccccccccccd,%rdx
    810a:	cc cc cc 
    810d:	49 c1 f8 03          	sar    $0x3,%r8
    8111:	4c 0f af c2          	imul   %rdx,%r8
    8115:	48 8b 53 08          	mov    0x8(%rbx),%rdx
    8119:	4d 85 c0             	test   %r8,%r8
    811c:	0f 84 7e 07 00 00    	je     88a0 <_ZN7MeshBVH5buildEv+0xbb0>
    8122:	f3 0f 10 62 0c       	movss  0xc(%rdx),%xmm4
    8127:	31 c9                	xor    %ecx,%ecx
    8129:	31 f6                	xor    %esi,%esi
    812b:	f3 0f 10 5a 10       	movss  0x10(%rdx),%xmm3
    8130:	f3 0f 10 72 14       	movss  0x14(%rdx),%xmm6
    8135:	f3 0f 10 12          	movss  (%rdx),%xmm2
    8139:	f3 0f 10 4a 04       	movss  0x4(%rdx),%xmm1
    813e:	f3 0f 10 42 08       	movss  0x8(%rdx),%xmm0
    8143:	0f 1f 44 00 00       	nopl   0x0(%rax,%rax,1)
    8148:	48 8d 0c 89          	lea    (%rcx,%rcx,4),%rcx
    814c:	48 8d 0c c8          	lea    (%rax,%rcx,8),%rcx
    8150:	f3 0f 10 69 10       	movss  0x10(%rcx),%xmm5
    8155:	f3 0f 5d ea          	minss  %xmm2,%xmm5
    8159:	0f 28 d5             	movaps %xmm5,%xmm2
    815c:	f3 0f 10 69 14       	movss  0x14(%rcx),%xmm5
    8161:	f3 0f 5d e9          	minss  %xmm1,%xmm5
    8165:	0f 28 cd             	movaps %xmm5,%xmm1
    8168:	f3 0f 10 69 18       	movss  0x18(%rcx),%xmm5
    816d:	f3 0f 5d e8          	minss  %xmm0,%xmm5
    8171:	f3 0f 11 12          	movss  %xmm2,(%rdx)
    8175:	f3 0f 11 4a 04       	movss  %xmm1,0x4(%rdx)
    817a:	f3 0f 11 6a 08       	movss  %xmm5,0x8(%rdx)
    817f:	0f 28 c5             	movaps %xmm5,%xmm0
    8182:	f3 0f 10 69 1c       	movss  0x1c(%rcx),%xmm5
    8187:	f3 0f 5f ec          	maxss  %xmm4,%xmm5
    818b:	0f 28 e5             	movaps %xmm5,%xmm4
    818e:	f3 0f 10 69 20       	movss  0x20(%rcx),%xmm5
    8193:	f3 0f 5f eb          	maxss  %xmm3,%xmm5
    8197:	0f 28 dd             	movaps %xmm5,%xmm3
    819a:	f3 0f 10 69 24       	movss  0x24(%rcx),%xmm5
    819f:	0f 2e ee             	ucomiss %xmm6,%xmm5
    81a2:	f3 0f 11 62 0c       	movss  %xmm4,0xc(%rdx)
    81a7:	f3 0f 11 5a 10       	movss  %xmm3,0x10(%rdx)
    81ac:	0f 87 1e 01 00 00    	ja     82d0 <_ZN7MeshBVH5buildEv+0x5e0>
    81b2:	8d 4e 01             	lea    0x1(%rsi),%ecx
    81b5:	f3 0f 11 72 14       	movss  %xmm6,0x14(%rdx)
    81ba:	49 39 c8             	cmp    %rcx,%r8
    81bd:	48 89 ce             	mov    %rcx,%rsi
    81c0:	77 86                	ja     8148 <_ZN7MeshBVH5buildEv+0x458>
    81c2:	49 83 f8 08          	cmp    $0x8,%r8
    81c6:	0f 87 e4 02 00 00    	ja     84b0 <_ZN7MeshBVH5buildEv+0x7c0>
    81cc:	c6 42 1c 01          	movb   $0x1,0x1c(%rdx)
    81d0:	48 8b 43 28          	mov    0x28(%rbx),%rax
    81d4:	48 b9 ab aa aa aa aa 	movabs $0xaaaaaaaaaaaaaaab,%rcx
    81db:	aa aa aa 
    81de:	48 2b 43 20          	sub    0x20(%rbx),%rax
    81e2:	48 8b 53 08          	mov    0x8(%rbx),%rdx
    81e6:	41 83 e8 01          	sub    $0x1,%r8d
    81ea:	4c 8d 7b 20          	lea    0x20(%rbx),%r15
    81ee:	31 ed                	xor    %ebp,%ebp
    81f0:	45 31 e4             	xor    %r12d,%r12d
    81f3:	4c 8d b4 24 90 00 00 	lea    0x90(%rsp),%r14
    81fa:	00 
    81fb:	49 bd cd cc cc cc cc 	movabs $0xcccccccccccccccd,%r13
    8202:	cc cc cc 
    8205:	48 c1 f8 03          	sar    $0x3,%rax
    8209:	48 0f af c1          	imul   %rcx,%rax
    820d:	89 42 18             	mov    %eax,0x18(%rdx)
    8210:	48 8b 43 08          	mov    0x8(%rbx),%rax
    8214:	44 88 40 1d          	mov    %r8b,0x1d(%rax)
    8218:	48 8b 73 28          	mov    0x28(%rbx),%rsi
    821c:	e9 8e 00 00 00       	jmpq   82af <_ZN7MeshBVH5buildEv+0x5bf>
    8221:	0f 1f 80 00 00 00 00 	nopl   0x0(%rax)
    8228:	48 85 f6             	test   %rsi,%rsi
    822b:	74 18                	je     8245 <_ZN7MeshBVH5buildEv+0x555>
    822d:	66 0f 6f 84 24 90 00 	movdqa 0x90(%rsp),%xmm0
    8234:	00 00 
    8236:	0f 11 06             	movups %xmm0,(%rsi)
    8239:	48 8b 84 24 a0 00 00 	mov    0xa0(%rsp),%rax
    8240:	00 
    8241:	48 89 46 10          	mov    %rax,0x10(%rsi)
    8245:	48 83 c6 18          	add    $0x18,%rsi
    8249:	48 89 73 28          	mov    %rsi,0x28(%rbx)
    824d:	48 8b 7c 24 70       	mov    0x70(%rsp),%rdi
    8252:	48 8d 44 ad 00       	lea    0x0(%rbp,%rbp,4),%rax
    8257:	4c 8b 03             	mov    (%rbx),%r8
    825a:	41 8d 6c 24 01       	lea    0x1(%r12),%ebp
    825f:	8b 04 c7             	mov    (%rdi,%rax,8),%eax
    8262:	49 8b 08             	mov    (%r8),%rcx
    8265:	49 89 ec             	mov    %rbp,%r12
    8268:	48 8d 04 40          	lea    (%rax,%rax,2),%rax
    826c:	4c 8b 0c 81          	mov    (%rcx,%rax,4),%r9
    8270:	48 8d 14 85 00 00 00 	lea    0x0(,%rax,4),%rdx
    8277:	00 
    8278:	4c 89 4e e8          	mov    %r9,-0x18(%rsi)
    827c:	8b 4c 11 08          	mov    0x8(%rcx,%rdx,1),%ecx
    8280:	89 4e f0             	mov    %ecx,-0x10(%rsi)
    8283:	49 8b 48 18          	mov    0x18(%r8),%rcx
    8287:	48 8b 04 81          	mov    (%rcx,%rax,4),%rax
    828b:	48 89 46 f4          	mov    %rax,-0xc(%rsi)
    828f:	8b 44 11 08          	mov    0x8(%rcx,%rdx,1),%eax
    8293:	89 46 fc             	mov    %eax,-0x4(%rsi)
    8296:	48 8b 44 24 78       	mov    0x78(%rsp),%rax
    829b:	48 29 f8             	sub    %rdi,%rax
    829e:	48 c1 f8 03          	sar    $0x3,%rax
    82a2:	49 0f af c5          	imul   %r13,%rax
    82a6:	48 39 c5             	cmp    %rax,%rbp
    82a9:	0f 83 21 01 00 00    	jae    83d0 <_ZN7MeshBVH5buildEv+0x6e0>
    82af:	48 39 73 30          	cmp    %rsi,0x30(%rbx)
    82b3:	0f 85 6f ff ff ff    	jne    8228 <_ZN7MeshBVH5buildEv+0x538>
    82b9:	4c 89 f2             	mov    %r14,%rdx
    82bc:	4c 89 ff             	mov    %r15,%rdi
    82bf:	e8 1c ef ff ff       	callq  71e0 <_ZNSt6vectorIN7MeshBVH8TriangleESaIS1_EE17_M_realloc_insertIJS1_EEEvN9__gnu_cxx17__normal_iteratorIPS1_S3_EEDpOT_>
    82c4:	48 8b 73 28          	mov    0x28(%rbx),%rsi
    82c8:	eb 83                	jmp    824d <_ZN7MeshBVH5buildEv+0x55d>
    82ca:	66 0f 1f 44 00 00    	nopw   0x0(%rax,%rax,1)
    82d0:	8d 4e 01             	lea    0x1(%rsi),%ecx
    82d3:	f3 0f 11 6a 14       	movss  %xmm5,0x14(%rdx)
    82d8:	4c 39 c1             	cmp    %r8,%rcx
    82db:	48 89 ce             	mov    %rcx,%rsi
    82de:	0f 83 de fe ff ff    	jae    81c2 <_ZN7MeshBVH5buildEv+0x4d2>
    82e4:	0f 28 f5             	movaps %xmm5,%xmm6
    82e7:	e9 5c fe ff ff       	jmpq   8148 <_ZN7MeshBVH5buildEv+0x458>
    82ec:	0f 1f 40 00          	nopl   0x0(%rax)
    82f0:	41 8d 49 01          	lea    0x1(%r9),%ecx
    82f4:	f3 44 0f 11 7a 24    	movss  %xmm15,0x24(%rdx)
    82fa:	49 39 cb             	cmp    %rcx,%r11
    82fd:	49 89 c9             	mov    %rcx,%r9
    8300:	0f 87 3a fb ff ff    	ja     7e40 <_ZN7MeshBVH5buildEv+0x150>
    8306:	e9 65 fd ff ff       	jmpq   8070 <_ZN7MeshBVH5buildEv+0x380>
    830b:	0f 1f 44 00 00       	nopl   0x0(%rax,%rax,1)
    8310:	48 83 ed 01          	sub    $0x1,%rbp
    8314:	0f 84 cb fa ff ff    	je     7de5 <_ZN7MeshBVH5buildEv+0xf5>
    831a:	ba 28 00 00 00       	mov    $0x28,%edx
    831f:	e9 91 fa ff ff       	jmpq   7db5 <_ZN7MeshBVH5buildEv+0xc5>
    8324:	48 8b bc 24 c8 01 00 	mov    0x1c8(%rsp),%rdi
    832b:	00 
    832c:	48 85 ff             	test   %rdi,%rdi
    832f:	74 05                	je     8336 <_ZN7MeshBVH5buildEv+0x646>
    8331:	e8 da 9b ff ff       	callq  1f10 <_ZdlPv@plt>
    8336:	48 8b bc 24 b0 01 00 	mov    0x1b0(%rsp),%rdi
    833d:	00 
    833e:	48 85 ff             	test   %rdi,%rdi
    8341:	74 0d                	je     8350 <_ZN7MeshBVH5buildEv+0x660>
    8343:	e8 c8 9b ff ff       	callq  1f10 <_ZdlPv@plt>
    8348:	0f 1f 84 00 00 00 00 	nopl   0x0(%rax,%rax,1)
    834f:	00 
    8350:	49 83 c4 18          	add    $0x18,%r12
    8354:	4c 3b 64 24 28       	cmp    0x28(%rsp),%r12
    8359:	44 8b 6c 24 10       	mov    0x10(%rsp),%r13d
    835e:	0f 85 45 07 00 00    	jne    8aa9 <_ZN7MeshBVH5buildEv+0xdb9>
    8364:	48 8b bc 24 98 01 00 	mov    0x198(%rsp),%rdi
    836b:	00 
    836c:	48 85 ff             	test   %rdi,%rdi
    836f:	74 05                	je     8376 <_ZN7MeshBVH5buildEv+0x686>
    8371:	e8 9a 9b ff ff       	callq  1f10 <_ZdlPv@plt>
    8376:	48 8b bc 24 80 01 00 	mov    0x180(%rsp),%rdi
    837d:	00 
    837e:	48 85 ff             	test   %rdi,%rdi
    8381:	74 0d                	je     8390 <_ZN7MeshBVH5buildEv+0x6a0>
    8383:	e8 88 9b ff ff       	callq  1f10 <_ZdlPv@plt>
    8388:	0f 1f 84 00 00 00 00 	nopl   0x0(%rax,%rax,1)
    838f:	00 
    8390:	49 83 c7 18          	add    $0x18,%r15
    8394:	4c 3b 7c 24 08       	cmp    0x8(%rsp),%r15
    8399:	8b 6c 24 38          	mov    0x38(%rsp),%ebp
    839d:	0f 85 d1 02 00 00    	jne    8674 <_ZN7MeshBVH5buildEv+0x984>
    83a3:	48 8b bc 24 68 01 00 	mov    0x168(%rsp),%rdi
    83aa:	00 
    83ab:	48 85 ff             	test   %rdi,%rdi
    83ae:	74 05                	je     83b5 <_ZN7MeshBVH5buildEv+0x6c5>
    83b0:	e8 5b 9b ff ff       	callq  1f10 <_ZdlPv@plt>
    83b5:	48 8b bc 24 50 01 00 	mov    0x150(%rsp),%rdi
    83bc:	00 
    83bd:	48 85 ff             	test   %rdi,%rdi
    83c0:	74 05                	je     83c7 <_ZN7MeshBVH5buildEv+0x6d7>
    83c2:	e8 49 9b ff ff       	callq  1f10 <_ZdlPv@plt>
    83c7:	48 8b 73 28          	mov    0x28(%rbx),%rsi
    83cb:	0f 1f 44 00 00       	nopl   0x0(%rax,%rax,1)
    83d0:	4c 8b 5b 20          	mov    0x20(%rbx),%r11
    83d4:	48 b8 ab aa aa aa aa 	movabs $0xaaaaaaaaaaaaaaab,%rax
    83db:	aa aa aa 
    83de:	4c 29 de             	sub    %r11,%rsi
    83e1:	48 c1 fe 03          	sar    $0x3,%rsi
    83e5:	48 0f af f0          	imul   %rax,%rsi
    83e9:	48 85 f6             	test   %rsi,%rsi
    83ec:	74 4d                	je     843b <_ZN7MeshBVH5buildEv+0x74b>
    83ee:	48 8b 03             	mov    (%rbx),%rax
    83f1:	31 c9                	xor    %ecx,%ecx
    83f3:	4c 8b 08             	mov    (%rax),%r9
    83f6:	4c 8b 40 18          	mov    0x18(%rax),%r8
    83fa:	31 c0                	xor    %eax,%eax
    83fc:	0f 1f 40 00          	nopl   0x0(%rax)
    8400:	48 8d 14 40          	lea    (%rax,%rax,2),%rdx
    8404:	49 8d 04 d3          	lea    (%r11,%rdx,8),%rax
    8408:	48 8d 3c 95 00 00 00 	lea    0x0(,%rdx,4),%rdi
    840f:	00 
    8410:	4c 8b 10             	mov    (%rax),%r10
    8413:	4d 89 14 91          	mov    %r10,(%r9,%rdx,4)
    8417:	44 8b 50 08          	mov    0x8(%rax),%r10d
    841b:	45 89 54 39 08       	mov    %r10d,0x8(%r9,%rdi,1)
    8420:	4c 8b 50 0c          	mov    0xc(%rax),%r10
    8424:	4d 89 14 90          	mov    %r10,(%r8,%rdx,4)
    8428:	8b 40 14             	mov    0x14(%rax),%eax
    842b:	41 89 44 38 08       	mov    %eax,0x8(%r8,%rdi,1)
    8430:	8d 41 01             	lea    0x1(%rcx),%eax
    8433:	48 39 f0             	cmp    %rsi,%rax
    8436:	48 89 c1             	mov    %rax,%rcx
    8439:	72 c5                	jb     8400 <_ZN7MeshBVH5buildEv+0x710>
    843b:	48 8d 35 af 1a 00 00 	lea    0x1aaf(%rip),%rsi        # 9ef1 <_IO_stdin_used+0xd1>
    8442:	48 8d 3d d7 3b 20 00 	lea    0x203bd7(%rip),%rdi        # 20c020 <_ZSt4cout@@GLIBCXX_3.4>
    8449:	4c 89 5b 28          	mov    %r11,0x28(%rbx)
    844d:	ba 0a 00 00 00       	mov    $0xa,%edx
    8452:	e8 39 9b ff ff       	callq  1f90 <_ZSt16__ostream_insertIcSt11char_traitsIcEERSt13basic_ostreamIT_T0_ES6_PKS3_l@plt>
    8457:	48 8b 7c 24 70       	mov    0x70(%rsp),%rdi
    845c:	48 85 ff             	test   %rdi,%rdi
    845f:	74 05                	je     8466 <_ZN7MeshBVH5buildEv+0x776>
    8461:	e8 aa 9a ff ff       	callq  1f10 <_ZdlPv@plt>
    8466:	48 8b 84 24 78 02 00 	mov    0x278(%rsp),%rax
    846d:	00 
    846e:	64 48 33 04 25 28 00 	xor    %fs:0x28,%rax
    8475:	00 00 
    8477:	0f 85 df 17 00 00    	jne    9c5c <_ZN7MeshBVH5buildEv+0x1f6c>
    847d:	48 81 c4 88 02 00 00 	add    $0x288,%rsp
    8484:	5b                   	pop    %rbx
    8485:	5d                   	pop    %rbp
    8486:	41 5c                	pop    %r12
    8488:	41 5d                	pop    %r13
    848a:	41 5e                	pop    %r14
    848c:	41 5f                	pop    %r15
    848e:	c3                   	retq   
    848f:	90                   	nop
    8490:	48 8d 94 24 40 02 00 	lea    0x240(%rsp),%rdx
    8497:	00 
    8498:	48 8d 7b 08          	lea    0x8(%rbx),%rdi
    849c:	e8 7f eb ff ff       	callq  7020 <_ZNSt6vectorIN7MeshBVH4NodeESaIS1_EE17_M_realloc_insertIJS1_EEEvN9__gnu_cxx17__normal_iteratorIPS1_S3_EEDpOT_>
    84a1:	4c 8b 44 24 78       	mov    0x78(%rsp),%r8
    84a6:	48 8b 44 24 70       	mov    0x70(%rsp),%rax
    84ab:	e9 50 fc ff ff       	jmpq   8100 <_ZN7MeshBVH5buildEv+0x410>
    84b0:	4c 8d bc 24 50 01 00 	lea    0x150(%rsp),%r15
    84b7:	00 
    84b8:	48 8d 74 24 70       	lea    0x70(%rsp),%rsi
    84bd:	48 89 df             	mov    %rbx,%rdi
    84c0:	48 c7 84 24 50 01 00 	movq   $0x0,0x150(%rsp)
    84c7:	00 00 00 00 00 
    84cc:	48 c7 84 24 58 01 00 	movq   $0x0,0x158(%rsp)
    84d3:	00 00 00 00 00 
    84d8:	4c 89 fa             	mov    %r15,%rdx
    84db:	48 c7 84 24 60 01 00 	movq   $0x0,0x160(%rsp)
    84e2:	00 00 00 00 00 
    84e7:	48 c7 84 24 68 01 00 	movq   $0x0,0x168(%rsp)
    84ee:	00 00 00 00 00 
    84f3:	48 c7 84 24 70 01 00 	movq   $0x0,0x170(%rsp)
    84fa:	00 00 00 00 00 
    84ff:	48 c7 84 24 78 01 00 	movq   $0x0,0x178(%rsp)
    8506:	00 00 00 00 00 
    850b:	e8 b0 e2 ff ff       	callq  67c0 <_ZNK7MeshBVH20_split_centroids_sahERSt6vectorINS_8CentroidESaIS1_EEPS3_>
    8510:	48 8b 44 24 70       	mov    0x70(%rsp),%rax
    8515:	48 8b 53 08          	mov    0x8(%rbx),%rdx
    8519:	48 89 44 24 78       	mov    %rax,0x78(%rsp)
    851e:	48 8b 43 10          	mov    0x10(%rbx),%rax
    8522:	48 29 d0             	sub    %rdx,%rax
    8525:	48 c1 f8 05          	sar    $0x5,%rax
    8529:	89 c5                	mov    %eax,%ebp
    852b:	89 42 18             	mov    %eax,0x18(%rdx)
    852e:	48 8b 84 24 58 01 00 	mov    0x158(%rsp),%rax
    8535:	00 
    8536:	48 39 84 24 50 01 00 	cmp    %rax,0x150(%rsp)
    853d:	00 
    853e:	0f 84 22 17 00 00    	je     9c66 <_ZN7MeshBVH5buildEv+0x1f76>
    8544:	48 8b 73 10          	mov    0x10(%rbx),%rsi
    8548:	48 39 73 18          	cmp    %rsi,0x18(%rbx)
    854c:	48 b8 ff ff 7f 7f ff 	movabs $0x7f7fffff7f7fffff,%rax
    8553:	ff 7f 7f 
    8556:	48 89 84 24 40 02 00 	mov    %rax,0x240(%rsp)
    855d:	00 
    855e:	48 b8 ff ff 7f ff ff 	movabs $0xff7fffffff7fffff,%rax
    8565:	ff 7f ff 
    8568:	48 c7 84 24 58 02 00 	movq   $0x0,0x258(%rsp)
    856f:	00 00 00 00 00 
    8574:	c7 84 24 48 02 00 00 	movl   $0x7f7fffff,0x248(%rsp)
    857b:	ff ff 7f 7f 
    857f:	48 89 84 24 4c 02 00 	mov    %rax,0x24c(%rsp)
    8586:	00 
    8587:	c7 84 24 54 02 00 00 	movl   $0xff7fffff,0x254(%rsp)
    858e:	ff ff 7f ff 
    8592:	0f 84 7a 07 00 00    	je     8d12 <_ZN7MeshBVH5buildEv+0x1022>
    8598:	48 85 f6             	test   %rsi,%rsi
    859b:	74 1d                	je     85ba <_ZN7MeshBVH5buildEv+0x8ca>
    859d:	66 0f 6f 84 24 40 02 	movdqa 0x240(%rsp),%xmm0
    85a4:	00 00 
    85a6:	0f 11 06             	movups %xmm0,(%rsi)
    85a9:	66 0f 6f 84 24 50 02 	movdqa 0x250(%rsp),%xmm0
    85b0:	00 00 
    85b2:	0f 11 46 10          	movups %xmm0,0x10(%rsi)
    85b6:	48 8b 73 10          	mov    0x10(%rbx),%rsi
    85ba:	48 83 c6 20          	add    $0x20,%rsi
    85be:	48 89 73 10          	mov    %rsi,0x10(%rbx)
    85c2:	48 8b 84 24 68 01 00 	mov    0x168(%rsp),%rax
    85c9:	00 
    85ca:	48 39 84 24 70 01 00 	cmp    %rax,0x170(%rsp)
    85d1:	00 
    85d2:	0f 84 8e 16 00 00    	je     9c66 <_ZN7MeshBVH5buildEv+0x1f76>
    85d8:	48 8b 73 10          	mov    0x10(%rbx),%rsi
    85dc:	48 3b 73 18          	cmp    0x18(%rbx),%rsi
    85e0:	48 b8 ff ff 7f 7f ff 	movabs $0x7f7fffff7f7fffff,%rax
    85e7:	ff 7f 7f 
    85ea:	48 89 84 24 40 02 00 	mov    %rax,0x240(%rsp)
    85f1:	00 
    85f2:	48 b8 ff ff 7f ff ff 	movabs $0xff7fffffff7fffff,%rax
    85f9:	ff 7f ff 
    85fc:	48 c7 84 24 58 02 00 	movq   $0x0,0x258(%rsp)
    8603:	00 00 00 00 00 
    8608:	c7 84 24 48 02 00 00 	movl   $0x7f7fffff,0x248(%rsp)
    860f:	ff ff 7f 7f 
    8613:	48 89 84 24 4c 02 00 	mov    %rax,0x24c(%rsp)
    861a:	00 
    861b:	c7 84 24 54 02 00 00 	movl   $0xff7fffff,0x254(%rsp)
    8622:	ff ff 7f ff 
    8626:	0f 84 d0 06 00 00    	je     8cfc <_ZN7MeshBVH5buildEv+0x100c>
    862c:	48 85 f6             	test   %rsi,%rsi
    862f:	74 1d                	je     864e <_ZN7MeshBVH5buildEv+0x95e>
    8631:	66 0f 6f 84 24 40 02 	movdqa 0x240(%rsp),%xmm0
    8638:	00 00 
    863a:	0f 11 06             	movups %xmm0,(%rsi)
    863d:	66 0f 6f 84 24 50 02 	movdqa 0x250(%rsp),%xmm0
    8644:	00 00 
    8646:	0f 11 46 10          	movups %xmm0,0x10(%rsi)
    864a:	48 8b 73 10          	mov    0x10(%rbx),%rsi
    864e:	48 83 c6 20          	add    $0x20,%rsi
    8652:	48 89 73 10          	mov    %rsi,0x10(%rbx)
    8656:	48 8b 43 08          	mov    0x8(%rbx),%rax
    865a:	c6 40 1d 01          	movb   $0x1,0x1d(%rax)
    865e:	49 8d 47 30          	lea    0x30(%r15),%rax
    8662:	48 89 44 24 08       	mov    %rax,0x8(%rsp)
    8667:	48 8d 84 24 30 01 00 	lea    0x130(%rsp),%rax
    866e:	00 
    866f:	48 89 44 24 18       	mov    %rax,0x18(%rsp)
    8674:	49 8b 3f             	mov    (%r15),%rdi
    8677:	49 8b 77 08          	mov    0x8(%r15),%rsi
    867b:	8d 45 01             	lea    0x1(%rbp),%eax
    867e:	48 c1 e5 05          	shl    $0x5,%rbp
    8682:	89 44 24 38          	mov    %eax,0x38(%rsp)
    8686:	48 b8 cd cc cc cc cc 	movabs $0xcccccccccccccccd,%rax
    868d:	cc cc cc 
    8690:	48 29 fe             	sub    %rdi,%rsi
    8693:	48 c1 fe 03          	sar    $0x3,%rsi
    8697:	48 0f af f0          	imul   %rax,%rsi
    869b:	48 8b 43 08          	mov    0x8(%rbx),%rax
    869f:	48 01 e8             	add    %rbp,%rax
    86a2:	48 85 f6             	test   %rsi,%rsi
    86a5:	0f 84 a9 00 00 00    	je     8754 <_ZN7MeshBVH5buildEv+0xa64>
    86ab:	f3 0f 10 60 0c       	movss  0xc(%rax),%xmm4
    86b0:	31 d2                	xor    %edx,%edx
    86b2:	31 c9                	xor    %ecx,%ecx
    86b4:	f3 0f 10 58 10       	movss  0x10(%rax),%xmm3
    86b9:	f3 0f 10 70 14       	movss  0x14(%rax),%xmm6
    86be:	f3 0f 10 10          	movss  (%rax),%xmm2
    86c2:	f3 0f 10 48 04       	movss  0x4(%rax),%xmm1
    86c7:	f3 0f 10 40 08       	movss  0x8(%rax),%xmm0
    86cc:	0f 1f 40 00          	nopl   0x0(%rax)
    86d0:	48 8d 14 92          	lea    (%rdx,%rdx,4),%rdx
    86d4:	48 8d 14 d7          	lea    (%rdi,%rdx,8),%rdx
    86d8:	f3 0f 10 6a 10       	movss  0x10(%rdx),%xmm5
    86dd:	f3 0f 5d ea          	minss  %xmm2,%xmm5
    86e1:	0f 28 d5             	movaps %xmm5,%xmm2
    86e4:	f3 0f 10 6a 14       	movss  0x14(%rdx),%xmm5
    86e9:	f3 0f 5d e9          	minss  %xmm1,%xmm5
    86ed:	0f 28 cd             	movaps %xmm5,%xmm1
    86f0:	f3 0f 10 6a 18       	movss  0x18(%rdx),%xmm5
    86f5:	f3 0f 5d e8          	minss  %xmm0,%xmm5
    86f9:	f3 0f 11 10          	movss  %xmm2,(%rax)
    86fd:	f3 0f 11 48 04       	movss  %xmm1,0x4(%rax)
    8702:	f3 0f 11 68 08       	movss  %xmm5,0x8(%rax)
    8707:	0f 28 c5             	movaps %xmm5,%xmm0
    870a:	f3 0f 10 6a 1c       	movss  0x1c(%rdx),%xmm5
    870f:	f3 0f 5f ec          	maxss  %xmm4,%xmm5
    8713:	0f 28 e5             	movaps %xmm5,%xmm4
    8716:	f3 0f 10 6a 20       	movss  0x20(%rdx),%xmm5
    871b:	f3 0f 5f eb          	maxss  %xmm3,%xmm5
    871f:	0f 28 dd             	movaps %xmm5,%xmm3
    8722:	f3 0f 10 6a 24       	movss  0x24(%rdx),%xmm5
    8727:	0f 2e ee             	ucomiss %xmm6,%xmm5
    872a:	f3 0f 11 60 0c       	movss  %xmm4,0xc(%rax)
    872f:	f3 0f 11 58 10       	movss  %xmm3,0x10(%rax)
    8734:	0f 87 46 01 00 00    	ja     8880 <_ZN7MeshBVH5buildEv+0xb90>
    873a:	8d 51 01             	lea    0x1(%rcx),%edx
    873d:	f3 0f 11 70 14       	movss  %xmm6,0x14(%rax)
    8742:	48 39 f2             	cmp    %rsi,%rdx
    8745:	48 89 d1             	mov    %rdx,%rcx
    8748:	72 86                	jb     86d0 <_ZN7MeshBVH5buildEv+0x9e0>
    874a:	48 83 fe 08          	cmp    $0x8,%rsi
    874e:	0f 87 9f 01 00 00    	ja     88f3 <_ZN7MeshBVH5buildEv+0xc03>
    8754:	c6 40 1c 01          	movb   $0x1,0x1c(%rax)
    8758:	48 8b 43 28          	mov    0x28(%rbx),%rax
    875c:	48 b9 ab aa aa aa aa 	movabs $0xaaaaaaaaaaaaaaab,%rcx
    8763:	aa aa aa 
    8766:	48 2b 43 20          	sub    0x20(%rbx),%rax
    876a:	48 8b 53 08          	mov    0x8(%rbx),%rdx
    876e:	49 bd cd cc cc cc cc 	movabs $0xcccccccccccccccd,%r13
    8775:	cc cc cc 
    8778:	48 c1 f8 03          	sar    $0x3,%rax
    877c:	48 0f af c1          	imul   %rcx,%rax
    8780:	89 44 2a 18          	mov    %eax,0x18(%rdx,%rbp,1)
    8784:	49 8b 47 08          	mov    0x8(%r15),%rax
    8788:	49 2b 07             	sub    (%r15),%rax
    878b:	48 8b 53 08          	mov    0x8(%rbx),%rdx
    878f:	48 c1 f8 03          	sar    $0x3,%rax
    8793:	49 0f af c5          	imul   %r13,%rax
    8797:	83 e8 01             	sub    $0x1,%eax
    879a:	88 44 2a 1d          	mov    %al,0x1d(%rdx,%rbp,1)
    879e:	49 8b 4f 08          	mov    0x8(%r15),%rcx
    87a2:	49 3b 0f             	cmp    (%r15),%rcx
    87a5:	0f 84 e5 fb ff ff    	je     8390 <_ZN7MeshBVH5buildEv+0x6a0>
    87ab:	48 8d 84 24 b0 00 00 	lea    0xb0(%rsp),%rax
    87b2:	00 
    87b3:	48 8b 73 28          	mov    0x28(%rbx),%rsi
    87b7:	4c 8d 73 20          	lea    0x20(%rbx),%r14
    87bb:	31 ed                	xor    %ebp,%ebp
    87bd:	45 31 e4             	xor    %r12d,%r12d
    87c0:	48 89 44 24 10       	mov    %rax,0x10(%rsp)
    87c5:	e9 8b 00 00 00       	jmpq   8855 <_ZN7MeshBVH5buildEv+0xb65>
    87ca:	66 0f 1f 44 00 00    	nopw   0x0(%rax,%rax,1)
    87d0:	48 85 f6             	test   %rsi,%rsi
    87d3:	74 18                	je     87ed <_ZN7MeshBVH5buildEv+0xafd>
    87d5:	66 0f 6f 84 24 b0 00 	movdqa 0xb0(%rsp),%xmm0
    87dc:	00 00 
    87de:	0f 11 06             	movups %xmm0,(%rsi)
    87e1:	48 8b 84 24 c0 00 00 	mov    0xc0(%rsp),%rax
    87e8:	00 
    87e9:	48 89 46 10          	mov    %rax,0x10(%rsi)
    87ed:	48 83 c6 18          	add    $0x18,%rsi
    87f1:	48 89 73 28          	mov    %rsi,0x28(%rbx)
    87f5:	49 8b 3f             	mov    (%r15),%rdi
    87f8:	48 8d 44 ad 00       	lea    0x0(%rbp,%rbp,4),%rax
    87fd:	4c 8b 0b             	mov    (%rbx),%r9
    8800:	41 8d 6c 24 01       	lea    0x1(%r12),%ebp
    8805:	8b 04 c7             	mov    (%rdi,%rax,8),%eax
    8808:	49 89 ec             	mov    %rbp,%r12
    880b:	48 8d 14 40          	lea    (%rax,%rax,2),%rdx
    880f:	49 8b 01             	mov    (%r9),%rax
    8812:	4c 8d 04 95 00 00 00 	lea    0x0(,%rdx,4),%r8
    8819:	00 
    881a:	4c 8b 14 90          	mov    (%rax,%rdx,4),%r10
    881e:	4c 89 56 e8          	mov    %r10,-0x18(%rsi)
    8822:	42 8b 44 00 08       	mov    0x8(%rax,%r8,1),%eax
    8827:	89 46 f0             	mov    %eax,-0x10(%rsi)
    882a:	49 8b 41 18          	mov    0x18(%r9),%rax
    882e:	48 8b 14 90          	mov    (%rax,%rdx,4),%rdx
    8832:	48 89 56 f4          	mov    %rdx,-0xc(%rsi)
    8836:	42 8b 44 00 08       	mov    0x8(%rax,%r8,1),%eax
    883b:	89 46 fc             	mov    %eax,-0x4(%rsi)
    883e:	48 89 c8             	mov    %rcx,%rax
    8841:	48 29 f8             	sub    %rdi,%rax
    8844:	48 c1 f8 03          	sar    $0x3,%rax
    8848:	49 0f af c5          	imul   %r13,%rax
    884c:	48 39 c5             	cmp    %rax,%rbp
    884f:	0f 83 3b fb ff ff    	jae    8390 <_ZN7MeshBVH5buildEv+0x6a0>
    8855:	48 39 73 30          	cmp    %rsi,0x30(%rbx)
    8859:	0f 85 71 ff ff ff    	jne    87d0 <_ZN7MeshBVH5buildEv+0xae0>
    885f:	48 8b 54 24 10       	mov    0x10(%rsp),%rdx
    8864:	4c 89 f7             	mov    %r14,%rdi
    8867:	e8 74 e9 ff ff       	callq  71e0 <_ZNSt6vectorIN7MeshBVH8TriangleESaIS1_EE17_M_realloc_insertIJS1_EEEvN9__gnu_cxx17__normal_iteratorIPS1_S3_EEDpOT_>
    886c:	48 8b 73 28          	mov    0x28(%rbx),%rsi
    8870:	49 8b 4f 08          	mov    0x8(%r15),%rcx
    8874:	e9 7c ff ff ff       	jmpq   87f5 <_ZN7MeshBVH5buildEv+0xb05>
    8879:	0f 1f 80 00 00 00 00 	nopl   0x0(%rax)
    8880:	8d 51 01             	lea    0x1(%rcx),%edx
    8883:	f3 0f 11 68 14       	movss  %xmm5,0x14(%rax)
    8888:	48 39 f2             	cmp    %rsi,%rdx
    888b:	48 89 d1             	mov    %rdx,%rcx
    888e:	0f 83 b6 fe ff ff    	jae    874a <_ZN7MeshBVH5buildEv+0xa5a>
    8894:	0f 28 f5             	movaps %xmm5,%xmm6
    8897:	e9 34 fe ff ff       	jmpq   86d0 <_ZN7MeshBVH5buildEv+0x9e0>
    889c:	0f 1f 40 00          	nopl   0x0(%rax)
    88a0:	c6 42 1c 01          	movb   $0x1,0x1c(%rdx)
    88a4:	48 8b 43 28          	mov    0x28(%rbx),%rax
    88a8:	48 b9 ab aa aa aa aa 	movabs $0xaaaaaaaaaaaaaaab,%rcx
    88af:	aa aa aa 
    88b2:	48 2b 43 20          	sub    0x20(%rbx),%rax
    88b6:	48 8b 53 08          	mov    0x8(%rbx),%rdx
    88ba:	48 c1 f8 03          	sar    $0x3,%rax
    88be:	48 0f af c1          	imul   %rcx,%rax
    88c2:	89 42 18             	mov    %eax,0x18(%rdx)
    88c5:	48 8b 43 08          	mov    0x8(%rbx),%rax
    88c9:	c6 40 1d ff          	movb   $0xff,0x1d(%rax)
    88cd:	48 8b 73 28          	mov    0x28(%rbx),%rsi
    88d1:	e9 fa fa ff ff       	jmpq   83d0 <_ZN7MeshBVH5buildEv+0x6e0>
    88d6:	66 2e 0f 1f 84 00 00 	nopw   %cs:0x0(%rax,%rax,1)
    88dd:	00 00 00 
    88e0:	48 c7 44 24 78 00 00 	movq   $0x0,0x78(%rsp)
    88e7:	00 00 
    88e9:	45 31 c0             	xor    %r8d,%r8d
    88ec:	31 c0                	xor    %eax,%eax
    88ee:	e9 7d f7 ff ff       	jmpq   8070 <_ZN7MeshBVH5buildEv+0x380>
    88f3:	4c 8d a4 24 80 01 00 	lea    0x180(%rsp),%r12
    88fa:	00 
    88fb:	4c 89 fe             	mov    %r15,%rsi
    88fe:	48 89 df             	mov    %rbx,%rdi
    8901:	48 c7 84 24 80 01 00 	movq   $0x0,0x180(%rsp)
    8908:	00 00 00 00 00 
    890d:	48 c7 84 24 88 01 00 	movq   $0x0,0x188(%rsp)
    8914:	00 00 00 00 00 
    8919:	4c 89 e2             	mov    %r12,%rdx
    891c:	48 c7 84 24 90 01 00 	movq   $0x0,0x190(%rsp)
    8923:	00 00 00 00 00 
    8928:	48 c7 84 24 98 01 00 	movq   $0x0,0x198(%rsp)
    892f:	00 00 00 00 00 
    8934:	48 c7 84 24 a0 01 00 	movq   $0x0,0x1a0(%rsp)
    893b:	00 00 00 00 00 
    8940:	48 c7 84 24 a8 01 00 	movq   $0x0,0x1a8(%rsp)
    8947:	00 00 00 00 00 
    894c:	e8 6f de ff ff       	callq  67c0 <_ZNK7MeshBVH20_split_centroids_sahERSt6vectorINS_8CentroidESaIS1_EEPS3_>
    8951:	49 8b 07             	mov    (%r15),%rax
    8954:	48 8b 53 08          	mov    0x8(%rbx),%rdx
    8958:	49 89 47 08          	mov    %rax,0x8(%r15)
    895c:	48 8b 43 10          	mov    0x10(%rbx),%rax
    8960:	48 29 d0             	sub    %rdx,%rax
    8963:	48 c1 f8 05          	sar    $0x5,%rax
    8967:	41 89 c5             	mov    %eax,%r13d
    896a:	89 44 2a 18          	mov    %eax,0x18(%rdx,%rbp,1)
    896e:	48 8b 84 24 80 01 00 	mov    0x180(%rsp),%rax
    8975:	00 
    8976:	48 39 84 24 88 01 00 	cmp    %rax,0x188(%rsp)
    897d:	00 
    897e:	0f 84 e2 12 00 00    	je     9c66 <_ZN7MeshBVH5buildEv+0x1f76>
    8984:	48 8b 73 10          	mov    0x10(%rbx),%rsi
    8988:	48 3b 73 18          	cmp    0x18(%rbx),%rsi
    898c:	48 b8 ff ff 7f 7f ff 	movabs $0x7f7fffff7f7fffff,%rax
    8993:	ff 7f 7f 
    8996:	48 89 84 24 40 02 00 	mov    %rax,0x240(%rsp)
    899d:	00 
    899e:	48 b8 ff ff 7f ff ff 	movabs $0xff7fffffff7fffff,%rax
    89a5:	ff 7f ff 
    89a8:	48 c7 84 24 58 02 00 	movq   $0x0,0x258(%rsp)
    89af:	00 00 00 00 00 
    89b4:	c7 84 24 48 02 00 00 	movl   $0x7f7fffff,0x248(%rsp)
    89bb:	ff ff 7f 7f 
    89bf:	48 89 84 24 4c 02 00 	mov    %rax,0x24c(%rsp)
    89c6:	00 
    89c7:	c7 84 24 54 02 00 00 	movl   $0xff7fffff,0x254(%rsp)
    89ce:	ff ff 7f ff 
    89d2:	0f 84 e9 02 00 00    	je     8cc1 <_ZN7MeshBVH5buildEv+0xfd1>
    89d8:	48 85 f6             	test   %rsi,%rsi
    89db:	74 1d                	je     89fa <_ZN7MeshBVH5buildEv+0xd0a>
    89dd:	66 0f 6f 84 24 40 02 	movdqa 0x240(%rsp),%xmm0
    89e4:	00 00 
    89e6:	0f 11 06             	movups %xmm0,(%rsi)
    89e9:	66 0f 6f 84 24 50 02 	movdqa 0x250(%rsp),%xmm0
    89f0:	00 00 
    89f2:	0f 11 46 10          	movups %xmm0,0x10(%rsi)
    89f6:	48 8b 73 10          	mov    0x10(%rbx),%rsi
    89fa:	48 83 c6 20          	add    $0x20,%rsi
    89fe:	48 89 73 10          	mov    %rsi,0x10(%rbx)
    8a02:	48 8b 84 24 98 01 00 	mov    0x198(%rsp),%rax
    8a09:	00 
    8a0a:	48 39 84 24 a0 01 00 	cmp    %rax,0x1a0(%rsp)
    8a11:	00 
    8a12:	0f 84 4e 12 00 00    	je     9c66 <_ZN7MeshBVH5buildEv+0x1f76>
    8a18:	48 8b 73 10          	mov    0x10(%rbx),%rsi
    8a1c:	48 3b 73 18          	cmp    0x18(%rbx),%rsi
    8a20:	48 b8 ff ff 7f 7f ff 	movabs $0x7f7fffff7f7fffff,%rax
    8a27:	ff 7f 7f 
    8a2a:	48 89 84 24 40 02 00 	mov    %rax,0x240(%rsp)
    8a31:	00 
    8a32:	48 b8 ff ff 7f ff ff 	movabs $0xff7fffffff7fffff,%rax
    8a39:	ff 7f ff 
    8a3c:	48 c7 84 24 58 02 00 	movq   $0x0,0x258(%rsp)
    8a43:	00 00 00 00 00 
    8a48:	c7 84 24 48 02 00 00 	movl   $0x7f7fffff,0x248(%rsp)
    8a4f:	ff ff 7f 7f 
    8a53:	48 89 84 24 4c 02 00 	mov    %rax,0x24c(%rsp)
    8a5a:	00 
    8a5b:	c7 84 24 54 02 00 00 	movl   $0xff7fffff,0x254(%rsp)
    8a62:	ff ff 7f ff 
    8a66:	0f 84 49 09 00 00    	je     93b5 <_ZN7MeshBVH5buildEv+0x16c5>
    8a6c:	48 85 f6             	test   %rsi,%rsi
    8a6f:	74 1d                	je     8a8e <_ZN7MeshBVH5buildEv+0xd9e>
    8a71:	66 0f 6f 84 24 40 02 	movdqa 0x240(%rsp),%xmm0
    8a78:	00 00 
    8a7a:	0f 11 06             	movups %xmm0,(%rsi)
    8a7d:	66 0f 6f 84 24 50 02 	movdqa 0x250(%rsp),%xmm0
    8a84:	00 00 
    8a86:	0f 11 46 10          	movups %xmm0,0x10(%rsi)
    8a8a:	48 8b 73 10          	mov    0x10(%rbx),%rsi
    8a8e:	48 83 c6 20          	add    $0x20,%rsi
    8a92:	48 89 73 10          	mov    %rsi,0x10(%rbx)
    8a96:	48 8b 43 08          	mov    0x8(%rbx),%rax
    8a9a:	c6 44 28 1d 01       	movb   $0x1,0x1d(%rax,%rbp,1)
    8a9f:	49 8d 44 24 30       	lea    0x30(%r12),%rax
    8aa4:	48 89 44 24 28       	mov    %rax,0x28(%rsp)
    8aa9:	49 8b 3c 24          	mov    (%r12),%rdi
    8aad:	49 8b 74 24 08       	mov    0x8(%r12),%rsi
    8ab2:	41 8d 45 01          	lea    0x1(%r13),%eax
    8ab6:	44 89 ed             	mov    %r13d,%ebp
    8ab9:	89 44 24 10          	mov    %eax,0x10(%rsp)
    8abd:	48 b8 cd cc cc cc cc 	movabs $0xcccccccccccccccd,%rax
    8ac4:	cc cc cc 
    8ac7:	48 c1 e5 05          	shl    $0x5,%rbp
    8acb:	48 29 fe             	sub    %rdi,%rsi
    8ace:	48 c1 fe 03          	sar    $0x3,%rsi
    8ad2:	48 0f af f0          	imul   %rax,%rsi
    8ad6:	48 8b 43 08          	mov    0x8(%rbx),%rax
    8ada:	48 01 e8             	add    %rbp,%rax
    8add:	48 85 f6             	test   %rsi,%rsi
    8ae0:	0f 84 ae 00 00 00    	je     8b94 <_ZN7MeshBVH5buildEv+0xea4>
    8ae6:	f3 0f 10 60 0c       	movss  0xc(%rax),%xmm4
    8aeb:	31 d2                	xor    %edx,%edx
    8aed:	31 c9                	xor    %ecx,%ecx
    8aef:	f3 0f 10 58 10       	movss  0x10(%rax),%xmm3
    8af4:	f3 0f 10 70 14       	movss  0x14(%rax),%xmm6
    8af9:	f3 0f 10 10          	movss  (%rax),%xmm2
    8afd:	f3 0f 10 48 04       	movss  0x4(%rax),%xmm1
    8b02:	f3 0f 10 40 08       	movss  0x8(%rax),%xmm0
    8b07:	66 0f 1f 84 00 00 00 	nopw   0x0(%rax,%rax,1)
    8b0e:	00 00 
    8b10:	48 8d 14 92          	lea    (%rdx,%rdx,4),%rdx
    8b14:	48 8d 14 d7          	lea    (%rdi,%rdx,8),%rdx
    8b18:	f3 0f 10 6a 10       	movss  0x10(%rdx),%xmm5
    8b1d:	f3 0f 5d ea          	minss  %xmm2,%xmm5
    8b21:	0f 28 d5             	movaps %xmm5,%xmm2
    8b24:	f3 0f 10 6a 14       	movss  0x14(%rdx),%xmm5
    8b29:	f3 0f 5d e9          	minss  %xmm1,%xmm5
    8b2d:	0f 28 cd             	movaps %xmm5,%xmm1
    8b30:	f3 0f 10 6a 18       	movss  0x18(%rdx),%xmm5
    8b35:	f3 0f 5d e8          	minss  %xmm0,%xmm5
    8b39:	f3 0f 11 10          	movss  %xmm2,(%rax)
    8b3d:	f3 0f 11 48 04       	movss  %xmm1,0x4(%rax)
    8b42:	f3 0f 11 68 08       	movss  %xmm5,0x8(%rax)
    8b47:	0f 28 c5             	movaps %xmm5,%xmm0
    8b4a:	f3 0f 10 6a 1c       	movss  0x1c(%rdx),%xmm5
    8b4f:	f3 0f 5f ec          	maxss  %xmm4,%xmm5
    8b53:	0f 28 e5             	movaps %xmm5,%xmm4
    8b56:	f3 0f 10 6a 20       	movss  0x20(%rdx),%xmm5
    8b5b:	f3 0f 5f eb          	maxss  %xmm3,%xmm5
    8b5f:	0f 28 dd             	movaps %xmm5,%xmm3
    8b62:	f3 0f 10 6a 24       	movss  0x24(%rdx),%xmm5
    8b67:	0f 2e ee             	ucomiss %xmm6,%xmm5
    8b6a:	f3 0f 11 60 0c       	movss  %xmm4,0xc(%rax)
    8b6f:	f3 0f 11 58 10       	movss  %xmm3,0x10(%rax)
    8b74:	0f 87 66 01 00 00    	ja     8ce0 <_ZN7MeshBVH5buildEv+0xff0>
    8b7a:	8d 51 01             	lea    0x1(%rcx),%edx
    8b7d:	f3 0f 11 70 14       	movss  %xmm6,0x14(%rax)
    8b82:	48 39 f2             	cmp    %rsi,%rdx
    8b85:	48 89 d1             	mov    %rdx,%rcx
    8b88:	72 86                	jb     8b10 <_ZN7MeshBVH5buildEv+0xe20>
    8b8a:	48 83 fe 08          	cmp    $0x8,%rsi
    8b8e:	0f 87 94 01 00 00    	ja     8d28 <_ZN7MeshBVH5buildEv+0x1038>
    8b94:	c6 40 1c 01          	movb   $0x1,0x1c(%rax)
    8b98:	48 8b 43 28          	mov    0x28(%rbx),%rax
    8b9c:	48 b9 ab aa aa aa aa 	movabs $0xaaaaaaaaaaaaaaab,%rcx
    8ba3:	aa aa aa 
    8ba6:	48 2b 43 20          	sub    0x20(%rbx),%rax
    8baa:	48 8b 53 08          	mov    0x8(%rbx),%rdx
    8bae:	49 be cd cc cc cc cc 	movabs $0xcccccccccccccccd,%r14
    8bb5:	cc cc cc 
    8bb8:	48 c1 f8 03          	sar    $0x3,%rax
    8bbc:	48 0f af c1          	imul   %rcx,%rax
    8bc0:	89 44 2a 18          	mov    %eax,0x18(%rdx,%rbp,1)
    8bc4:	49 8b 44 24 08       	mov    0x8(%r12),%rax
    8bc9:	49 2b 04 24          	sub    (%r12),%rax
    8bcd:	48 8b 53 08          	mov    0x8(%rbx),%rdx
    8bd1:	48 c1 f8 03          	sar    $0x3,%rax
    8bd5:	49 0f af c6          	imul   %r14,%rax
    8bd9:	83 e8 01             	sub    $0x1,%eax
    8bdc:	88 44 2a 1d          	mov    %al,0x1d(%rdx,%rbp,1)
    8be0:	49 8b 3c 24          	mov    (%r12),%rdi
    8be4:	49 3b 7c 24 08       	cmp    0x8(%r12),%rdi
    8be9:	0f 84 61 f7 ff ff    	je     8350 <_ZN7MeshBVH5buildEv+0x660>
    8bef:	48 8d 43 20          	lea    0x20(%rbx),%rax
    8bf3:	48 8b 73 28          	mov    0x28(%rbx),%rsi
    8bf7:	31 ed                	xor    %ebp,%ebp
    8bf9:	45 31 ed             	xor    %r13d,%r13d
    8bfc:	48 89 44 24 20       	mov    %rax,0x20(%rsp)
    8c01:	48 8d 84 24 d0 00 00 	lea    0xd0(%rsp),%rax
    8c08:	00 
    8c09:	48 89 44 24 30       	mov    %rax,0x30(%rsp)
    8c0e:	e9 88 00 00 00       	jmpq   8c9b <_ZN7MeshBVH5buildEv+0xfab>
    8c13:	0f 1f 44 00 00       	nopl   0x0(%rax,%rax,1)
    8c18:	48 85 f6             	test   %rsi,%rsi
    8c1b:	74 18                	je     8c35 <_ZN7MeshBVH5buildEv+0xf45>
    8c1d:	66 0f 6f 84 24 d0 00 	movdqa 0xd0(%rsp),%xmm0
    8c24:	00 00 
    8c26:	0f 11 06             	movups %xmm0,(%rsi)
    8c29:	48 8b 84 24 e0 00 00 	mov    0xe0(%rsp),%rax
    8c30:	00 
    8c31:	48 89 46 10          	mov    %rax,0x10(%rsi)
    8c35:	48 83 c6 18          	add    $0x18,%rsi
    8c39:	48 89 73 28          	mov    %rsi,0x28(%rbx)
    8c3d:	48 8d 44 ad 00       	lea    0x0(%rbp,%rbp,4),%rax
    8c42:	48 8b 0b             	mov    (%rbx),%rcx
    8c45:	41 8d 6d 01          	lea    0x1(%r13),%ebp
    8c49:	8b 04 c7             	mov    (%rdi,%rax,8),%eax
    8c4c:	49 89 ed             	mov    %rbp,%r13
    8c4f:	4c 8b 01             	mov    (%rcx),%r8
    8c52:	48 8b 49 18          	mov    0x18(%rcx),%rcx
    8c56:	48 8d 04 40          	lea    (%rax,%rax,2),%rax
    8c5a:	4d 8b 0c 80          	mov    (%r8,%rax,4),%r9
    8c5e:	48 8d 14 85 00 00 00 	lea    0x0(,%rax,4),%rdx
    8c65:	00 
    8c66:	4c 89 4e e8          	mov    %r9,-0x18(%rsi)
    8c6a:	45 8b 44 10 08       	mov    0x8(%r8,%rdx,1),%r8d
    8c6f:	44 89 46 f0          	mov    %r8d,-0x10(%rsi)
    8c73:	48 8b 04 81          	mov    (%rcx,%rax,4),%rax
    8c77:	48 89 46 f4          	mov    %rax,-0xc(%rsi)
    8c7b:	8b 44 11 08          	mov    0x8(%rcx,%rdx,1),%eax
    8c7f:	89 46 fc             	mov    %eax,-0x4(%rsi)
    8c82:	49 8b 44 24 08       	mov    0x8(%r12),%rax
    8c87:	48 29 f8             	sub    %rdi,%rax
    8c8a:	48 c1 f8 03          	sar    $0x3,%rax
    8c8e:	49 0f af c6          	imul   %r14,%rax
    8c92:	48 39 c5             	cmp    %rax,%rbp
    8c95:	0f 83 b5 f6 ff ff    	jae    8350 <_ZN7MeshBVH5buildEv+0x660>
    8c9b:	48 39 73 30          	cmp    %rsi,0x30(%rbx)
    8c9f:	0f 85 73 ff ff ff    	jne    8c18 <_ZN7MeshBVH5buildEv+0xf28>
    8ca5:	48 8b 54 24 30       	mov    0x30(%rsp),%rdx
    8caa:	48 8b 7c 24 20       	mov    0x20(%rsp),%rdi
    8caf:	e8 2c e5 ff ff       	callq  71e0 <_ZNSt6vectorIN7MeshBVH8TriangleESaIS1_EE17_M_realloc_insertIJS1_EEEvN9__gnu_cxx17__normal_iteratorIPS1_S3_EEDpOT_>
    8cb4:	48 8b 73 28          	mov    0x28(%rbx),%rsi
    8cb8:	49 8b 3c 24          	mov    (%r12),%rdi
    8cbc:	e9 7c ff ff ff       	jmpq   8c3d <_ZN7MeshBVH5buildEv+0xf4d>
    8cc1:	48 8b 3c 24          	mov    (%rsp),%rdi
    8cc5:	48 8d 94 24 40 02 00 	lea    0x240(%rsp),%rdx
    8ccc:	00 
    8ccd:	e8 4e e3 ff ff       	callq  7020 <_ZNSt6vectorIN7MeshBVH4NodeESaIS1_EE17_M_realloc_insertIJS1_EEEvN9__gnu_cxx17__normal_iteratorIPS1_S3_EEDpOT_>
    8cd2:	e9 2b fd ff ff       	jmpq   8a02 <_ZN7MeshBVH5buildEv+0xd12>
    8cd7:	66 0f 1f 84 00 00 00 	nopw   0x0(%rax,%rax,1)
    8cde:	00 00 
    8ce0:	8d 51 01             	lea    0x1(%rcx),%edx
    8ce3:	f3 0f 11 68 14       	movss  %xmm5,0x14(%rax)
    8ce8:	48 39 f2             	cmp    %rsi,%rdx
    8ceb:	48 89 d1             	mov    %rdx,%rcx
    8cee:	0f 83 96 fe ff ff    	jae    8b8a <_ZN7MeshBVH5buildEv+0xe9a>
    8cf4:	0f 28 f5             	movaps %xmm5,%xmm6
    8cf7:	e9 14 fe ff ff       	jmpq   8b10 <_ZN7MeshBVH5buildEv+0xe20>
    8cfc:	48 8b 3c 24          	mov    (%rsp),%rdi
    8d00:	48 8d 94 24 40 02 00 	lea    0x240(%rsp),%rdx
    8d07:	00 
    8d08:	e8 13 e3 ff ff       	callq  7020 <_ZNSt6vectorIN7MeshBVH4NodeESaIS1_EE17_M_realloc_insertIJS1_EEEvN9__gnu_cxx17__normal_iteratorIPS1_S3_EEDpOT_>
    8d0d:	e9 44 f9 ff ff       	jmpq   8656 <_ZN7MeshBVH5buildEv+0x966>
    8d12:	48 8b 3c 24          	mov    (%rsp),%rdi
    8d16:	48 8d 94 24 40 02 00 	lea    0x240(%rsp),%rdx
    8d1d:	00 
    8d1e:	e8 fd e2 ff ff       	callq  7020 <_ZNSt6vectorIN7MeshBVH4NodeESaIS1_EE17_M_realloc_insertIJS1_EEEvN9__gnu_cxx17__normal_iteratorIPS1_S3_EEDpOT_>
    8d23:	e9 9a f8 ff ff       	jmpq   85c2 <_ZN7MeshBVH5buildEv+0x8d2>
    8d28:	4c 8d ac 24 b0 01 00 	lea    0x1b0(%rsp),%r13
    8d2f:	00 
    8d30:	4c 89 e6             	mov    %r12,%rsi
    8d33:	48 89 df             	mov    %rbx,%rdi
    8d36:	48 c7 84 24 b0 01 00 	movq   $0x0,0x1b0(%rsp)
    8d3d:	00 00 00 00 00 
    8d42:	48 c7 84 24 b8 01 00 	movq   $0x0,0x1b8(%rsp)
    8d49:	00 00 00 00 00 
    8d4e:	4c 89 ea             	mov    %r13,%rdx
    8d51:	48 c7 84 24 c0 01 00 	movq   $0x0,0x1c0(%rsp)
    8d58:	00 00 00 00 00 
    8d5d:	48 c7 84 24 c8 01 00 	movq   $0x0,0x1c8(%rsp)
    8d64:	00 00 00 00 00 
    8d69:	48 c7 84 24 d0 01 00 	movq   $0x0,0x1d0(%rsp)
    8d70:	00 00 00 00 00 
    8d75:	48 c7 84 24 d8 01 00 	movq   $0x0,0x1d8(%rsp)
    8d7c:	00 00 00 00 00 
    8d81:	e8 3a da ff ff       	callq  67c0 <_ZNK7MeshBVH20_split_centroids_sahERSt6vectorINS_8CentroidESaIS1_EEPS3_>
    8d86:	49 8b 04 24          	mov    (%r12),%rax
    8d8a:	48 8b 53 08          	mov    0x8(%rbx),%rdx
    8d8e:	49 89 44 24 08       	mov    %rax,0x8(%r12)
    8d93:	48 8b 43 10          	mov    0x10(%rbx),%rax
    8d97:	48 29 d0             	sub    %rdx,%rax
    8d9a:	48 c1 f8 05          	sar    $0x5,%rax
    8d9e:	41 89 c6             	mov    %eax,%r14d
    8da1:	89 44 2a 18          	mov    %eax,0x18(%rdx,%rbp,1)
    8da5:	48 8b 84 24 b0 01 00 	mov    0x1b0(%rsp),%rax
    8dac:	00 
    8dad:	48 39 84 24 b8 01 00 	cmp    %rax,0x1b8(%rsp)
    8db4:	00 
    8db5:	0f 84 ab 0e 00 00    	je     9c66 <_ZN7MeshBVH5buildEv+0x1f76>
    8dbb:	48 8b 73 10          	mov    0x10(%rbx),%rsi
    8dbf:	48 3b 73 18          	cmp    0x18(%rbx),%rsi
    8dc3:	48 b8 ff ff 7f 7f ff 	movabs $0x7f7fffff7f7fffff,%rax
    8dca:	ff 7f 7f 
    8dcd:	48 89 84 24 40 02 00 	mov    %rax,0x240(%rsp)
    8dd4:	00 
    8dd5:	48 b8 ff ff 7f ff ff 	movabs $0xff7fffffff7fffff,%rax
    8ddc:	ff 7f ff 
    8ddf:	48 c7 84 24 58 02 00 	movq   $0x0,0x258(%rsp)
    8de6:	00 00 00 00 00 
    8deb:	c7 84 24 48 02 00 00 	movl   $0x7f7fffff,0x248(%rsp)
    8df2:	ff ff 7f 7f 
    8df6:	48 89 84 24 4c 02 00 	mov    %rax,0x24c(%rsp)
    8dfd:	00 
    8dfe:	c7 84 24 54 02 00 00 	movl   $0xff7fffff,0x254(%rsp)
    8e05:	ff ff 7f ff 
    8e09:	0f 84 ac 0d 00 00    	je     9bbb <_ZN7MeshBVH5buildEv+0x1ecb>
    8e0f:	48 85 f6             	test   %rsi,%rsi
    8e12:	74 1d                	je     8e31 <_ZN7MeshBVH5buildEv+0x1141>
    8e14:	66 0f 6f 84 24 40 02 	movdqa 0x240(%rsp),%xmm0
    8e1b:	00 00 
    8e1d:	0f 11 06             	movups %xmm0,(%rsi)
    8e20:	66 0f 6f 84 24 50 02 	movdqa 0x250(%rsp),%xmm0
    8e27:	00 00 
    8e29:	0f 11 46 10          	movups %xmm0,0x10(%rsi)
    8e2d:	48 8b 73 10          	mov    0x10(%rbx),%rsi
    8e31:	48 83 c6 20          	add    $0x20,%rsi
    8e35:	48 89 73 10          	mov    %rsi,0x10(%rbx)
    8e39:	48 8b 84 24 c8 01 00 	mov    0x1c8(%rsp),%rax
    8e40:	00 
    8e41:	48 39 84 24 d0 01 00 	cmp    %rax,0x1d0(%rsp)
    8e48:	00 
    8e49:	0f 84 17 0e 00 00    	je     9c66 <_ZN7MeshBVH5buildEv+0x1f76>
    8e4f:	48 8b 73 10          	mov    0x10(%rbx),%rsi
    8e53:	48 3b 73 18          	cmp    0x18(%rbx),%rsi
    8e57:	48 b8 ff ff 7f 7f ff 	movabs $0x7f7fffff7f7fffff,%rax
    8e5e:	ff 7f 7f 
    8e61:	48 89 84 24 40 02 00 	mov    %rax,0x240(%rsp)
    8e68:	00 
    8e69:	48 b8 ff ff 7f ff ff 	movabs $0xff7fffffff7fffff,%rax
    8e70:	ff 7f ff 
    8e73:	48 c7 84 24 58 02 00 	movq   $0x0,0x258(%rsp)
    8e7a:	00 00 00 00 00 
    8e7f:	c7 84 24 48 02 00 00 	movl   $0x7f7fffff,0x248(%rsp)
    8e86:	ff ff 7f 7f 
    8e8a:	48 89 84 24 4c 02 00 	mov    %rax,0x24c(%rsp)
    8e91:	00 
    8e92:	c7 84 24 54 02 00 00 	movl   $0xff7fffff,0x254(%rsp)
    8e99:	ff ff 7f ff 
    8e9d:	0f 84 02 0d 00 00    	je     9ba5 <_ZN7MeshBVH5buildEv+0x1eb5>
    8ea3:	48 85 f6             	test   %rsi,%rsi
    8ea6:	74 1d                	je     8ec5 <_ZN7MeshBVH5buildEv+0x11d5>
    8ea8:	66 0f 6f 84 24 40 02 	movdqa 0x240(%rsp),%xmm0
    8eaf:	00 00 
    8eb1:	0f 11 06             	movups %xmm0,(%rsi)
    8eb4:	66 0f 6f 84 24 50 02 	movdqa 0x250(%rsp),%xmm0
    8ebb:	00 00 
    8ebd:	0f 11 46 10          	movups %xmm0,0x10(%rsi)
    8ec1:	48 8b 73 10          	mov    0x10(%rbx),%rsi
    8ec5:	48 83 c6 20          	add    $0x20,%rsi
    8ec9:	48 89 73 10          	mov    %rsi,0x10(%rbx)
    8ecd:	48 8b 43 08          	mov    0x8(%rbx),%rax
    8ed1:	c6 44 28 1d 01       	movb   $0x1,0x1d(%rax,%rbp,1)
    8ed6:	49 8d 45 30          	lea    0x30(%r13),%rax
    8eda:	48 89 44 24 40       	mov    %rax,0x40(%rsp)
    8edf:	49 8b 7d 00          	mov    0x0(%r13),%rdi
    8ee3:	49 8b 75 08          	mov    0x8(%r13),%rsi
    8ee7:	41 8d 46 01          	lea    0x1(%r14),%eax
    8eeb:	48 8b 53 08          	mov    0x8(%rbx),%rdx
    8eef:	44 89 f5             	mov    %r14d,%ebp
    8ef2:	89 44 24 3c          	mov    %eax,0x3c(%rsp)
    8ef6:	48 b8 cd cc cc cc cc 	movabs $0xcccccccccccccccd,%rax
    8efd:	cc cc cc 
    8f00:	48 c1 e5 05          	shl    $0x5,%rbp
    8f04:	48 29 fe             	sub    %rdi,%rsi
    8f07:	48 c1 fe 03          	sar    $0x3,%rsi
    8f0b:	48 01 ea             	add    %rbp,%rdx
    8f0e:	48 0f af f0          	imul   %rax,%rsi
    8f12:	48 85 f6             	test   %rsi,%rsi
    8f15:	0f 84 a9 00 00 00    	je     8fc4 <_ZN7MeshBVH5buildEv+0x12d4>
    8f1b:	f3 0f 10 62 0c       	movss  0xc(%rdx),%xmm4
    8f20:	31 c0                	xor    %eax,%eax
    8f22:	31 c9                	xor    %ecx,%ecx
    8f24:	f3 0f 10 5a 10       	movss  0x10(%rdx),%xmm3
    8f29:	f3 0f 10 72 14       	movss  0x14(%rdx),%xmm6
    8f2e:	f3 0f 10 12          	movss  (%rdx),%xmm2
    8f32:	f3 0f 10 4a 04       	movss  0x4(%rdx),%xmm1
    8f37:	f3 0f 10 42 08       	movss  0x8(%rdx),%xmm0
    8f3c:	0f 1f 40 00          	nopl   0x0(%rax)
    8f40:	48 8d 04 80          	lea    (%rax,%rax,4),%rax
    8f44:	48 8d 04 c7          	lea    (%rdi,%rax,8),%rax
    8f48:	f3 0f 10 68 10       	movss  0x10(%rax),%xmm5
    8f4d:	f3 0f 5d ea          	minss  %xmm2,%xmm5
    8f51:	0f 28 d5             	movaps %xmm5,%xmm2
    8f54:	f3 0f 10 68 14       	movss  0x14(%rax),%xmm5
    8f59:	f3 0f 5d e9          	minss  %xmm1,%xmm5
    8f5d:	0f 28 cd             	movaps %xmm5,%xmm1
    8f60:	f3 0f 10 68 18       	movss  0x18(%rax),%xmm5
    8f65:	f3 0f 5d e8          	minss  %xmm0,%xmm5
    8f69:	f3 0f 11 12          	movss  %xmm2,(%rdx)
    8f6d:	f3 0f 11 4a 04       	movss  %xmm1,0x4(%rdx)
    8f72:	f3 0f 11 6a 08       	movss  %xmm5,0x8(%rdx)
    8f77:	0f 28 c5             	movaps %xmm5,%xmm0
    8f7a:	f3 0f 10 68 1c       	movss  0x1c(%rax),%xmm5
    8f7f:	f3 0f 5f ec          	maxss  %xmm4,%xmm5
    8f83:	0f 28 e5             	movaps %xmm5,%xmm4
    8f86:	f3 0f 10 68 20       	movss  0x20(%rax),%xmm5
    8f8b:	f3 0f 5f eb          	maxss  %xmm3,%xmm5
    8f8f:	0f 28 dd             	movaps %xmm5,%xmm3
    8f92:	f3 0f 10 68 24       	movss  0x24(%rax),%xmm5
    8f97:	0f 2e ee             	ucomiss %xmm6,%xmm5
    8f9a:	f3 0f 11 62 0c       	movss  %xmm4,0xc(%rdx)
    8f9f:	f3 0f 11 5a 10       	movss  %xmm3,0x10(%rdx)
    8fa4:	0f 87 56 01 00 00    	ja     9100 <_ZN7MeshBVH5buildEv+0x1410>
    8faa:	8d 41 01             	lea    0x1(%rcx),%eax
    8fad:	f3 0f 11 72 14       	movss  %xmm6,0x14(%rdx)
    8fb2:	48 39 c6             	cmp    %rax,%rsi
    8fb5:	48 89 c1             	mov    %rax,%rcx
    8fb8:	77 86                	ja     8f40 <_ZN7MeshBVH5buildEv+0x1250>
    8fba:	48 83 fe 08          	cmp    $0x8,%rsi
    8fbe:	0f 87 07 04 00 00    	ja     93cb <_ZN7MeshBVH5buildEv+0x16db>
    8fc4:	c6 42 1c 01          	movb   $0x1,0x1c(%rdx)
    8fc8:	48 8b 43 28          	mov    0x28(%rbx),%rax
    8fcc:	48 b9 ab aa aa aa aa 	movabs $0xaaaaaaaaaaaaaaab,%rcx
    8fd3:	aa aa aa 
    8fd6:	48 2b 43 20          	sub    0x20(%rbx),%rax
    8fda:	48 8b 53 08          	mov    0x8(%rbx),%rdx
    8fde:	48 c1 f8 03          	sar    $0x3,%rax
    8fe2:	48 0f af c1          	imul   %rcx,%rax
    8fe6:	89 44 2a 18          	mov    %eax,0x18(%rdx,%rbp,1)
    8fea:	49 8b 45 08          	mov    0x8(%r13),%rax
    8fee:	48 ba cd cc cc cc cc 	movabs $0xcccccccccccccccd,%rdx
    8ff5:	cc cc cc 
    8ff8:	49 2b 45 00          	sub    0x0(%r13),%rax
    8ffc:	48 8b 4b 08          	mov    0x8(%rbx),%rcx
    9000:	48 c1 f8 03          	sar    $0x3,%rax
    9004:	48 0f af c2          	imul   %rdx,%rax
    9008:	83 e8 01             	sub    $0x1,%eax
    900b:	88 44 29 1d          	mov    %al,0x1d(%rcx,%rbp,1)
    900f:	49 8b 7d 00          	mov    0x0(%r13),%rdi
    9013:	49 3b 7d 08          	cmp    0x8(%r13),%rdi
    9017:	0f 84 7f 03 00 00    	je     939c <_ZN7MeshBVH5buildEv+0x16ac>
    901d:	48 8d 43 20          	lea    0x20(%rbx),%rax
    9021:	48 8b 73 28          	mov    0x28(%rbx),%rsi
    9025:	31 ed                	xor    %ebp,%ebp
    9027:	45 31 f6             	xor    %r14d,%r14d
    902a:	48 89 54 24 20       	mov    %rdx,0x20(%rsp)
    902f:	48 89 44 24 30       	mov    %rax,0x30(%rsp)
    9034:	48 8d 84 24 f0 00 00 	lea    0xf0(%rsp),%rax
    903b:	00 
    903c:	48 89 44 24 48       	mov    %rax,0x48(%rsp)
    9041:	e9 8e 00 00 00       	jmpq   90d4 <_ZN7MeshBVH5buildEv+0x13e4>
    9046:	66 2e 0f 1f 84 00 00 	nopw   %cs:0x0(%rax,%rax,1)
    904d:	00 00 00 
    9050:	48 85 f6             	test   %rsi,%rsi
    9053:	74 18                	je     906d <_ZN7MeshBVH5buildEv+0x137d>
    9055:	66 0f 6f 84 24 f0 00 	movdqa 0xf0(%rsp),%xmm0
    905c:	00 00 
    905e:	0f 11 06             	movups %xmm0,(%rsi)
    9061:	48 8b 84 24 00 01 00 	mov    0x100(%rsp),%rax
    9068:	00 
    9069:	48 89 46 10          	mov    %rax,0x10(%rsi)
    906d:	48 83 c6 18          	add    $0x18,%rsi
    9071:	48 89 73 28          	mov    %rsi,0x28(%rbx)
    9075:	48 8d 44 ad 00       	lea    0x0(%rbp,%rbp,4),%rax
    907a:	48 8b 0b             	mov    (%rbx),%rcx
    907d:	41 8d 6e 01          	lea    0x1(%r14),%ebp
    9081:	8b 04 c7             	mov    (%rdi,%rax,8),%eax
    9084:	49 89 ee             	mov    %rbp,%r14
    9087:	4c 8b 01             	mov    (%rcx),%r8
    908a:	48 8b 49 18          	mov    0x18(%rcx),%rcx
    908e:	48 8d 04 40          	lea    (%rax,%rax,2),%rax
    9092:	4d 8b 0c 80          	mov    (%r8,%rax,4),%r9
    9096:	48 8d 14 85 00 00 00 	lea    0x0(,%rax,4),%rdx
    909d:	00 
    909e:	4c 89 4e e8          	mov    %r9,-0x18(%rsi)
    90a2:	45 8b 44 10 08       	mov    0x8(%r8,%rdx,1),%r8d
    90a7:	44 89 46 f0          	mov    %r8d,-0x10(%rsi)
    90ab:	48 8b 04 81          	mov    (%rcx,%rax,4),%rax
    90af:	48 89 46 f4          	mov    %rax,-0xc(%rsi)
    90b3:	8b 44 11 08          	mov    0x8(%rcx,%rdx,1),%eax
    90b7:	89 46 fc             	mov    %eax,-0x4(%rsi)
    90ba:	49 8b 45 08          	mov    0x8(%r13),%rax
    90be:	48 29 f8             	sub    %rdi,%rax
    90c1:	48 c1 f8 03          	sar    $0x3,%rax
    90c5:	48 0f af 44 24 20    	imul   0x20(%rsp),%rax
    90cb:	48 39 c5             	cmp    %rax,%rbp
    90ce:	0f 83 c8 02 00 00    	jae    939c <_ZN7MeshBVH5buildEv+0x16ac>
    90d4:	48 39 73 30          	cmp    %rsi,0x30(%rbx)
    90d8:	0f 85 72 ff ff ff    	jne    9050 <_ZN7MeshBVH5buildEv+0x1360>
    90de:	48 8b 54 24 48       	mov    0x48(%rsp),%rdx
    90e3:	48 8b 7c 24 30       	mov    0x30(%rsp),%rdi
    90e8:	e8 f3 e0 ff ff       	callq  71e0 <_ZNSt6vectorIN7MeshBVH8TriangleESaIS1_EE17_M_realloc_insertIJS1_EEEvN9__gnu_cxx17__normal_iteratorIPS1_S3_EEDpOT_>
    90ed:	48 8b 73 28          	mov    0x28(%rbx),%rsi
    90f1:	49 8b 7d 00          	mov    0x0(%r13),%rdi
    90f5:	e9 7b ff ff ff       	jmpq   9075 <_ZN7MeshBVH5buildEv+0x1385>
    90fa:	66 0f 1f 44 00 00    	nopw   0x0(%rax,%rax,1)
    9100:	8d 41 01             	lea    0x1(%rcx),%eax
    9103:	f3 0f 11 6a 14       	movss  %xmm5,0x14(%rdx)
    9108:	48 39 c6             	cmp    %rax,%rsi
    910b:	48 89 c1             	mov    %rax,%rcx
    910e:	0f 86 a6 fe ff ff    	jbe    8fba <_ZN7MeshBVH5buildEv+0x12ca>
    9114:	0f 28 f5             	movaps %xmm5,%xmm6
    9117:	e9 24 fe ff ff       	jmpq   8f40 <_ZN7MeshBVH5buildEv+0x1250>
    911c:	48 8d 84 24 40 02 00 	lea    0x240(%rsp),%rax
    9123:	00 
    9124:	48 89 ee             	mov    %rbp,%rsi
    9127:	48 89 df             	mov    %rbx,%rdi
    912a:	48 c7 84 24 40 02 00 	movq   $0x0,0x240(%rsp)
    9131:	00 00 00 00 00 
    9136:	48 c7 84 24 48 02 00 	movq   $0x0,0x248(%rsp)
    913d:	00 00 00 00 00 
    9142:	48 89 c2             	mov    %rax,%rdx
    9145:	48 c7 84 24 50 02 00 	movq   $0x0,0x250(%rsp)
    914c:	00 00 00 00 00 
    9151:	48 c7 84 24 58 02 00 	movq   $0x0,0x258(%rsp)
    9158:	00 00 00 00 00 
    915d:	48 c7 84 24 60 02 00 	movq   $0x0,0x260(%rsp)
    9164:	00 00 00 00 00 
    9169:	48 c7 84 24 68 02 00 	movq   $0x0,0x268(%rsp)
    9170:	00 00 00 00 00 
    9175:	48 89 44 24 30       	mov    %rax,0x30(%rsp)
    917a:	e8 41 d6 ff ff       	callq  67c0 <_ZNK7MeshBVH20_split_centroids_sahERSt6vectorINS_8CentroidESaIS1_EEPS3_>
    917f:	48 8b 45 00          	mov    0x0(%rbp),%rax
    9183:	48 8b 53 08          	mov    0x8(%rbx),%rdx
    9187:	48 8b 7c 24 20       	mov    0x20(%rsp),%rdi
    918c:	48 89 45 08          	mov    %rax,0x8(%rbp)
    9190:	48 8b 43 10          	mov    0x10(%rbx),%rax
    9194:	48 29 d0             	sub    %rdx,%rax
    9197:	48 c1 f8 05          	sar    $0x5,%rax
    919b:	89 44 3a 18          	mov    %eax,0x18(%rdx,%rdi,1)
    919f:	48 89 44 24 60       	mov    %rax,0x60(%rsp)
    91a4:	48 8b 84 24 40 02 00 	mov    0x240(%rsp),%rax
    91ab:	00 
    91ac:	48 39 84 24 48 02 00 	cmp    %rax,0x248(%rsp)
    91b3:	00 
    91b4:	0f 84 ac 0a 00 00    	je     9c66 <_ZN7MeshBVH5buildEv+0x1f76>
    91ba:	48 8b 73 10          	mov    0x10(%rbx),%rsi
    91be:	48 3b 73 18          	cmp    0x18(%rbx),%rsi
    91c2:	48 b8 ff ff 7f 7f ff 	movabs $0x7f7fffff7f7fffff,%rax
    91c9:	ff 7f 7f 
    91cc:	48 89 84 24 30 01 00 	mov    %rax,0x130(%rsp)
    91d3:	00 
    91d4:	48 b8 ff ff 7f ff ff 	movabs $0xff7fffffff7fffff,%rax
    91db:	ff 7f ff 
    91de:	48 c7 84 24 48 01 00 	movq   $0x0,0x148(%rsp)
    91e5:	00 00 00 00 00 
    91ea:	c7 84 24 38 01 00 00 	movl   $0x7f7fffff,0x138(%rsp)
    91f1:	ff ff 7f 7f 
    91f5:	48 89 84 24 3c 01 00 	mov    %rax,0x13c(%rsp)
    91fc:	00 
    91fd:	c7 84 24 44 01 00 00 	movl   $0xff7fffff,0x144(%rsp)
    9204:	ff ff 7f ff 
    9208:	0f 84 48 0b 00 00    	je     9d56 <_ZN7MeshBVH5buildEv+0x2066>
    920e:	48 85 f6             	test   %rsi,%rsi
    9211:	74 19                	je     922c <_ZN7MeshBVH5buildEv+0x153c>
    9213:	66 0f 6f 84 24 30 01 	movdqa 0x130(%rsp),%xmm0
    921a:	00 00 
    921c:	0f 11 06             	movups %xmm0,(%rsi)
    921f:	66 0f 6f 84 24 40 01 	movdqa 0x140(%rsp),%xmm0
    9226:	00 00 
    9228:	0f 11 46 10          	movups %xmm0,0x10(%rsi)
    922c:	48 83 43 10 20       	addq   $0x20,0x10(%rbx)
    9231:	48 8b 84 24 58 02 00 	mov    0x258(%rsp),%rax
    9238:	00 
    9239:	48 39 84 24 60 02 00 	cmp    %rax,0x260(%rsp)
    9240:	00 
    9241:	0f 84 1f 0a 00 00    	je     9c66 <_ZN7MeshBVH5buildEv+0x1f76>
    9247:	48 8b 73 10          	mov    0x10(%rbx),%rsi
    924b:	48 3b 73 18          	cmp    0x18(%rbx),%rsi
    924f:	48 b8 ff ff 7f 7f ff 	movabs $0x7f7fffff7f7fffff,%rax
    9256:	ff 7f 7f 
    9259:	48 89 84 24 30 01 00 	mov    %rax,0x130(%rsp)
    9260:	00 
    9261:	48 b8 ff ff 7f ff ff 	movabs $0xff7fffffff7fffff,%rax
    9268:	ff 7f ff 
    926b:	48 c7 84 24 48 01 00 	movq   $0x0,0x148(%rsp)
    9272:	00 00 00 00 00 
    9277:	c7 84 24 38 01 00 00 	movl   $0x7f7fffff,0x138(%rsp)
    927e:	ff ff 7f 7f 
    9282:	48 89 84 24 3c 01 00 	mov    %rax,0x13c(%rsp)
    9289:	00 
    928a:	c7 84 24 44 01 00 00 	movl   $0xff7fffff,0x144(%rsp)
    9291:	ff ff 7f ff 
    9295:	0f 84 a8 0a 00 00    	je     9d43 <_ZN7MeshBVH5buildEv+0x2053>
    929b:	48 85 f6             	test   %rsi,%rsi
    929e:	74 19                	je     92b9 <_ZN7MeshBVH5buildEv+0x15c9>
    92a0:	66 0f 6f 84 24 30 01 	movdqa 0x130(%rsp),%xmm0
    92a7:	00 00 
    92a9:	0f 11 06             	movups %xmm0,(%rsi)
    92ac:	66 0f 6f 84 24 40 01 	movdqa 0x140(%rsp),%xmm0
    92b3:	00 00 
    92b5:	0f 11 46 10          	movups %xmm0,0x10(%rsi)
    92b9:	48 83 43 10 20       	addq   $0x20,0x10(%rbx)
    92be:	31 c9                	xor    %ecx,%ecx
    92c0:	48 8b 7c 24 20       	mov    0x20(%rsp),%rdi
    92c5:	48 8b 43 08          	mov    0x8(%rbx),%rax
    92c9:	48 8b 54 24 30       	mov    0x30(%rsp),%rdx
    92ce:	c6 44 38 1d 01       	movb   $0x1,0x1d(%rax,%rdi,1)
    92d3:	48 8b 44 24 60       	mov    0x60(%rsp),%rax
    92d8:	89 c7                	mov    %eax,%edi
    92da:	89 c6                	mov    %eax,%esi
    92dc:	83 c7 01             	add    $0x1,%edi
    92df:	89 7c 24 20          	mov    %edi,0x20(%rsp)
    92e3:	48 89 df             	mov    %rbx,%rdi
    92e6:	e8 c5 e0 ff ff       	callq  73b0 <_ZN7MeshBVH6_buildEjRSt6vectorINS_8CentroidESaIS1_EEj>
    92eb:	48 8b 54 24 30       	mov    0x30(%rsp),%rdx
    92f0:	8b 74 24 20          	mov    0x20(%rsp),%esi
    92f4:	31 c9                	xor    %ecx,%ecx
    92f6:	48 89 df             	mov    %rbx,%rdi
    92f9:	48 83 c2 18          	add    $0x18,%rdx
    92fd:	e8 ae e0 ff ff       	callq  73b0 <_ZN7MeshBVH6_buildEjRSt6vectorINS_8CentroidESaIS1_EEj>
    9302:	48 8b bc 24 58 02 00 	mov    0x258(%rsp),%rdi
    9309:	00 
    930a:	48 85 ff             	test   %rdi,%rdi
    930d:	74 05                	je     9314 <_ZN7MeshBVH5buildEv+0x1624>
    930f:	e8 fc 8b ff ff       	callq  1f10 <_ZdlPv@plt>
    9314:	48 8b bc 24 40 02 00 	mov    0x240(%rsp),%rdi
    931b:	00 
    931c:	48 85 ff             	test   %rdi,%rdi
    931f:	74 05                	je     9326 <_ZN7MeshBVH5buildEv+0x1636>
    9321:	e8 ea 8b ff ff       	callq  1f10 <_ZdlPv@plt>
    9326:	48 83 c5 18          	add    $0x18,%rbp
    932a:	8b 44 24 50          	mov    0x50(%rsp),%eax
    932e:	48 3b 6c 24 58       	cmp    0x58(%rsp),%rbp
    9333:	89 44 24 20          	mov    %eax,0x20(%rsp)
    9337:	0f 85 2f 06 00 00    	jne    996c <_ZN7MeshBVH5buildEv+0x1c7c>
    933d:	48 8b bc 24 28 02 00 	mov    0x228(%rsp),%rdi
    9344:	00 
    9345:	48 85 ff             	test   %rdi,%rdi
    9348:	74 05                	je     934f <_ZN7MeshBVH5buildEv+0x165f>
    934a:	e8 c1 8b ff ff       	callq  1f10 <_ZdlPv@plt>
    934f:	48 8b bc 24 10 02 00 	mov    0x210(%rsp),%rdi
    9356:	00 
    9357:	48 85 ff             	test   %rdi,%rdi
    935a:	74 05                	je     9361 <_ZN7MeshBVH5buildEv+0x1671>
    935c:	e8 af 8b ff ff       	callq  1f10 <_ZdlPv@plt>
    9361:	49 83 c6 18          	add    $0x18,%r14
    9365:	4c 3b 74 24 68       	cmp    0x68(%rsp),%r14
    936a:	8b 44 24 48          	mov    0x48(%rsp),%eax
    936e:	89 44 24 20          	mov    %eax,0x20(%rsp)
    9372:	0f 85 0e 02 00 00    	jne    9586 <_ZN7MeshBVH5buildEv+0x1896>
    9378:	48 8b bc 24 f8 01 00 	mov    0x1f8(%rsp),%rdi
    937f:	00 
    9380:	48 85 ff             	test   %rdi,%rdi
    9383:	74 05                	je     938a <_ZN7MeshBVH5buildEv+0x169a>
    9385:	e8 86 8b ff ff       	callq  1f10 <_ZdlPv@plt>
    938a:	48 8b bc 24 e0 01 00 	mov    0x1e0(%rsp),%rdi
    9391:	00 
    9392:	48 85 ff             	test   %rdi,%rdi
    9395:	74 05                	je     939c <_ZN7MeshBVH5buildEv+0x16ac>
    9397:	e8 74 8b ff ff       	callq  1f10 <_ZdlPv@plt>
    939c:	49 83 c5 18          	add    $0x18,%r13
    93a0:	4c 39 6c 24 40       	cmp    %r13,0x40(%rsp)
    93a5:	0f 84 79 ef ff ff    	je     8324 <_ZN7MeshBVH5buildEv+0x634>
    93ab:	44 8b 74 24 3c       	mov    0x3c(%rsp),%r14d
    93b0:	e9 2a fb ff ff       	jmpq   8edf <_ZN7MeshBVH5buildEv+0x11ef>
    93b5:	48 8b 3c 24          	mov    (%rsp),%rdi
    93b9:	48 8d 94 24 40 02 00 	lea    0x240(%rsp),%rdx
    93c0:	00 
    93c1:	e8 5a dc ff ff       	callq  7020 <_ZNSt6vectorIN7MeshBVH4NodeESaIS1_EE17_M_realloc_insertIJS1_EEEvN9__gnu_cxx17__normal_iteratorIPS1_S3_EEDpOT_>
    93c6:	e9 cb f6 ff ff       	jmpq   8a96 <_ZN7MeshBVH5buildEv+0xda6>
    93cb:	4c 8d b4 24 e0 01 00 	lea    0x1e0(%rsp),%r14
    93d2:	00 
    93d3:	4c 89 ee             	mov    %r13,%rsi
    93d6:	48 89 df             	mov    %rbx,%rdi
    93d9:	48 c7 84 24 e0 01 00 	movq   $0x0,0x1e0(%rsp)
    93e0:	00 00 00 00 00 
    93e5:	48 c7 84 24 e8 01 00 	movq   $0x0,0x1e8(%rsp)
    93ec:	00 00 00 00 00 
    93f1:	4c 89 f2             	mov    %r14,%rdx
    93f4:	48 c7 84 24 f0 01 00 	movq   $0x0,0x1f0(%rsp)
    93fb:	00 00 00 00 00 
    9400:	48 c7 84 24 f8 01 00 	movq   $0x0,0x1f8(%rsp)
    9407:	00 00 00 00 00 
    940c:	48 c7 84 24 00 02 00 	movq   $0x0,0x200(%rsp)
    9413:	00 00 00 00 00 
    9418:	48 c7 84 24 08 02 00 	movq   $0x0,0x208(%rsp)
    941f:	00 00 00 00 00 
    9424:	e8 97 d3 ff ff       	callq  67c0 <_ZNK7MeshBVH20_split_centroids_sahERSt6vectorINS_8CentroidESaIS1_EEPS3_>
    9429:	49 8b 45 00          	mov    0x0(%r13),%rax
    942d:	48 8b 53 08          	mov    0x8(%rbx),%rdx
    9431:	49 89 45 08          	mov    %rax,0x8(%r13)
    9435:	48 8b 43 10          	mov    0x10(%rbx),%rax
    9439:	48 29 d0             	sub    %rdx,%rax
    943c:	48 c1 f8 05          	sar    $0x5,%rax
    9440:	89 44 24 20          	mov    %eax,0x20(%rsp)
    9444:	89 44 2a 18          	mov    %eax,0x18(%rdx,%rbp,1)
    9448:	48 8b 84 24 e0 01 00 	mov    0x1e0(%rsp),%rax
    944f:	00 
    9450:	48 39 84 24 e8 01 00 	cmp    %rax,0x1e8(%rsp)
    9457:	00 
    9458:	0f 84 08 08 00 00    	je     9c66 <_ZN7MeshBVH5buildEv+0x1f76>
    945e:	48 8b 73 10          	mov    0x10(%rbx),%rsi
    9462:	48 3b 73 18          	cmp    0x18(%rbx),%rsi
    9466:	48 b8 ff ff 7f 7f ff 	movabs $0x7f7fffff7f7fffff,%rax
    946d:	ff 7f 7f 
    9470:	48 89 84 24 40 02 00 	mov    %rax,0x240(%rsp)
    9477:	00 
    9478:	48 b8 ff ff 7f ff ff 	movabs $0xff7fffffff7fffff,%rax
    947f:	ff 7f ff 
    9482:	48 c7 84 24 58 02 00 	movq   $0x0,0x258(%rsp)
    9489:	00 00 00 00 00 
    948e:	c7 84 24 48 02 00 00 	movl   $0x7f7fffff,0x248(%rsp)
    9495:	ff ff 7f 7f 
    9499:	48 89 84 24 4c 02 00 	mov    %rax,0x24c(%rsp)
    94a0:	00 
    94a1:	c7 84 24 54 02 00 00 	movl   $0xff7fffff,0x254(%rsp)
    94a8:	ff ff 7f ff 
    94ac:	0f 84 ee 07 00 00    	je     9ca0 <_ZN7MeshBVH5buildEv+0x1fb0>
    94b2:	48 85 f6             	test   %rsi,%rsi
    94b5:	74 1d                	je     94d4 <_ZN7MeshBVH5buildEv+0x17e4>
    94b7:	66 0f 6f 84 24 40 02 	movdqa 0x240(%rsp),%xmm0
    94be:	00 00 
    94c0:	0f 11 06             	movups %xmm0,(%rsi)
    94c3:	66 0f 6f 84 24 50 02 	movdqa 0x250(%rsp),%xmm0
    94ca:	00 00 
    94cc:	0f 11 46 10          	movups %xmm0,0x10(%rsi)
    94d0:	48 8b 73 10          	mov    0x10(%rbx),%rsi
    94d4:	48 83 c6 20          	add    $0x20,%rsi
    94d8:	48 89 73 10          	mov    %rsi,0x10(%rbx)
    94dc:	48 8b 84 24 f8 01 00 	mov    0x1f8(%rsp),%rax
    94e3:	00 
    94e4:	48 39 84 24 00 02 00 	cmp    %rax,0x200(%rsp)
    94eb:	00 
    94ec:	0f 84 74 07 00 00    	je     9c66 <_ZN7MeshBVH5buildEv+0x1f76>
    94f2:	48 8b 73 10          	mov    0x10(%rbx),%rsi
    94f6:	48 3b 73 18          	cmp    0x18(%rbx),%rsi
    94fa:	48 b8 ff ff 7f 7f ff 	movabs $0x7f7fffff7f7fffff,%rax
    9501:	ff 7f 7f 
    9504:	48 89 84 24 40 02 00 	mov    %rax,0x240(%rsp)
    950b:	00 
    950c:	48 b8 ff ff 7f ff ff 	movabs $0xff7fffffff7fffff,%rax
    9513:	ff 7f ff 
    9516:	48 c7 84 24 58 02 00 	movq   $0x0,0x258(%rsp)
    951d:	00 00 00 00 00 
    9522:	c7 84 24 48 02 00 00 	movl   $0x7f7fffff,0x248(%rsp)
    9529:	ff ff 7f 7f 
    952d:	48 89 84 24 4c 02 00 	mov    %rax,0x24c(%rsp)
    9534:	00 
    9535:	c7 84 24 54 02 00 00 	movl   $0xff7fffff,0x254(%rsp)
    953c:	ff ff 7f ff 
    9540:	0f 84 44 07 00 00    	je     9c8a <_ZN7MeshBVH5buildEv+0x1f9a>
    9546:	48 85 f6             	test   %rsi,%rsi
    9549:	74 1d                	je     9568 <_ZN7MeshBVH5buildEv+0x1878>
    954b:	66 0f 6f 84 24 40 02 	movdqa 0x240(%rsp),%xmm0
    9552:	00 00 
    9554:	0f 11 06             	movups %xmm0,(%rsi)
    9557:	66 0f 6f 84 24 50 02 	movdqa 0x250(%rsp),%xmm0
    955e:	00 00 
    9560:	0f 11 46 10          	movups %xmm0,0x10(%rsi)
    9564:	48 8b 73 10          	mov    0x10(%rbx),%rsi
    9568:	48 83 c6 20          	add    $0x20,%rsi
    956c:	48 89 73 10          	mov    %rsi,0x10(%rbx)
    9570:	48 8b 43 08          	mov    0x8(%rbx),%rax
    9574:	c6 44 28 1d 01       	movb   $0x1,0x1d(%rax,%rbp,1)
    9579:	49 8d 46 30          	lea    0x30(%r14),%rax
    957d:	48 89 44 24 68       	mov    %rax,0x68(%rsp)
    9582:	8b 44 24 20          	mov    0x20(%rsp),%eax
    9586:	8d 78 01             	lea    0x1(%rax),%edi
    9589:	49 8b 4e 08          	mov    0x8(%r14),%rcx
    958d:	48 be cd cc cc cc cc 	movabs $0xcccccccccccccccd,%rsi
    9594:	cc cc cc 
    9597:	89 c5                	mov    %eax,%ebp
    9599:	48 8b 43 08          	mov    0x8(%rbx),%rax
    959d:	89 7c 24 48          	mov    %edi,0x48(%rsp)
    95a1:	49 8b 3e             	mov    (%r14),%rdi
    95a4:	48 c1 e5 05          	shl    $0x5,%rbp
    95a8:	48 01 e8             	add    %rbp,%rax
    95ab:	48 29 f9             	sub    %rdi,%rcx
    95ae:	48 c1 f9 03          	sar    $0x3,%rcx
    95b2:	48 0f af ce          	imul   %rsi,%rcx
    95b6:	48 85 c9             	test   %rcx,%rcx
    95b9:	0f 84 a5 00 00 00    	je     9664 <_ZN7MeshBVH5buildEv+0x1974>
    95bf:	f3 0f 10 60 0c       	movss  0xc(%rax),%xmm4
    95c4:	31 d2                	xor    %edx,%edx
    95c6:	31 f6                	xor    %esi,%esi
    95c8:	f3 0f 10 58 10       	movss  0x10(%rax),%xmm3
    95cd:	f3 0f 10 70 14       	movss  0x14(%rax),%xmm6
    95d2:	f3 0f 10 10          	movss  (%rax),%xmm2
    95d6:	f3 0f 10 48 04       	movss  0x4(%rax),%xmm1
    95db:	f3 0f 10 40 08       	movss  0x8(%rax),%xmm0
    95e0:	48 8d 14 92          	lea    (%rdx,%rdx,4),%rdx
    95e4:	48 8d 14 d7          	lea    (%rdi,%rdx,8),%rdx
    95e8:	f3 0f 10 6a 10       	movss  0x10(%rdx),%xmm5
    95ed:	f3 0f 5d ea          	minss  %xmm2,%xmm5
    95f1:	0f 28 d5             	movaps %xmm5,%xmm2
    95f4:	f3 0f 10 6a 14       	movss  0x14(%rdx),%xmm5
    95f9:	f3 0f 5d e9          	minss  %xmm1,%xmm5
    95fd:	0f 28 cd             	movaps %xmm5,%xmm1
    9600:	f3 0f 10 6a 18       	movss  0x18(%rdx),%xmm5
    9605:	f3 0f 5d e8          	minss  %xmm0,%xmm5
    9609:	f3 0f 11 10          	movss  %xmm2,(%rax)
    960d:	f3 0f 11 48 04       	movss  %xmm1,0x4(%rax)
    9612:	f3 0f 11 68 08       	movss  %xmm5,0x8(%rax)
    9617:	0f 28 c5             	movaps %xmm5,%xmm0
    961a:	f3 0f 10 6a 1c       	movss  0x1c(%rdx),%xmm5
    961f:	f3 0f 5f ec          	maxss  %xmm4,%xmm5
    9623:	0f 28 e5             	movaps %xmm5,%xmm4
    9626:	f3 0f 10 6a 20       	movss  0x20(%rdx),%xmm5
    962b:	f3 0f 5f eb          	maxss  %xmm3,%xmm5
    962f:	0f 28 dd             	movaps %xmm5,%xmm3
    9632:	f3 0f 10 6a 24       	movss  0x24(%rdx),%xmm5
    9637:	0f 2e ee             	ucomiss %xmm6,%xmm5
    963a:	f3 0f 11 60 0c       	movss  %xmm4,0xc(%rax)
    963f:	f3 0f 11 58 10       	movss  %xmm3,0x10(%rax)
    9644:	0f 87 50 01 00 00    	ja     979a <_ZN7MeshBVH5buildEv+0x1aaa>
    964a:	8d 56 01             	lea    0x1(%rsi),%edx
    964d:	f3 0f 11 70 14       	movss  %xmm6,0x14(%rax)
    9652:	48 39 d1             	cmp    %rdx,%rcx
    9655:	48 89 d6             	mov    %rdx,%rsi
    9658:	77 86                	ja     95e0 <_ZN7MeshBVH5buildEv+0x18f0>
    965a:	48 83 f9 08          	cmp    $0x8,%rcx
    965e:	0f 87 52 01 00 00    	ja     97b6 <_ZN7MeshBVH5buildEv+0x1ac6>
    9664:	c6 40 1c 01          	movb   $0x1,0x1c(%rax)
    9668:	48 8b 43 28          	mov    0x28(%rbx),%rax
    966c:	48 b9 ab aa aa aa aa 	movabs $0xaaaaaaaaaaaaaaab,%rcx
    9673:	aa aa aa 
    9676:	48 2b 43 20          	sub    0x20(%rbx),%rax
    967a:	48 8b 53 08          	mov    0x8(%rbx),%rdx
    967e:	48 bf cd cc cc cc cc 	movabs $0xcccccccccccccccd,%rdi
    9685:	cc cc cc 
    9688:	48 c1 f8 03          	sar    $0x3,%rax
    968c:	48 0f af c1          	imul   %rcx,%rax
    9690:	89 44 2a 18          	mov    %eax,0x18(%rdx,%rbp,1)
    9694:	49 8b 46 08          	mov    0x8(%r14),%rax
    9698:	49 2b 06             	sub    (%r14),%rax
    969b:	48 8b 53 08          	mov    0x8(%rbx),%rdx
    969f:	48 c1 f8 03          	sar    $0x3,%rax
    96a3:	48 0f af c7          	imul   %rdi,%rax
    96a7:	83 e8 01             	sub    $0x1,%eax
    96aa:	88 44 2a 1d          	mov    %al,0x1d(%rdx,%rbp,1)
    96ae:	4d 8b 46 08          	mov    0x8(%r14),%r8
    96b2:	4d 3b 06             	cmp    (%r14),%r8
    96b5:	0f 84 a6 fc ff ff    	je     9361 <_ZN7MeshBVH5buildEv+0x1671>
    96bb:	48 8d 43 20          	lea    0x20(%rbx),%rax
    96bf:	48 8b 73 28          	mov    0x28(%rbx),%rsi
    96c3:	31 ed                	xor    %ebp,%ebp
    96c5:	c7 44 24 20 00 00 00 	movl   $0x0,0x20(%rsp)
    96cc:	00 
    96cd:	48 89 44 24 30       	mov    %rax,0x30(%rsp)
    96d2:	48 8d 84 24 10 01 00 	lea    0x110(%rsp),%rax
    96d9:	00 
    96da:	48 89 44 24 50       	mov    %rax,0x50(%rsp)
    96df:	e9 90 00 00 00       	jmpq   9774 <_ZN7MeshBVH5buildEv+0x1a84>
    96e4:	48 85 f6             	test   %rsi,%rsi
    96e7:	74 18                	je     9701 <_ZN7MeshBVH5buildEv+0x1a11>
    96e9:	66 0f 6f 84 24 10 01 	movdqa 0x110(%rsp),%xmm0
    96f0:	00 00 
    96f2:	0f 11 06             	movups %xmm0,(%rsi)
    96f5:	48 8b 84 24 20 01 00 	mov    0x120(%rsp),%rax
    96fc:	00 
    96fd:	48 89 46 10          	mov    %rax,0x10(%rsi)
    9701:	48 83 c6 18          	add    $0x18,%rsi
    9705:	48 89 73 28          	mov    %rsi,0x28(%rbx)
    9709:	49 8b 16             	mov    (%r14),%rdx
    970c:	48 8d 44 ad 00       	lea    0x0(%rbp,%rbp,4),%rax
    9711:	48 8b 3b             	mov    (%rbx),%rdi
    9714:	83 44 24 20 01       	addl   $0x1,0x20(%rsp)
    9719:	8b 6c 24 20          	mov    0x20(%rsp),%ebp
    971d:	8b 04 c2             	mov    (%rdx,%rax,8),%eax
    9720:	4c 8b 0f             	mov    (%rdi),%r9
    9723:	48 8b 7f 18          	mov    0x18(%rdi),%rdi
    9727:	48 8d 04 40          	lea    (%rax,%rax,2),%rax
    972b:	4d 8b 14 81          	mov    (%r9,%rax,4),%r10
    972f:	48 8d 0c 85 00 00 00 	lea    0x0(,%rax,4),%rcx
    9736:	00 
    9737:	4c 89 56 e8          	mov    %r10,-0x18(%rsi)
    973b:	45 8b 4c 09 08       	mov    0x8(%r9,%rcx,1),%r9d
    9740:	44 89 4e f0          	mov    %r9d,-0x10(%rsi)
    9744:	48 8b 04 87          	mov    (%rdi,%rax,4),%rax
    9748:	48 89 46 f4          	mov    %rax,-0xc(%rsi)
    974c:	8b 44 0f 08          	mov    0x8(%rdi,%rcx,1),%eax
    9750:	48 bf cd cc cc cc cc 	movabs $0xcccccccccccccccd,%rdi
    9757:	cc cc cc 
    975a:	89 46 fc             	mov    %eax,-0x4(%rsi)
    975d:	4c 89 c0             	mov    %r8,%rax
    9760:	48 29 d0             	sub    %rdx,%rax
    9763:	48 c1 f8 03          	sar    $0x3,%rax
    9767:	48 0f af c7          	imul   %rdi,%rax
    976b:	48 39 c5             	cmp    %rax,%rbp
    976e:	0f 83 ed fb ff ff    	jae    9361 <_ZN7MeshBVH5buildEv+0x1671>
    9774:	48 39 73 30          	cmp    %rsi,0x30(%rbx)
    9778:	0f 85 66 ff ff ff    	jne    96e4 <_ZN7MeshBVH5buildEv+0x19f4>
    977e:	48 8b 54 24 50       	mov    0x50(%rsp),%rdx
    9783:	48 8b 7c 24 30       	mov    0x30(%rsp),%rdi
    9788:	e8 53 da ff ff       	callq  71e0 <_ZNSt6vectorIN7MeshBVH8TriangleESaIS1_EE17_M_realloc_insertIJS1_EEEvN9__gnu_cxx17__normal_iteratorIPS1_S3_EEDpOT_>
    978d:	48 8b 73 28          	mov    0x28(%rbx),%rsi
    9791:	4d 8b 46 08          	mov    0x8(%r14),%r8
    9795:	e9 6f ff ff ff       	jmpq   9709 <_ZN7MeshBVH5buildEv+0x1a19>
    979a:	8d 56 01             	lea    0x1(%rsi),%edx
    979d:	f3 0f 11 68 14       	movss  %xmm5,0x14(%rax)
    97a2:	48 39 d1             	cmp    %rdx,%rcx
    97a5:	48 89 d6             	mov    %rdx,%rsi
    97a8:	0f 86 ac fe ff ff    	jbe    965a <_ZN7MeshBVH5buildEv+0x196a>
    97ae:	0f 28 f5             	movaps %xmm5,%xmm6
    97b1:	e9 2a fe ff ff       	jmpq   95e0 <_ZN7MeshBVH5buildEv+0x18f0>
    97b6:	48 8d 84 24 10 02 00 	lea    0x210(%rsp),%rax
    97bd:	00 
    97be:	4c 89 f6             	mov    %r14,%rsi
    97c1:	48 89 df             	mov    %rbx,%rdi
    97c4:	48 c7 84 24 10 02 00 	movq   $0x0,0x210(%rsp)
    97cb:	00 00 00 00 00 
    97d0:	48 c7 84 24 18 02 00 	movq   $0x0,0x218(%rsp)
    97d7:	00 00 00 00 00 
    97dc:	48 89 c2             	mov    %rax,%rdx
    97df:	48 c7 84 24 20 02 00 	movq   $0x0,0x220(%rsp)
    97e6:	00 00 00 00 00 
    97eb:	48 c7 84 24 28 02 00 	movq   $0x0,0x228(%rsp)
    97f2:	00 00 00 00 00 
    97f7:	48 c7 84 24 30 02 00 	movq   $0x0,0x230(%rsp)
    97fe:	00 00 00 00 00 
    9803:	48 c7 84 24 38 02 00 	movq   $0x0,0x238(%rsp)
    980a:	00 00 00 00 00 
    980f:	48 89 44 24 30       	mov    %rax,0x30(%rsp)
    9814:	e8 a7 cf ff ff       	callq  67c0 <_ZNK7MeshBVH20_split_centroids_sahERSt6vectorINS_8CentroidESaIS1_EEPS3_>
    9819:	49 8b 06             	mov    (%r14),%rax
    981c:	48 8b 53 08          	mov    0x8(%rbx),%rdx
    9820:	49 89 46 08          	mov    %rax,0x8(%r14)
    9824:	48 8b 43 10          	mov    0x10(%rbx),%rax
    9828:	48 29 d0             	sub    %rdx,%rax
    982b:	48 c1 f8 05          	sar    $0x5,%rax
    982f:	89 44 24 20          	mov    %eax,0x20(%rsp)
    9833:	89 44 2a 18          	mov    %eax,0x18(%rdx,%rbp,1)
    9837:	48 8b 84 24 10 02 00 	mov    0x210(%rsp),%rax
    983e:	00 
    983f:	48 39 84 24 18 02 00 	cmp    %rax,0x218(%rsp)
    9846:	00 
    9847:	0f 84 19 04 00 00    	je     9c66 <_ZN7MeshBVH5buildEv+0x1f76>
    984d:	48 8b 73 10          	mov    0x10(%rbx),%rsi
    9851:	48 3b 73 18          	cmp    0x18(%rbx),%rsi
    9855:	48 b8 ff ff 7f 7f ff 	movabs $0x7f7fffff7f7fffff,%rax
    985c:	ff 7f 7f 
    985f:	48 89 84 24 40 02 00 	mov    %rax,0x240(%rsp)
    9866:	00 
    9867:	48 b8 ff ff 7f ff ff 	movabs $0xff7fffffff7fffff,%rax
    986e:	ff 7f ff 
    9871:	48 c7 84 24 58 02 00 	movq   $0x0,0x258(%rsp)
    9878:	00 00 00 00 00 
    987d:	c7 84 24 48 02 00 00 	movl   $0x7f7fffff,0x248(%rsp)
    9884:	ff ff 7f 7f 
    9888:	48 89 84 24 4c 02 00 	mov    %rax,0x24c(%rsp)
    988f:	00 
    9890:	c7 84 24 54 02 00 00 	movl   $0xff7fffff,0x254(%rsp)
    9897:	ff ff 7f ff 
    989b:	0f 84 4d 04 00 00    	je     9cee <_ZN7MeshBVH5buildEv+0x1ffe>
    98a1:	48 85 f6             	test   %rsi,%rsi
    98a4:	74 19                	je     98bf <_ZN7MeshBVH5buildEv+0x1bcf>
    98a6:	66 0f 6f 84 24 40 02 	movdqa 0x240(%rsp),%xmm0
    98ad:	00 00 
    98af:	0f 11 06             	movups %xmm0,(%rsi)
    98b2:	66 0f 6f 84 24 50 02 	movdqa 0x250(%rsp),%xmm0
    98b9:	00 00 
    98bb:	0f 11 46 10          	movups %xmm0,0x10(%rsi)
    98bf:	48 83 43 10 20       	addq   $0x20,0x10(%rbx)
    98c4:	48 8b 84 24 28 02 00 	mov    0x228(%rsp),%rax
    98cb:	00 
    98cc:	48 39 84 24 30 02 00 	cmp    %rax,0x230(%rsp)
    98d3:	00 
    98d4:	0f 84 8c 03 00 00    	je     9c66 <_ZN7MeshBVH5buildEv+0x1f76>
    98da:	48 8b 73 10          	mov    0x10(%rbx),%rsi
    98de:	48 3b 73 18          	cmp    0x18(%rbx),%rsi
    98e2:	48 b8 ff ff 7f 7f ff 	movabs $0x7f7fffff7f7fffff,%rax
    98e9:	ff 7f 7f 
    98ec:	48 89 84 24 40 02 00 	mov    %rax,0x240(%rsp)
    98f3:	00 
    98f4:	48 b8 ff ff 7f ff ff 	movabs $0xff7fffffff7fffff,%rax
    98fb:	ff 7f ff 
    98fe:	48 c7 84 24 58 02 00 	movq   $0x0,0x258(%rsp)
    9905:	00 00 00 00 00 
    990a:	c7 84 24 48 02 00 00 	movl   $0x7f7fffff,0x248(%rsp)
    9911:	ff ff 7f 7f 
    9915:	48 89 84 24 4c 02 00 	mov    %rax,0x24c(%rsp)
    991c:	00 
    991d:	c7 84 24 54 02 00 00 	movl   $0xff7fffff,0x254(%rsp)
    9924:	ff ff 7f ff 
    9928:	0f 84 ff 03 00 00    	je     9d2d <_ZN7MeshBVH5buildEv+0x203d>
    992e:	48 85 f6             	test   %rsi,%rsi
    9931:	74 19                	je     994c <_ZN7MeshBVH5buildEv+0x1c5c>
    9933:	66 0f 6f 84 24 40 02 	movdqa 0x240(%rsp),%xmm0
    993a:	00 00 
    993c:	0f 11 06             	movups %xmm0,(%rsi)
    993f:	66 0f 6f 84 24 50 02 	movdqa 0x250(%rsp),%xmm0
    9946:	00 00 
    9948:	0f 11 46 10          	movups %xmm0,0x10(%rsi)
    994c:	48 83 43 10 20       	addq   $0x20,0x10(%rbx)
    9951:	48 8b 43 08          	mov    0x8(%rbx),%rax
    9955:	c6 44 28 1d 01       	movb   $0x1,0x1d(%rax,%rbp,1)
    995a:	48 8b 6c 24 30       	mov    0x30(%rsp),%rbp
    995f:	48 8d 45 30          	lea    0x30(%rbp),%rax
    9963:	48 89 44 24 58       	mov    %rax,0x58(%rsp)
    9968:	8b 44 24 20          	mov    0x20(%rsp),%eax
    996c:	8d 78 01             	lea    0x1(%rax),%edi
    996f:	48 8b 55 08          	mov    0x8(%rbp),%rdx
    9973:	48 be cd cc cc cc cc 	movabs $0xcccccccccccccccd,%rsi
    997a:	cc cc cc 
    997d:	48 c1 e0 05          	shl    $0x5,%rax
    9981:	89 7c 24 50          	mov    %edi,0x50(%rsp)
    9985:	48 8b 7d 00          	mov    0x0(%rbp),%rdi
    9989:	48 89 44 24 20       	mov    %rax,0x20(%rsp)
    998e:	48 03 43 08          	add    0x8(%rbx),%rax
    9992:	48 29 fa             	sub    %rdi,%rdx
    9995:	48 c1 fa 03          	sar    $0x3,%rdx
    9999:	48 0f af d6          	imul   %rsi,%rdx
    999d:	48 85 d2             	test   %rdx,%rdx
    99a0:	0f 84 a5 00 00 00    	je     9a4b <_ZN7MeshBVH5buildEv+0x1d5b>
    99a6:	f3 0f 10 48 0c       	movss  0xc(%rax),%xmm1
    99ab:	31 f6                	xor    %esi,%esi
    99ad:	31 c9                	xor    %ecx,%ecx
    99af:	f3 0f 10 40 10       	movss  0x10(%rax),%xmm0
    99b4:	f3 0f 10 68 14       	movss  0x14(%rax),%xmm5
    99b9:	f3 0f 10 20          	movss  (%rax),%xmm4
    99bd:	f3 0f 10 58 04       	movss  0x4(%rax),%xmm3
    99c2:	f3 0f 10 50 08       	movss  0x8(%rax),%xmm2
    99c7:	48 8d 34 b6          	lea    (%rsi,%rsi,4),%rsi
    99cb:	48 8d 34 f7          	lea    (%rdi,%rsi,8),%rsi
    99cf:	f3 0f 10 76 10       	movss  0x10(%rsi),%xmm6
    99d4:	f3 0f 5d f4          	minss  %xmm4,%xmm6
    99d8:	0f 28 e6             	movaps %xmm6,%xmm4
    99db:	f3 0f 10 76 14       	movss  0x14(%rsi),%xmm6
    99e0:	f3 0f 5d f3          	minss  %xmm3,%xmm6
    99e4:	0f 28 de             	movaps %xmm6,%xmm3
    99e7:	f3 0f 10 76 18       	movss  0x18(%rsi),%xmm6
    99ec:	f3 0f 5d f2          	minss  %xmm2,%xmm6
    99f0:	f3 0f 11 20          	movss  %xmm4,(%rax)
    99f4:	f3 0f 11 58 04       	movss  %xmm3,0x4(%rax)
    99f9:	f3 0f 11 70 08       	movss  %xmm6,0x8(%rax)
    99fe:	0f 28 d6             	movaps %xmm6,%xmm2
    9a01:	f3 0f 10 76 1c       	movss  0x1c(%rsi),%xmm6
    9a06:	f3 0f 5f f1          	maxss  %xmm1,%xmm6
    9a0a:	0f 28 ce             	movaps %xmm6,%xmm1
    9a0d:	f3 0f 10 76 20       	movss  0x20(%rsi),%xmm6
    9a12:	f3 0f 5f f0          	maxss  %xmm0,%xmm6
    9a16:	0f 28 c6             	movaps %xmm6,%xmm0
    9a19:	f3 0f 10 76 24       	movss  0x24(%rsi),%xmm6
    9a1e:	0f 2e f5             	ucomiss %xmm5,%xmm6
    9a21:	f3 0f 11 48 0c       	movss  %xmm1,0xc(%rax)
    9a26:	f3 0f 11 40 10       	movss  %xmm0,0x10(%rax)
    9a2b:	0f 87 58 01 00 00    	ja     9b89 <_ZN7MeshBVH5buildEv+0x1e99>
    9a31:	8d 71 01             	lea    0x1(%rcx),%esi
    9a34:	f3 0f 11 68 14       	movss  %xmm5,0x14(%rax)
    9a39:	48 39 f2             	cmp    %rsi,%rdx
    9a3c:	48 89 f1             	mov    %rsi,%rcx
    9a3f:	77 86                	ja     99c7 <_ZN7MeshBVH5buildEv+0x1cd7>
    9a41:	48 83 fa 08          	cmp    $0x8,%rdx
    9a45:	0f 87 d1 f6 ff ff    	ja     911c <_ZN7MeshBVH5buildEv+0x142c>
    9a4b:	c6 40 1c 01          	movb   $0x1,0x1c(%rax)
    9a4f:	48 8b 43 28          	mov    0x28(%rbx),%rax
    9a53:	48 bf ab aa aa aa aa 	movabs $0xaaaaaaaaaaaaaaab,%rdi
    9a5a:	aa aa aa 
    9a5d:	48 2b 43 20          	sub    0x20(%rbx),%rax
    9a61:	48 8b 53 08          	mov    0x8(%rbx),%rdx
    9a65:	48 be cd cc cc cc cc 	movabs $0xcccccccccccccccd,%rsi
    9a6c:	cc cc cc 
    9a6f:	48 c1 f8 03          	sar    $0x3,%rax
    9a73:	48 0f af c7          	imul   %rdi,%rax
    9a77:	48 8b 7c 24 20       	mov    0x20(%rsp),%rdi
    9a7c:	89 44 3a 18          	mov    %eax,0x18(%rdx,%rdi,1)
    9a80:	48 8b 45 08          	mov    0x8(%rbp),%rax
    9a84:	48 2b 45 00          	sub    0x0(%rbp),%rax
    9a88:	48 8b 53 08          	mov    0x8(%rbx),%rdx
    9a8c:	48 c1 f8 03          	sar    $0x3,%rax
    9a90:	48 0f af c6          	imul   %rsi,%rax
    9a94:	83 e8 01             	sub    $0x1,%eax
    9a97:	88 44 3a 1d          	mov    %al,0x1d(%rdx,%rdi,1)
    9a9b:	48 8b 55 00          	mov    0x0(%rbp),%rdx
    9a9f:	48 3b 55 08          	cmp    0x8(%rbp),%rdx
    9aa3:	0f 84 7d f8 ff ff    	je     9326 <_ZN7MeshBVH5buildEv+0x1636>
    9aa9:	48 8d 43 20          	lea    0x20(%rbx),%rax
    9aad:	48 8b 73 28          	mov    0x28(%rbx),%rsi
    9ab1:	48 c7 44 24 30 00 00 	movq   $0x0,0x30(%rsp)
    9ab8:	00 00 
    9aba:	c7 44 24 20 00 00 00 	movl   $0x0,0x20(%rsp)
    9ac1:	00 
    9ac2:	48 89 44 24 60       	mov    %rax,0x60(%rsp)
    9ac7:	e9 97 00 00 00       	jmpq   9b63 <_ZN7MeshBVH5buildEv+0x1e73>
    9acc:	48 85 f6             	test   %rsi,%rsi
    9acf:	74 18                	je     9ae9 <_ZN7MeshBVH5buildEv+0x1df9>
    9ad1:	66 0f 6f 84 24 30 01 	movdqa 0x130(%rsp),%xmm0
    9ad8:	00 00 
    9ada:	0f 11 06             	movups %xmm0,(%rsi)
    9add:	48 8b 84 24 40 01 00 	mov    0x140(%rsp),%rax
    9ae4:	00 
    9ae5:	48 89 46 10          	mov    %rax,0x10(%rsi)
    9ae9:	48 83 c6 18          	add    $0x18,%rsi
    9aed:	48 89 73 28          	mov    %rsi,0x28(%rbx)
    9af1:	48 8b 44 24 30       	mov    0x30(%rsp),%rax
    9af6:	48 8b 3b             	mov    (%rbx),%rdi
    9af9:	83 44 24 20 01       	addl   $0x1,0x20(%rsp)
    9afe:	48 8d 04 80          	lea    (%rax,%rax,4),%rax
    9b02:	4c 8b 07             	mov    (%rdi),%r8
    9b05:	48 8b 7f 18          	mov    0x18(%rdi),%rdi
    9b09:	8b 04 c2             	mov    (%rdx,%rax,8),%eax
    9b0c:	48 8d 04 40          	lea    (%rax,%rax,2),%rax
    9b10:	4d 8b 0c 80          	mov    (%r8,%rax,4),%r9
    9b14:	48 8d 0c 85 00 00 00 	lea    0x0(,%rax,4),%rcx
    9b1b:	00 
    9b1c:	4c 89 4e e8          	mov    %r9,-0x18(%rsi)
    9b20:	45 8b 44 08 08       	mov    0x8(%r8,%rcx,1),%r8d
    9b25:	44 89 46 f0          	mov    %r8d,-0x10(%rsi)
    9b29:	48 8b 04 87          	mov    (%rdi,%rax,4),%rax
    9b2d:	48 89 46 f4          	mov    %rax,-0xc(%rsi)
    9b31:	8b 44 0f 08          	mov    0x8(%rdi,%rcx,1),%eax
    9b35:	48 b9 cd cc cc cc cc 	movabs $0xcccccccccccccccd,%rcx
    9b3c:	cc cc cc 
    9b3f:	8b 7c 24 20          	mov    0x20(%rsp),%edi
    9b43:	89 46 fc             	mov    %eax,-0x4(%rsi)
    9b46:	48 8b 45 08          	mov    0x8(%rbp),%rax
    9b4a:	48 89 7c 24 30       	mov    %rdi,0x30(%rsp)
    9b4f:	48 29 d0             	sub    %rdx,%rax
    9b52:	48 c1 f8 03          	sar    $0x3,%rax
    9b56:	48 0f af c1          	imul   %rcx,%rax
    9b5a:	48 39 c7             	cmp    %rax,%rdi
    9b5d:	0f 83 c3 f7 ff ff    	jae    9326 <_ZN7MeshBVH5buildEv+0x1636>
    9b63:	48 3b 73 30          	cmp    0x30(%rbx),%rsi
    9b67:	0f 85 5f ff ff ff    	jne    9acc <_ZN7MeshBVH5buildEv+0x1ddc>
    9b6d:	48 8b 54 24 18       	mov    0x18(%rsp),%rdx
    9b72:	48 8b 7c 24 60       	mov    0x60(%rsp),%rdi
    9b77:	e8 64 d6 ff ff       	callq  71e0 <_ZNSt6vectorIN7MeshBVH8TriangleESaIS1_EE17_M_realloc_insertIJS1_EEEvN9__gnu_cxx17__normal_iteratorIPS1_S3_EEDpOT_>
    9b7c:	48 8b 73 28          	mov    0x28(%rbx),%rsi
    9b80:	48 8b 55 00          	mov    0x0(%rbp),%rdx
    9b84:	e9 68 ff ff ff       	jmpq   9af1 <_ZN7MeshBVH5buildEv+0x1e01>
    9b89:	8d 71 01             	lea    0x1(%rcx),%esi
    9b8c:	f3 0f 11 70 14       	movss  %xmm6,0x14(%rax)
    9b91:	48 39 f2             	cmp    %rsi,%rdx
    9b94:	48 89 f1             	mov    %rsi,%rcx
    9b97:	0f 86 a4 fe ff ff    	jbe    9a41 <_ZN7MeshBVH5buildEv+0x1d51>
    9b9d:	0f 28 ee             	movaps %xmm6,%xmm5
    9ba0:	e9 22 fe ff ff       	jmpq   99c7 <_ZN7MeshBVH5buildEv+0x1cd7>
    9ba5:	48 8b 3c 24          	mov    (%rsp),%rdi
    9ba9:	48 8d 94 24 40 02 00 	lea    0x240(%rsp),%rdx
    9bb0:	00 
    9bb1:	e8 6a d4 ff ff       	callq  7020 <_ZNSt6vectorIN7MeshBVH4NodeESaIS1_EE17_M_realloc_insertIJS1_EEEvN9__gnu_cxx17__normal_iteratorIPS1_S3_EEDpOT_>
    9bb6:	e9 12 f3 ff ff       	jmpq   8ecd <_ZN7MeshBVH5buildEv+0x11dd>
    9bbb:	48 8b 3c 24          	mov    (%rsp),%rdi
    9bbf:	48 8d 94 24 40 02 00 	lea    0x240(%rsp),%rdx
    9bc6:	00 
    9bc7:	e8 54 d4 ff ff       	callq  7020 <_ZNSt6vectorIN7MeshBVH4NodeESaIS1_EE17_M_realloc_insertIJS1_EEEvN9__gnu_cxx17__normal_iteratorIPS1_S3_EEDpOT_>
    9bcc:	e9 68 f2 ff ff       	jmpq   8e39 <_ZN7MeshBVH5buildEv+0x1149>
    9bd1:	48 89 c3             	mov    %rax,%rbx
    9bd4:	48 8b bc 24 c8 01 00 	mov    0x1c8(%rsp),%rdi
    9bdb:	00 
    9bdc:	48 85 ff             	test   %rdi,%rdi
    9bdf:	74 05                	je     9be6 <_ZN7MeshBVH5buildEv+0x1ef6>
    9be1:	e8 2a 83 ff ff       	callq  1f10 <_ZdlPv@plt>
    9be6:	48 8b bc 24 b0 01 00 	mov    0x1b0(%rsp),%rdi
    9bed:	00 
    9bee:	48 85 ff             	test   %rdi,%rdi
    9bf1:	74 05                	je     9bf8 <_ZN7MeshBVH5buildEv+0x1f08>
    9bf3:	e8 18 83 ff ff       	callq  1f10 <_ZdlPv@plt>
    9bf8:	48 8b bc 24 98 01 00 	mov    0x198(%rsp),%rdi
    9bff:	00 
    9c00:	48 85 ff             	test   %rdi,%rdi
    9c03:	74 05                	je     9c0a <_ZN7MeshBVH5buildEv+0x1f1a>
    9c05:	e8 06 83 ff ff       	callq  1f10 <_ZdlPv@plt>
    9c0a:	48 8b bc 24 80 01 00 	mov    0x180(%rsp),%rdi
    9c11:	00 
    9c12:	48 85 ff             	test   %rdi,%rdi
    9c15:	74 05                	je     9c1c <_ZN7MeshBVH5buildEv+0x1f2c>
    9c17:	e8 f4 82 ff ff       	callq  1f10 <_ZdlPv@plt>
    9c1c:	48 8b bc 24 68 01 00 	mov    0x168(%rsp),%rdi
    9c23:	00 
    9c24:	48 85 ff             	test   %rdi,%rdi
    9c27:	74 05                	je     9c2e <_ZN7MeshBVH5buildEv+0x1f3e>
    9c29:	e8 e2 82 ff ff       	callq  1f10 <_ZdlPv@plt>
    9c2e:	48 8b bc 24 50 01 00 	mov    0x150(%rsp),%rdi
    9c35:	00 
    9c36:	48 85 ff             	test   %rdi,%rdi
    9c39:	74 05                	je     9c40 <_ZN7MeshBVH5buildEv+0x1f50>
    9c3b:	e8 d0 82 ff ff       	callq  1f10 <_ZdlPv@plt>
    9c40:	48 8b 7c 24 70       	mov    0x70(%rsp),%rdi
    9c45:	48 85 ff             	test   %rdi,%rdi
    9c48:	74 05                	je     9c4f <_ZN7MeshBVH5buildEv+0x1f5f>
    9c4a:	e8 c1 82 ff ff       	callq  1f10 <_ZdlPv@plt>
    9c4f:	48 89 df             	mov    %rbx,%rdi
    9c52:	e8 49 84 ff ff       	callq  20a0 <_Unwind_Resume@plt>
    9c57:	e8 04 82 ff ff       	callq  1e60 <_ZSt17__throw_bad_allocv@plt>
    9c5c:	e8 1f 83 ff ff       	callq  1f80 <__stack_chk_fail@plt>
    9c61:	48 89 c3             	mov    %rax,%rbx
    9c64:	eb da                	jmp    9c40 <_ZN7MeshBVH5buildEv+0x1f50>
    9c66:	48 8d 0d 13 03 00 00 	lea    0x313(%rip),%rcx        # 9f80 <_ZZN7MeshBVH6_buildEjRSt6vectorINS_8CentroidESaIS1_EEjE19__PRETTY_FUNCTION__>
    9c6d:	48 8d 35 32 02 00 00 	lea    0x232(%rip),%rsi        # 9ea6 <_IO_stdin_used+0x86>
    9c74:	48 8d 3d 5c 02 00 00 	lea    0x25c(%rip),%rdi        # 9ed7 <_IO_stdin_used+0xb7>
    9c7b:	ba 36 01 00 00       	mov    $0x136,%edx
    9c80:	e8 2b 82 ff ff       	callq  1eb0 <__assert_fail@plt>
    9c85:	48 89 c3             	mov    %rax,%rbx
    9c88:	eb 92                	jmp    9c1c <_ZN7MeshBVH5buildEv+0x1f2c>
    9c8a:	48 8b 3c 24          	mov    (%rsp),%rdi
    9c8e:	48 8d 94 24 40 02 00 	lea    0x240(%rsp),%rdx
    9c95:	00 
    9c96:	e8 85 d3 ff ff       	callq  7020 <_ZNSt6vectorIN7MeshBVH4NodeESaIS1_EE17_M_realloc_insertIJS1_EEEvN9__gnu_cxx17__normal_iteratorIPS1_S3_EEDpOT_>
    9c9b:	e9 d0 f8 ff ff       	jmpq   9570 <_ZN7MeshBVH5buildEv+0x1880>
    9ca0:	48 8b 3c 24          	mov    (%rsp),%rdi
    9ca4:	48 8d 94 24 40 02 00 	lea    0x240(%rsp),%rdx
    9cab:	00 
    9cac:	e8 6f d3 ff ff       	callq  7020 <_ZNSt6vectorIN7MeshBVH4NodeESaIS1_EE17_M_realloc_insertIJS1_EEEvN9__gnu_cxx17__normal_iteratorIPS1_S3_EEDpOT_>
    9cb1:	e9 26 f8 ff ff       	jmpq   94dc <_ZN7MeshBVH5buildEv+0x17ec>
    9cb6:	48 89 c3             	mov    %rax,%rbx
    9cb9:	48 8b bc 24 f8 01 00 	mov    0x1f8(%rsp),%rdi
    9cc0:	00 
    9cc1:	48 85 ff             	test   %rdi,%rdi
    9cc4:	74 05                	je     9ccb <_ZN7MeshBVH5buildEv+0x1fdb>
    9cc6:	e8 45 82 ff ff       	callq  1f10 <_ZdlPv@plt>
    9ccb:	48 8b bc 24 e0 01 00 	mov    0x1e0(%rsp),%rdi
    9cd2:	00 
    9cd3:	48 85 ff             	test   %rdi,%rdi
    9cd6:	0f 84 f8 fe ff ff    	je     9bd4 <_ZN7MeshBVH5buildEv+0x1ee4>
    9cdc:	e8 2f 82 ff ff       	callq  1f10 <_ZdlPv@plt>
    9ce1:	e9 ee fe ff ff       	jmpq   9bd4 <_ZN7MeshBVH5buildEv+0x1ee4>
    9ce6:	48 89 c3             	mov    %rax,%rbx
    9ce9:	e9 0a ff ff ff       	jmpq   9bf8 <_ZN7MeshBVH5buildEv+0x1f08>
    9cee:	48 8b 3c 24          	mov    (%rsp),%rdi
    9cf2:	48 8d 94 24 40 02 00 	lea    0x240(%rsp),%rdx
    9cf9:	00 
    9cfa:	e8 21 d3 ff ff       	callq  7020 <_ZNSt6vectorIN7MeshBVH4NodeESaIS1_EE17_M_realloc_insertIJS1_EEEvN9__gnu_cxx17__normal_iteratorIPS1_S3_EEDpOT_>
    9cff:	e9 c0 fb ff ff       	jmpq   98c4 <_ZN7MeshBVH5buildEv+0x1bd4>
    9d04:	48 89 c3             	mov    %rax,%rbx
    9d07:	48 8b bc 24 28 02 00 	mov    0x228(%rsp),%rdi
    9d0e:	00 
    9d0f:	48 85 ff             	test   %rdi,%rdi
    9d12:	74 05                	je     9d19 <_ZN7MeshBVH5buildEv+0x2029>
    9d14:	e8 f7 81 ff ff       	callq  1f10 <_ZdlPv@plt>
    9d19:	48 8b bc 24 10 02 00 	mov    0x210(%rsp),%rdi
    9d20:	00 
    9d21:	48 85 ff             	test   %rdi,%rdi
    9d24:	74 93                	je     9cb9 <_ZN7MeshBVH5buildEv+0x1fc9>
    9d26:	e8 e5 81 ff ff       	callq  1f10 <_ZdlPv@plt>
    9d2b:	eb 8c                	jmp    9cb9 <_ZN7MeshBVH5buildEv+0x1fc9>
    9d2d:	48 8b 3c 24          	mov    (%rsp),%rdi
    9d31:	48 8d 94 24 40 02 00 	lea    0x240(%rsp),%rdx
    9d38:	00 
    9d39:	e8 e2 d2 ff ff       	callq  7020 <_ZNSt6vectorIN7MeshBVH4NodeESaIS1_EE17_M_realloc_insertIJS1_EEEvN9__gnu_cxx17__normal_iteratorIPS1_S3_EEDpOT_>
    9d3e:	e9 0e fc ff ff       	jmpq   9951 <_ZN7MeshBVH5buildEv+0x1c61>
    9d43:	48 8b 54 24 18       	mov    0x18(%rsp),%rdx
    9d48:	48 8b 3c 24          	mov    (%rsp),%rdi
    9d4c:	e8 cf d2 ff ff       	callq  7020 <_ZNSt6vectorIN7MeshBVH4NodeESaIS1_EE17_M_realloc_insertIJS1_EEEvN9__gnu_cxx17__normal_iteratorIPS1_S3_EEDpOT_>
    9d51:	e9 68 f5 ff ff       	jmpq   92be <_ZN7MeshBVH5buildEv+0x15ce>
    9d56:	48 8b 54 24 18       	mov    0x18(%rsp),%rdx
    9d5b:	48 8b 3c 24          	mov    (%rsp),%rdi
    9d5f:	e8 bc d2 ff ff       	callq  7020 <_ZNSt6vectorIN7MeshBVH4NodeESaIS1_EE17_M_realloc_insertIJS1_EEEvN9__gnu_cxx17__normal_iteratorIPS1_S3_EEDpOT_>
    9d64:	e9 c8 f4 ff ff       	jmpq   9231 <_ZN7MeshBVH5buildEv+0x1541>
    9d69:	48 8b bc 24 58 02 00 	mov    0x258(%rsp),%rdi
    9d70:	00 
    9d71:	48 89 c3             	mov    %rax,%rbx
    9d74:	48 85 ff             	test   %rdi,%rdi
    9d77:	74 05                	je     9d7e <_ZN7MeshBVH5buildEv+0x208e>
    9d79:	e8 92 81 ff ff       	callq  1f10 <_ZdlPv@plt>
    9d7e:	48 8b bc 24 40 02 00 	mov    0x240(%rsp),%rdi
    9d85:	00 
    9d86:	48 85 ff             	test   %rdi,%rdi
    9d89:	0f 84 78 ff ff ff    	je     9d07 <_ZN7MeshBVH5buildEv+0x2017>
    9d8f:	e8 7c 81 ff ff       	callq  1f10 <_ZdlPv@plt>
    9d94:	e9 6e ff ff ff       	jmpq   9d07 <_ZN7MeshBVH5buildEv+0x2017>
    9d99:	0f 1f 80 00 00 00 00 	nopl   0x0(%rax)

0000000000009da0 <__libc_csu_init>:
    9da0:	41 57                	push   %r15
    9da2:	41 56                	push   %r14
    9da4:	49 89 d7             	mov    %rdx,%r15
    9da7:	41 55                	push   %r13
    9da9:	41 54                	push   %r12
    9dab:	4c 8d 25 56 1b 20 00 	lea    0x201b56(%rip),%r12        # 20b908 <__frame_dummy_init_array_entry>
    9db2:	55                   	push   %rbp
    9db3:	48 8d 2d 5e 1b 20 00 	lea    0x201b5e(%rip),%rbp        # 20b918 <__init_array_end>
    9dba:	53                   	push   %rbx
    9dbb:	41 89 fd             	mov    %edi,%r13d
    9dbe:	49 89 f6             	mov    %rsi,%r14
    9dc1:	4c 29 e5             	sub    %r12,%rbp
    9dc4:	48 83 ec 08          	sub    $0x8,%rsp
    9dc8:	48 c1 fd 03          	sar    $0x3,%rbp
    9dcc:	e8 df 7f ff ff       	callq  1db0 <_init>
    9dd1:	48 85 ed             	test   %rbp,%rbp
    9dd4:	74 20                	je     9df6 <__libc_csu_init+0x56>
    9dd6:	31 db                	xor    %ebx,%ebx
    9dd8:	0f 1f 84 00 00 00 00 	nopl   0x0(%rax,%rax,1)
    9ddf:	00 
    9de0:	4c 89 fa             	mov    %r15,%rdx
    9de3:	4c 89 f6             	mov    %r14,%rsi
    9de6:	44 89 ef             	mov    %r13d,%edi
    9de9:	41 ff 14 dc          	callq  *(%r12,%rbx,8)
    9ded:	48 83 c3 01          	add    $0x1,%rbx
    9df1:	48 39 dd             	cmp    %rbx,%rbp
    9df4:	75 ea                	jne    9de0 <__libc_csu_init+0x40>
    9df6:	48 83 c4 08          	add    $0x8,%rsp
    9dfa:	5b                   	pop    %rbx
    9dfb:	5d                   	pop    %rbp
    9dfc:	41 5c                	pop    %r12
    9dfe:	41 5d                	pop    %r13
    9e00:	41 5e                	pop    %r14
    9e02:	41 5f                	pop    %r15
    9e04:	c3                   	retq   
    9e05:	90                   	nop
    9e06:	66 2e 0f 1f 84 00 00 	nopw   %cs:0x0(%rax,%rax,1)
    9e0d:	00 00 00 

0000000000009e10 <__libc_csu_fini>:
    9e10:	f3 c3                	repz retq 

Disassembly of section .fini:

0000000000009e14 <_fini>:
    9e14:	48 83 ec 08          	sub    $0x8,%rsp
    9e18:	48 83 c4 08          	add    $0x8,%rsp
    9e1c:	c3                   	retq   
